; ModuleID = '/home/ubuntu/container-data/fact/target/debug/deps/fact-ccf4edac9aa028c8.ll'
source_filename = "fact.3prfii8p-cgu.0"
target datalayout = "e-m:e-p270:32:32-p271:32:32-p272:64:64-i64:64-f80:128-n8:16:32:64-S128"
target triple = "x86_64-unknown-linux-gnu"

%"core::fmt::Formatter" = type { [0 x i64], { i64, i64 }, [0 x i64], { i64, i64 }, [0 x i64], { {}*, [3 x i64]* }, [0 x i32], i32, [0 x i32], i32, [0 x i8], i8, [7 x i8] }
%"core::fmt::Opaque" = type {}
%"core::fmt::Arguments" = type { [0 x i64], { [0 x { [0 x i8]*, i64 }]*, i64 }, [0 x i64], { i64*, i64 }, [0 x i64], { [0 x { i8*, i64* }]*, i64 }, [0 x i64] }
%"core::mem::MaybeUninit<core::ptr::swap_nonoverlapping_bytes::UnalignedBlock>" = type { [4 x i64] }
%"core::ptr::swap_nonoverlapping_bytes::UnalignedBlock" = type { [0 x i64], i64, [0 x i64], i64, [0 x i64], i64, [0 x i64], i64, [0 x i64] }
%"core::option::Option<i32>::Some" = type { [1 x i32], i32, [0 x i32] }
%"klee_sys::CStr" = type { [0 x i8], [0 x i8] }
%"core::panic::Location" = type { [0 x i64], { [0 x i8]*, i64 }, [0 x i32], i32, [0 x i32], i32, [0 x i32] }
%"panic::PanicInfo" = type { [0 x i64], { {}*, [3 x i64]* }, [0 x i64], i64*, [0 x i64], %"core::panic::Location"*, [0 x i64] }

@alloc22 = private unnamed_addr constant <{ [11 x i8] }> <{ [11 x i8] c"src/main.rs" }>, align 1
@alloc17 = private unnamed_addr constant <{ i8*, [16 x i8] }> <{ i8* getelementptr inbounds (<{ [11 x i8] }>, <{ [11 x i8] }>* @alloc22, i32 0, i32 0, i32 0), [16 x i8] c"\0B\00\00\00\00\00\00\00\0C\00\00\00\16\00\00\00" }>, align 8
@str.0 = internal constant [33 x i8] c"attempt to subtract with overflow"
@alloc19 = private unnamed_addr constant <{ i8*, [16 x i8] }> <{ i8* getelementptr inbounds (<{ [11 x i8] }>, <{ [11 x i8] }>* @alloc22, i32 0, i32 0, i32 0), [16 x i8] c"\0B\00\00\00\00\00\00\00\0C\00\00\00\09\00\00\00" }>, align 8
@str.1 = internal constant [33 x i8] c"attempt to multiply with overflow"
@alloc21 = private unnamed_addr constant <{ i8*, [16 x i8] }> <{ i8* getelementptr inbounds (<{ [11 x i8] }>, <{ [11 x i8] }>* @alloc22, i32 0, i32 0, i32 0), [16 x i8] c"\0B\00\00\00\00\00\00\00\17\00\00\00\0D\00\00\00" }>, align 8
@alloc5 = private unnamed_addr constant <{ [45 x i8] }> <{ [45 x i8] c"assertion failed: `(left == right)`\0A  left: `" }>, align 1
@alloc7 = private unnamed_addr constant <{ [12 x i8] }> <{ [12 x i8] c"`,\0A right: `" }>, align 1
@alloc8 = private unnamed_addr constant <{ [1 x i8] }> <{ [1 x i8] c"`" }>, align 1
@alloc6 = private unnamed_addr constant <{ i8*, [8 x i8], i8*, [8 x i8], i8*, [8 x i8] }> <{ i8* getelementptr inbounds (<{ [45 x i8] }>, <{ [45 x i8] }>* @alloc5, i32 0, i32 0, i32 0), [8 x i8] c"-\00\00\00\00\00\00\00", i8* getelementptr inbounds (<{ [12 x i8] }>, <{ [12 x i8] }>* @alloc7, i32 0, i32 0, i32 0), [8 x i8] c"\0C\00\00\00\00\00\00\00", i8* getelementptr inbounds (<{ [1 x i8] }>, <{ [1 x i8] }>* @alloc8, i32 0, i32 0, i32 0), [8 x i8] c"\01\00\00\00\00\00\00\00" }>, align 8
@alloc23 = private unnamed_addr constant <{ i8*, [16 x i8] }> <{ i8* getelementptr inbounds (<{ [11 x i8] }>, <{ [11 x i8] }>* @alloc22, i32 0, i32 0, i32 0), [16 x i8] c"\0B\00\00\00\00\00\00\00\1F\00\00\00\05\00\00\00" }>, align 8
@alloc24 = private unnamed_addr constant <{ [2 x i8] }> <{ [2 x i8] c"n\00" }>, align 1
@anon.965c706604096d42e5b155eaa3c30edf.12 = private unnamed_addr constant <{ [0 x i8] }> zeroinitializer, align 8
@anon.965c706604096d42e5b155eaa3c30edf.177 = private unnamed_addr constant { void ({}*)*, i64, i64, i64 ({}*)* } { void ({}*)* bitcast (void ({ i8*, i8* }**)* @"_ZN4core3ptr102drop_in_place$LT$$RF$core..iter..adapters..copied..Copied$LT$core..slice..iter..Iter$LT$u8$GT$$GT$$GT$17h5913dccf4681891cE" to void ({}*)*), i64 0, i64 1, i64 ({}*)* @"_ZN36_$LT$T$u20$as$u20$core..any..Any$GT$7type_id17h108f63b8120e9c9cE" }, align 8
@anon.965c706604096d42e5b155eaa3c30edf.223 = private unnamed_addr constant <{ [200 x i8] }> <{ [200 x i8] c"00010203040506070809101112131415161718192021222324252627282930313233343536373839404142434445464748495051525354555657585960616263646566676869707172737475767778798081828384858687888990919293949596979899" }>, align 1
@anon.965c706604096d42e5b155eaa3c30edf.244 = private unnamed_addr constant <{ [34 x i8] }> <{ [34 x i8] c" out of range for slice of length " }>, align 1
@anon.965c706604096d42e5b155eaa3c30edf.219 = private unnamed_addr constant <{ i8*, [16 x i8] }> <{ i8* getelementptr inbounds (<{ [27 x i8] }>, <{ [27 x i8] }>* @anon.965c706604096d42e5b155eaa3c30edf.218, i32 0, i32 0, i32 0), [16 x i8] c"\1B\00\00\00\00\00\00\00e\00\00\00\14\00\00\00" }>, align 8
@anon.965c706604096d42e5b155eaa3c30edf.222 = private unnamed_addr constant <{ [2 x i8] }> <{ [2 x i8] c"0x" }>, align 1
@anon.965c706604096d42e5b155eaa3c30edf.245 = private unnamed_addr constant <{ i8*, [8 x i8], i8*, [8 x i8] }> <{ i8* getelementptr inbounds (<{ [18 x i8] }>, <{ [18 x i8] }>* @anon.965c706604096d42e5b155eaa3c30edf.243, i32 0, i32 0, i32 0), [8 x i8] c"\12\00\00\00\00\00\00\00", i8* getelementptr inbounds (<{ [34 x i8] }>, <{ [34 x i8] }>* @anon.965c706604096d42e5b155eaa3c30edf.244, i32 0, i32 0, i32 0), [8 x i8] c"\22\00\00\00\00\00\00\00" }>, align 8
@anon.965c706604096d42e5b155eaa3c30edf.243 = private unnamed_addr constant <{ [18 x i8] }> <{ [18 x i8] c"range start index " }>, align 1
@anon.965c706604096d42e5b155eaa3c30edf.218 = private unnamed_addr constant <{ [27 x i8] }> <{ [27 x i8] c"library/core/src/fmt/num.rs" }>, align 1

; Function Attrs: nounwind nonlazybind
define internal zeroext i1 @"_ZN42_$LT$$RF$T$u20$as$u20$core..fmt..Debug$GT$3fmt17hd65a54898de4153eE"(i32** noalias readonly align 8 dereferenceable(8) %self, %"core::fmt::Formatter"* align 8 dereferenceable(64) %f) unnamed_addr #0 !dbg !393 {
start:
  %f.dbg.spill = alloca %"core::fmt::Formatter"*, align 8
  %self.dbg.spill = alloca i32**, align 8
  store i32** %self, i32*** %self.dbg.spill, align 8
  call void @llvm.dbg.declare(metadata i32*** %self.dbg.spill, metadata !431, metadata !DIExpression()), !dbg !435
  store %"core::fmt::Formatter"* %f, %"core::fmt::Formatter"** %f.dbg.spill, align 8
  call void @llvm.dbg.declare(metadata %"core::fmt::Formatter"** %f.dbg.spill, metadata !432, metadata !DIExpression()), !dbg !436
  %_4 = load i32*, i32** %self, align 8, !dbg !437, !nonnull !28
  %0 = call zeroext i1 @"_ZN4core3fmt3num50_$LT$impl$u20$core..fmt..Debug$u20$for$u20$i32$GT$3fmt17h8b462461efc32fa4E"(i32* noalias readonly align 4 dereferenceable(4) %_4, %"core::fmt::Formatter"* align 8 dereferenceable(64) %f), !dbg !438
  ret i1 %0, !dbg !439
}

; Function Attrs: inlinehint norecurse nounwind nonlazybind readnone
define internal i32 @"_ZN47_$LT$i32$u20$as$u20$core..iter..range..Step$GT$17forward_unchecked17h13295d967d0675deE"(i32 %start1, i64 %n) unnamed_addr #1 !dbg !440 {
start:
  %n.dbg.spill = alloca i64, align 8
  %start.dbg.spill = alloca i32, align 4
  store i32 %start1, i32* %start.dbg.spill, align 4
  call void @llvm.dbg.declare(metadata i32* %start.dbg.spill, metadata !448, metadata !DIExpression()), !dbg !450
  store i64 %n, i64* %n.dbg.spill, align 8
  call void @llvm.dbg.declare(metadata i64* %n.dbg.spill, metadata !449, metadata !DIExpression()), !dbg !451
  %_4 = trunc i64 %n to i32, !dbg !452
  %0 = call i32 @"_ZN4core3num21_$LT$impl$u20$i32$GT$13unchecked_add17h23235de5f96169ccE"(i32 %start1, i32 %_4), !dbg !453
  ret i32 %0, !dbg !454
}

; Function Attrs: inlinehint nounwind nonlazybind
define internal void @_ZN4core10intrinsics19copy_nonoverlapping17heb9c70f09399f967E(i32* %src, i32* %dst, i64 %count) unnamed_addr #2 !dbg !455 {
start:
  %count.dbg.spill = alloca i64, align 8
  %dst.dbg.spill = alloca i32*, align 8
  %src.dbg.spill = alloca i32*, align 8
  store i32* %src, i32** %src.dbg.spill, align 8
  call void @llvm.dbg.declare(metadata i32** %src.dbg.spill, metadata !463, metadata !DIExpression()), !dbg !466
  store i32* %dst, i32** %dst.dbg.spill, align 8
  call void @llvm.dbg.declare(metadata i32** %dst.dbg.spill, metadata !464, metadata !DIExpression()), !dbg !467
  store i64 %count, i64* %count.dbg.spill, align 8
  call void @llvm.dbg.declare(metadata i64* %count.dbg.spill, metadata !465, metadata !DIExpression()), !dbg !468
  %0 = mul i64 4, %count, !dbg !469
  %1 = bitcast i32* %dst to i8*, !dbg !469
  %2 = bitcast i32* %src to i8*, !dbg !469
  %3 = call i8* @memcpy(i8* %1, i8* %2, i64 %0), !dbg !469
  ret void, !dbg !470
}

; Function Attrs: inlinehint norecurse nounwind nonlazybind readonly
define internal zeroext i1 @"_ZN4core3cmp5impls55_$LT$impl$u20$core..cmp..PartialOrd$u20$for$u20$i32$GT$2lt17hde252bf4809fdad5E"(i32* noalias readonly align 4 dereferenceable(4) %self, i32* noalias readonly align 4 dereferenceable(4) %other) unnamed_addr #3 !dbg !471 {
start:
  %other.dbg.spill = alloca i32*, align 8
  %self.dbg.spill = alloca i32*, align 8
  store i32* %self, i32** %self.dbg.spill, align 8
  call void @llvm.dbg.declare(metadata i32** %self.dbg.spill, metadata !479, metadata !DIExpression()), !dbg !481
  store i32* %other, i32** %other.dbg.spill, align 8
  call void @llvm.dbg.declare(metadata i32** %other.dbg.spill, metadata !480, metadata !DIExpression()), !dbg !482
  %_3 = load i32, i32* %self, align 4, !dbg !483
  %_4 = load i32, i32* %other, align 4, !dbg !484
  %0 = icmp slt i32 %_3, %_4, !dbg !483
  ret i1 %0, !dbg !485
}

; Function Attrs: norecurse nounwind nonlazybind readnone
define internal { i8*, i64* } @_ZN4core3fmt10ArgumentV13new17h520fd58315662778E(i32** noalias readonly align 8 dereferenceable(8) %x, i1 (i32**, %"core::fmt::Formatter"*)* nonnull %f) unnamed_addr #4 !dbg !486 {
start:
  %0 = alloca %"core::fmt::Opaque"*, align 8
  %1 = alloca i1 (%"core::fmt::Opaque"*, %"core::fmt::Formatter"*)*, align 8
  %f.dbg.spill = alloca i1 (i32**, %"core::fmt::Formatter"*)*, align 8
  %x.dbg.spill = alloca i32**, align 8
  %2 = alloca { i8*, i64* }, align 8
  store i32** %x, i32*** %x.dbg.spill, align 8
  call void @llvm.dbg.declare(metadata i32*** %x.dbg.spill, metadata !500, metadata !DIExpression()), !dbg !504
  store i1 (i32**, %"core::fmt::Formatter"*)* %f, i1 (i32**, %"core::fmt::Formatter"*)** %f.dbg.spill, align 8
  call void @llvm.dbg.declare(metadata i1 (i32**, %"core::fmt::Formatter"*)** %f.dbg.spill, metadata !501, metadata !DIExpression()), !dbg !505
  %3 = bitcast i1 (i32**, %"core::fmt::Formatter"*)* %f to i1 (%"core::fmt::Opaque"*, %"core::fmt::Formatter"*)*, !dbg !506
  store i1 (%"core::fmt::Opaque"*, %"core::fmt::Formatter"*)* %3, i1 (%"core::fmt::Opaque"*, %"core::fmt::Formatter"*)** %1, align 8, !dbg !506
  %_3 = load i1 (%"core::fmt::Opaque"*, %"core::fmt::Formatter"*)*, i1 (%"core::fmt::Opaque"*, %"core::fmt::Formatter"*)** %1, align 8, !dbg !506, !nonnull !28
  %4 = bitcast i32** %x to %"core::fmt::Opaque"*, !dbg !507
  store %"core::fmt::Opaque"* %4, %"core::fmt::Opaque"** %0, align 8, !dbg !507
  %_5 = load %"core::fmt::Opaque"*, %"core::fmt::Opaque"** %0, align 8, !dbg !507, !nonnull !28
  %5 = bitcast { i8*, i64* }* %2 to %"core::fmt::Opaque"**, !dbg !508
  store %"core::fmt::Opaque"* %_5, %"core::fmt::Opaque"** %5, align 8, !dbg !508
  %6 = getelementptr inbounds { i8*, i64* }, { i8*, i64* }* %2, i32 0, i32 1, !dbg !508
  %7 = bitcast i64** %6 to i1 (%"core::fmt::Opaque"*, %"core::fmt::Formatter"*)**, !dbg !508
  store i1 (%"core::fmt::Opaque"*, %"core::fmt::Formatter"*)* %_3, i1 (%"core::fmt::Opaque"*, %"core::fmt::Formatter"*)** %7, align 8, !dbg !508
  %8 = getelementptr inbounds { i8*, i64* }, { i8*, i64* }* %2, i32 0, i32 0, !dbg !509
  %9 = load i8*, i8** %8, align 8, !dbg !509, !nonnull !28
  %10 = getelementptr inbounds { i8*, i64* }, { i8*, i64* }* %2, i32 0, i32 1, !dbg !509
  %11 = load i64*, i64** %10, align 8, !dbg !509, !nonnull !28
  %12 = insertvalue { i8*, i64* } undef, i8* %9, 0, !dbg !509
  %13 = insertvalue { i8*, i64* } %12, i64* %11, 1, !dbg !509
  ret { i8*, i64* } %13, !dbg !509
}

; Function Attrs: inlinehint nounwind nonlazybind
define internal zeroext i1 @"_ZN4core3fmt3num50_$LT$impl$u20$core..fmt..Debug$u20$for$u20$i32$GT$3fmt17h8b462461efc32fa4E"(i32* noalias readonly align 4 dereferenceable(4) %self, %"core::fmt::Formatter"* align 8 dereferenceable(64) %f) unnamed_addr #2 !dbg !510 {
start:
  %f.dbg.spill = alloca %"core::fmt::Formatter"*, align 8
  %self.dbg.spill = alloca i32*, align 8
  %0 = alloca i8, align 1
  store i32* %self, i32** %self.dbg.spill, align 8
  call void @llvm.dbg.declare(metadata i32** %self.dbg.spill, metadata !517, metadata !DIExpression()), !dbg !519
  store %"core::fmt::Formatter"* %f, %"core::fmt::Formatter"** %f.dbg.spill, align 8
  call void @llvm.dbg.declare(metadata %"core::fmt::Formatter"** %f.dbg.spill, metadata !518, metadata !DIExpression()), !dbg !520
  %_3 = call zeroext i1 @_ZN4core3fmt9Formatter15debug_lower_hex17hb9158b04f1f1b6d1E(%"core::fmt::Formatter"* noalias readonly align 8 dereferenceable(64) %f), !dbg !521
  br i1 %_3, label %bb2, label %bb3, !dbg !522

bb2:                                              ; preds = %start
  %1 = call zeroext i1 @"_ZN4core3fmt3num53_$LT$impl$u20$core..fmt..LowerHex$u20$for$u20$i32$GT$3fmt17hae0ef2c5a0a98ae0E"(i32* noalias readonly align 4 dereferenceable(4) %self, %"core::fmt::Formatter"* align 8 dereferenceable(64) %f), !dbg !523
  %2 = zext i1 %1 to i8, !dbg !523
  store i8 %2, i8* %0, align 1, !dbg !523
  br label %bb11, !dbg !522

bb3:                                              ; preds = %start
  %_7 = call zeroext i1 @_ZN4core3fmt9Formatter15debug_upper_hex17hdbac3cb457cbbe5cE(%"core::fmt::Formatter"* noalias readonly align 8 dereferenceable(64) %f), !dbg !524
  br i1 %_7, label %bb6, label %bb7, !dbg !525

bb6:                                              ; preds = %bb3
  %3 = call zeroext i1 @"_ZN4core3fmt3num53_$LT$impl$u20$core..fmt..UpperHex$u20$for$u20$i32$GT$3fmt17hd6bd52d94c3c8cbcE"(i32* noalias readonly align 4 dereferenceable(4) %self, %"core::fmt::Formatter"* align 8 dereferenceable(64) %f), !dbg !526
  %4 = zext i1 %3 to i8, !dbg !526
  store i8 %4, i8* %0, align 1, !dbg !526
  br label %bb11, !dbg !525

bb7:                                              ; preds = %bb3
  %5 = call zeroext i1 @"_ZN4core3fmt3num3imp52_$LT$impl$u20$core..fmt..Display$u20$for$u20$i32$GT$3fmt17h5d8dde62d565a4afE"(i32* noalias readonly align 4 dereferenceable(4) %self, %"core::fmt::Formatter"* align 8 dereferenceable(64) %f), !dbg !527
  %6 = zext i1 %5 to i8, !dbg !527
  store i8 %6, i8* %0, align 1, !dbg !527
  br label %bb11, !dbg !525

bb11:                                             ; preds = %bb7, %bb6, %bb2
  %7 = load i8, i8* %0, align 1, !dbg !528, !range !529
  %8 = trunc i8 %7 to i1, !dbg !528
  ret i1 %8, !dbg !528
}

; Function Attrs: inlinehint nofree norecurse nounwind nonlazybind writeonly
define internal void @_ZN4core3fmt9Arguments6new_v117hdff1995a1908b6f3E(%"core::fmt::Arguments"* noalias nocapture sret dereferenceable(48) %0, [0 x { [0 x i8]*, i64 }]* noalias nonnull readonly align 8 %pieces.0, i64 %pieces.1, [0 x { i8*, i64* }]* noalias nonnull readonly align 8 %args.0, i64 %args.1) unnamed_addr #5 !dbg !530 {
start:
  %args.dbg.spill = alloca { [0 x { i8*, i64* }]*, i64 }, align 8
  %pieces.dbg.spill = alloca { [0 x { [0 x i8]*, i64 }]*, i64 }, align 8
  %_4 = alloca { i64*, i64 }, align 8
  %1 = getelementptr inbounds { [0 x { [0 x i8]*, i64 }]*, i64 }, { [0 x { [0 x i8]*, i64 }]*, i64 }* %pieces.dbg.spill, i32 0, i32 0
  store [0 x { [0 x i8]*, i64 }]* %pieces.0, [0 x { [0 x i8]*, i64 }]** %1, align 8
  %2 = getelementptr inbounds { [0 x { [0 x i8]*, i64 }]*, i64 }, { [0 x { [0 x i8]*, i64 }]*, i64 }* %pieces.dbg.spill, i32 0, i32 1
  store i64 %pieces.1, i64* %2, align 8
  call void @llvm.dbg.declare(metadata { [0 x { [0 x i8]*, i64 }]*, i64 }* %pieces.dbg.spill, metadata !596, metadata !DIExpression()), !dbg !598
  %3 = getelementptr inbounds { [0 x { i8*, i64* }]*, i64 }, { [0 x { i8*, i64* }]*, i64 }* %args.dbg.spill, i32 0, i32 0
  store [0 x { i8*, i64* }]* %args.0, [0 x { i8*, i64* }]** %3, align 8
  %4 = getelementptr inbounds { [0 x { i8*, i64* }]*, i64 }, { [0 x { i8*, i64* }]*, i64 }* %args.dbg.spill, i32 0, i32 1
  store i64 %args.1, i64* %4, align 8
  call void @llvm.dbg.declare(metadata { [0 x { i8*, i64* }]*, i64 }* %args.dbg.spill, metadata !597, metadata !DIExpression()), !dbg !599
  %5 = bitcast { i64*, i64 }* %_4 to {}**, !dbg !600
  store {}* null, {}** %5, align 8, !dbg !600
  %6 = bitcast %"core::fmt::Arguments"* %0 to { [0 x { [0 x i8]*, i64 }]*, i64 }*, !dbg !601
  %7 = getelementptr inbounds { [0 x { [0 x i8]*, i64 }]*, i64 }, { [0 x { [0 x i8]*, i64 }]*, i64 }* %6, i32 0, i32 0, !dbg !601
  store [0 x { [0 x i8]*, i64 }]* %pieces.0, [0 x { [0 x i8]*, i64 }]** %7, align 8, !dbg !601
  %8 = getelementptr inbounds { [0 x { [0 x i8]*, i64 }]*, i64 }, { [0 x { [0 x i8]*, i64 }]*, i64 }* %6, i32 0, i32 1, !dbg !601
  store i64 %pieces.1, i64* %8, align 8, !dbg !601
  %9 = getelementptr inbounds %"core::fmt::Arguments", %"core::fmt::Arguments"* %0, i32 0, i32 3, !dbg !601
  %10 = getelementptr inbounds { i64*, i64 }, { i64*, i64 }* %_4, i32 0, i32 0, !dbg !601
  %11 = load i64*, i64** %10, align 8, !dbg !601
  %12 = getelementptr inbounds { i64*, i64 }, { i64*, i64 }* %_4, i32 0, i32 1, !dbg !601
  %13 = load i64, i64* %12, align 8, !dbg !601
  %14 = getelementptr inbounds { i64*, i64 }, { i64*, i64 }* %9, i32 0, i32 0, !dbg !601
  store i64* %11, i64** %14, align 8, !dbg !601
  %15 = getelementptr inbounds { i64*, i64 }, { i64*, i64 }* %9, i32 0, i32 1, !dbg !601
  store i64 %13, i64* %15, align 8, !dbg !601
  %16 = getelementptr inbounds %"core::fmt::Arguments", %"core::fmt::Arguments"* %0, i32 0, i32 5, !dbg !601
  %17 = getelementptr inbounds { [0 x { i8*, i64* }]*, i64 }, { [0 x { i8*, i64* }]*, i64 }* %16, i32 0, i32 0, !dbg !601
  store [0 x { i8*, i64* }]* %args.0, [0 x { i8*, i64* }]** %17, align 8, !dbg !601
  %18 = getelementptr inbounds { [0 x { i8*, i64* }]*, i64 }, { [0 x { i8*, i64* }]*, i64 }* %16, i32 0, i32 1, !dbg !601
  store i64 %args.1, i64* %18, align 8, !dbg !601
  ret void, !dbg !602
}

; Function Attrs: inlinehint nounwind nonlazybind
define internal void @_ZN4core3mem4swap17hd710584637d2a7b3E(i32* align 4 dereferenceable(4) %x, i32* align 4 dereferenceable(4) %y) unnamed_addr #2 !dbg !603 {
start:
  %y.dbg.spill = alloca i32*, align 8
  %x.dbg.spill = alloca i32*, align 8
  store i32* %x, i32** %x.dbg.spill, align 8
  call void @llvm.dbg.declare(metadata i32** %x.dbg.spill, metadata !610, metadata !DIExpression()), !dbg !612
  store i32* %y, i32** %y.dbg.spill, align 8
  call void @llvm.dbg.declare(metadata i32** %y.dbg.spill, metadata !611, metadata !DIExpression()), !dbg !613
  call void @_ZN4core3ptr23swap_nonoverlapping_one17ha80c7b9a104e6d09E(i32* %x, i32* %y), !dbg !614
  ret void, !dbg !615
}

; Function Attrs: inlinehint nounwind nonlazybind
define internal i32 @_ZN4core3mem7replace17hc71b24e003d16f64E(i32* align 4 dereferenceable(4) %dest, i32 %0) unnamed_addr #2 personality i32 (...)* @rust_eh_personality !dbg !616 {
start:
  %1 = alloca { i8*, i32 }, align 8
  %dest.dbg.spill = alloca i32*, align 8
  %src = alloca i32, align 4
  store i32 %0, i32* %src, align 4
  store i32* %dest, i32** %dest.dbg.spill, align 8
  call void @llvm.dbg.declare(metadata i32** %dest.dbg.spill, metadata !620, metadata !DIExpression()), !dbg !622
  call void @llvm.dbg.declare(metadata i32* %src, metadata !621, metadata !DIExpression()), !dbg !623
  call void @_ZN4core3mem4swap17hd710584637d2a7b3E(i32* align 4 dereferenceable(4) %dest, i32* align 4 dereferenceable(4) %src), !dbg !624
  %2 = load i32, i32* %src, align 4, !dbg !625
  ret i32 %2, !dbg !626
}

; Function Attrs: inlinehint norecurse nounwind nonlazybind readnone
define internal i32 @"_ZN4core3num21_$LT$impl$u20$i32$GT$13unchecked_add17h23235de5f96169ccE"(i32 %self, i32 %rhs) unnamed_addr #1 !dbg !627 {
start:
  %0 = alloca i32, align 4
  %rhs.dbg.spill = alloca i32, align 4
  %self.dbg.spill = alloca i32, align 4
  store i32 %self, i32* %self.dbg.spill, align 4
  call void @llvm.dbg.declare(metadata i32* %self.dbg.spill, metadata !634, metadata !DIExpression()), !dbg !636
  store i32 %rhs, i32* %rhs.dbg.spill, align 4
  call void @llvm.dbg.declare(metadata i32* %rhs.dbg.spill, metadata !635, metadata !DIExpression()), !dbg !637
  %1 = add nsw i32 %self, %rhs, !dbg !638
  store i32 %1, i32* %0, align 4, !dbg !638
  %2 = load i32, i32* %0, align 4, !dbg !638
  ret i32 %2, !dbg !639
}

; Function Attrs: inlinehint nounwind nonlazybind
define internal void @_ZN4core3ptr19swap_nonoverlapping17h186f0340486f95c7E(i32* %x, i32* %y, i64 %count) unnamed_addr #2 !dbg !640 {
start:
  %len.dbg.spill = alloca i64, align 8
  %y.dbg.spill4 = alloca i8*, align 8
  %x.dbg.spill2 = alloca i8*, align 8
  %count.dbg.spill = alloca i64, align 8
  %y.dbg.spill = alloca i32*, align 8
  %x.dbg.spill = alloca i32*, align 8
  store i32* %x, i32** %x.dbg.spill, align 8
  call void @llvm.dbg.declare(metadata i32** %x.dbg.spill, metadata !646, metadata !DIExpression()), !dbg !655
  store i32* %y, i32** %y.dbg.spill, align 8
  call void @llvm.dbg.declare(metadata i32** %y.dbg.spill, metadata !647, metadata !DIExpression()), !dbg !656
  store i64 %count, i64* %count.dbg.spill, align 8
  call void @llvm.dbg.declare(metadata i64* %count.dbg.spill, metadata !648, metadata !DIExpression()), !dbg !657
  %x1 = bitcast i32* %x to i8*, !dbg !658
  store i8* %x1, i8** %x.dbg.spill2, align 8, !dbg !658
  call void @llvm.dbg.declare(metadata i8** %x.dbg.spill2, metadata !649, metadata !DIExpression()), !dbg !659
  %y3 = bitcast i32* %y to i8*, !dbg !660
  store i8* %y3, i8** %y.dbg.spill4, align 8, !dbg !660
  call void @llvm.dbg.declare(metadata i8** %y.dbg.spill4, metadata !651, metadata !DIExpression()), !dbg !661
  %len = mul i64 4, %count, !dbg !662
  store i64 %len, i64* %len.dbg.spill, align 8, !dbg !662
  call void @llvm.dbg.declare(metadata i64* %len.dbg.spill, metadata !653, metadata !DIExpression()), !dbg !663
  call void @_ZN4core3ptr25swap_nonoverlapping_bytes17h21e2caeb9d9ef23dE(i8* %x1, i8* %y3, i64 %len), !dbg !664
  ret void, !dbg !665
}

; Function Attrs: inlinehint nounwind nonlazybind
define internal void @_ZN4core3ptr23swap_nonoverlapping_one17ha80c7b9a104e6d09E(i32* %x, i32* %y) unnamed_addr #2 personality i32 (...)* @rust_eh_personality !dbg !666 {
start:
  %0 = alloca { i8*, i32 }, align 8
  %z.dbg.spill = alloca i32, align 4
  %y.dbg.spill = alloca i32*, align 8
  %x.dbg.spill = alloca i32*, align 8
  %_18 = alloca i8, align 1
  %1 = alloca {}, align 1
  store i32* %x, i32** %x.dbg.spill, align 8
  call void @llvm.dbg.declare(metadata i32** %x.dbg.spill, metadata !670, metadata !DIExpression()), !dbg !674
  store i32* %y, i32** %y.dbg.spill, align 8
  call void @llvm.dbg.declare(metadata i32** %y.dbg.spill, metadata !671, metadata !DIExpression()), !dbg !675
  store i8 0, i8* %_18, align 1, !dbg !676
  %_3 = icmp ult i64 4, 32, !dbg !676
  br i1 %_3, label %bb2, label %bb3, !dbg !677

bb2:                                              ; preds = %start
  store i8 1, i8* %_18, align 1, !dbg !678
  %z = call i32 @_ZN4core3ptr4read17h8013c984b1627d70E(i32* %x), !dbg !678
  store i32 %z, i32* %z.dbg.spill, align 4, !dbg !678
  call void @llvm.dbg.declare(metadata i32* %z.dbg.spill, metadata !672, metadata !DIExpression()), !dbg !679
  call void @_ZN4core10intrinsics19copy_nonoverlapping17heb9c70f09399f967E(i32* %y, i32* %x, i64 1), !dbg !680
  store i8 0, i8* %_18, align 1, !dbg !681
  call void @_ZN4core3ptr5write17h01f63a03ad007a3fE(i32* %y, i32 %z), !dbg !682
  store i8 0, i8* %_18, align 1, !dbg !683
  br label %bb8, !dbg !677

bb3:                                              ; preds = %start
  call void @_ZN4core3ptr19swap_nonoverlapping17h186f0340486f95c7E(i32* %x, i32* %y, i64 1), !dbg !684
  br label %bb8, !dbg !677

bb8:                                              ; preds = %bb3, %bb2
  ret void, !dbg !685
}

; Function Attrs: inlinehint nounwind nonlazybind
define internal void @_ZN4core3ptr25swap_nonoverlapping_bytes17h21e2caeb9d9ef23dE(i8* %x, i8* %y, i64 %len) unnamed_addr #2 !dbg !686 {
start:
  %self.dbg.spill.i13 = alloca <4 x i64>*, align 8
  %self.dbg.spill.i = alloca %"core::mem::MaybeUninit<core::ptr::swap_nonoverlapping_bytes::UnalignedBlock>"*, align 8
  %y.dbg.spill12 = alloca i8*, align 8
  %x.dbg.spill10 = alloca i8*, align 8
  %t.dbg.spill8 = alloca i8*, align 8
  %rem.dbg.spill = alloca i64, align 8
  %y.dbg.spill6 = alloca i8*, align 8
  %x.dbg.spill4 = alloca i8*, align 8
  %t.dbg.spill = alloca i8*, align 8
  %block_size.dbg.spill = alloca i64, align 8
  %len.dbg.spill = alloca i64, align 8
  %y.dbg.spill = alloca i8*, align 8
  %x.dbg.spill = alloca i8*, align 8
  %t1 = alloca %"core::mem::MaybeUninit<core::ptr::swap_nonoverlapping_bytes::UnalignedBlock>", align 8
  %t = alloca <4 x i64>, align 32
  %i = alloca i64, align 8
  %0 = alloca {}, align 1
  store i8* %x, i8** %x.dbg.spill, align 8
  call void @llvm.dbg.declare(metadata i8** %x.dbg.spill, metadata !690, metadata !DIExpression()), !dbg !748
  store i8* %y, i8** %y.dbg.spill, align 8
  call void @llvm.dbg.declare(metadata i8** %y.dbg.spill, metadata !691, metadata !DIExpression()), !dbg !749
  store i64 %len, i64* %len.dbg.spill, align 8
  call void @llvm.dbg.declare(metadata i64* %len.dbg.spill, metadata !692, metadata !DIExpression()), !dbg !750
  call void @llvm.dbg.declare(metadata i64* %i, metadata !695, metadata !DIExpression()), !dbg !751
  call void @llvm.dbg.declare(metadata <4 x i64>* %t, metadata !697, metadata !DIExpression()), !dbg !752
  call void @llvm.dbg.declare(metadata %"core::mem::MaybeUninit<core::ptr::swap_nonoverlapping_bytes::UnalignedBlock>"* %t1, metadata !723, metadata !DIExpression()), !dbg !753
  store i64 32, i64* %block_size.dbg.spill, align 8, !dbg !754
  call void @llvm.dbg.declare(metadata i64* %block_size.dbg.spill, metadata !693, metadata !DIExpression()), !dbg !755
  store i64 0, i64* %i, align 8, !dbg !756
  br label %bb2, !dbg !757

bb2:                                              ; preds = %bb4, %start
  %_8 = load i64, i64* %i, align 8, !dbg !758
  %_7 = add i64 %_8, 32, !dbg !758
  %_6 = icmp ule i64 %_7, %len, !dbg !758
  br i1 %_6, label %bb4, label %bb3, !dbg !757

bb3:                                              ; preds = %bb2
  %_38 = load i64, i64* %i, align 8, !dbg !759
  %_37 = icmp ult i64 %_38, %len, !dbg !759
  br i1 %_37, label %bb12, label %bb21, !dbg !760

bb4:                                              ; preds = %bb2
  %1 = bitcast <4 x i64>* %t to {}*, !dbg !761
  store <4 x i64>* %t, <4 x i64>** %self.dbg.spill.i13, align 8
  call void @llvm.dbg.declare(metadata <4 x i64>** %self.dbg.spill.i13, metadata !767, metadata !DIExpression()), !dbg !774
  %t2 = bitcast <4 x i64>* %t to i8*, !dbg !776
  store i8* %t2, i8** %t.dbg.spill, align 8, !dbg !776
  call void @llvm.dbg.declare(metadata i8** %t.dbg.spill, metadata !717, metadata !DIExpression()), !dbg !777
  %_17 = load i64, i64* %i, align 8, !dbg !778
  %x3 = call i8* @"_ZN4core3ptr7mut_ptr31_$LT$impl$u20$$BP$mut$u20$T$GT$3add17h90e417d9863cb405E"(i8* %x, i64 %_17), !dbg !779
  store i8* %x3, i8** %x.dbg.spill4, align 8, !dbg !779
  call void @llvm.dbg.declare(metadata i8** %x.dbg.spill4, metadata !719, metadata !DIExpression()), !dbg !780
  %_20 = load i64, i64* %i, align 8, !dbg !781
  %y5 = call i8* @"_ZN4core3ptr7mut_ptr31_$LT$impl$u20$$BP$mut$u20$T$GT$3add17h90e417d9863cb405E"(i8* %y, i64 %_20), !dbg !782
  store i8* %y5, i8** %y.dbg.spill6, align 8, !dbg !782
  call void @llvm.dbg.declare(metadata i8** %y.dbg.spill6, metadata !721, metadata !DIExpression()), !dbg !783
  call void @_ZN4core10intrinsics19copy_nonoverlapping17h7df68daedec6b3d5E(i8* %x3, i8* %t2, i64 32), !dbg !784
  call void @_ZN4core10intrinsics19copy_nonoverlapping17h7df68daedec6b3d5E(i8* %y5, i8* %x3, i64 32), !dbg !785
  call void @_ZN4core10intrinsics19copy_nonoverlapping17h7df68daedec6b3d5E(i8* %t2, i8* %y5, i64 32), !dbg !786
  %2 = load i64, i64* %i, align 8, !dbg !787
  %3 = add i64 %2, 32, !dbg !787
  store i64 %3, i64* %i, align 8, !dbg !787
  br label %bb2, !dbg !757

bb12:                                             ; preds = %bb3
  %4 = bitcast %"core::mem::MaybeUninit<core::ptr::swap_nonoverlapping_bytes::UnalignedBlock>"* %t1 to {}*, !dbg !788
  %_43 = load i64, i64* %i, align 8, !dbg !793
  %rem = sub i64 %len, %_43, !dbg !794
  store i64 %rem, i64* %rem.dbg.spill, align 8, !dbg !794
  call void @llvm.dbg.declare(metadata i64* %rem.dbg.spill, metadata !740, metadata !DIExpression()), !dbg !795
  store %"core::mem::MaybeUninit<core::ptr::swap_nonoverlapping_bytes::UnalignedBlock>"* %t1, %"core::mem::MaybeUninit<core::ptr::swap_nonoverlapping_bytes::UnalignedBlock>"** %self.dbg.spill.i, align 8
  call void @llvm.dbg.declare(metadata %"core::mem::MaybeUninit<core::ptr::swap_nonoverlapping_bytes::UnalignedBlock>"** %self.dbg.spill.i, metadata !796, metadata !DIExpression()), !dbg !803
  %5 = bitcast %"core::mem::MaybeUninit<core::ptr::swap_nonoverlapping_bytes::UnalignedBlock>"* %t1 to %"core::ptr::swap_nonoverlapping_bytes::UnalignedBlock"*, !dbg !805
  %t7 = bitcast %"core::ptr::swap_nonoverlapping_bytes::UnalignedBlock"* %5 to i8*, !dbg !806
  store i8* %t7, i8** %t.dbg.spill8, align 8, !dbg !806
  call void @llvm.dbg.declare(metadata i8** %t.dbg.spill8, metadata !742, metadata !DIExpression()), !dbg !807
  %_49 = load i64, i64* %i, align 8, !dbg !808
  %x9 = call i8* @"_ZN4core3ptr7mut_ptr31_$LT$impl$u20$$BP$mut$u20$T$GT$3add17h90e417d9863cb405E"(i8* %x, i64 %_49), !dbg !809
  store i8* %x9, i8** %x.dbg.spill10, align 8, !dbg !809
  call void @llvm.dbg.declare(metadata i8** %x.dbg.spill10, metadata !744, metadata !DIExpression()), !dbg !810
  %_52 = load i64, i64* %i, align 8, !dbg !811
  %y11 = call i8* @"_ZN4core3ptr7mut_ptr31_$LT$impl$u20$$BP$mut$u20$T$GT$3add17h90e417d9863cb405E"(i8* %y, i64 %_52), !dbg !812
  store i8* %y11, i8** %y.dbg.spill12, align 8, !dbg !812
  call void @llvm.dbg.declare(metadata i8** %y.dbg.spill12, metadata !746, metadata !DIExpression()), !dbg !813
  call void @_ZN4core10intrinsics19copy_nonoverlapping17h7df68daedec6b3d5E(i8* %x9, i8* %t7, i64 %rem), !dbg !814
  call void @_ZN4core10intrinsics19copy_nonoverlapping17h7df68daedec6b3d5E(i8* %y11, i8* %x9, i64 %rem), !dbg !815
  call void @_ZN4core10intrinsics19copy_nonoverlapping17h7df68daedec6b3d5E(i8* %t7, i8* %y11, i64 %rem), !dbg !816
  br label %bb21, !dbg !760

bb21:                                             ; preds = %bb12, %bb3
  ret void, !dbg !817
}

; Function Attrs: inlinehint nounwind nonlazybind
define internal i32 @_ZN4core3ptr4read17h8013c984b1627d70E(i32* %src) unnamed_addr #2 !dbg !818 {
start:
  %self.dbg.spill.i1 = alloca i32*, align 8
  %slot.dbg.spill.i.i = alloca i32, align 4
  %self.dbg.spill.i = alloca i32, align 4
  %0 = alloca i32, align 4
  %src.dbg.spill = alloca i32*, align 8
  %tmp = alloca i32, align 4
  store i32* %src, i32** %src.dbg.spill, align 8
  call void @llvm.dbg.declare(metadata i32** %src.dbg.spill, metadata !822, metadata !DIExpression()), !dbg !832
  call void @llvm.dbg.declare(metadata i32* %tmp, metadata !823, metadata !DIExpression()), !dbg !833
  %1 = bitcast i32* %0 to {}*, !dbg !834
  %2 = load i32, i32* %0, align 4, !dbg !839
  store i32 %2, i32* %tmp, align 4, !dbg !840
  store i32* %tmp, i32** %self.dbg.spill.i1, align 8
  call void @llvm.dbg.declare(metadata i32** %self.dbg.spill.i1, metadata !841, metadata !DIExpression()), !dbg !847
  call void @_ZN4core10intrinsics19copy_nonoverlapping17heb9c70f09399f967E(i32* %src, i32* %tmp, i64 1), !dbg !849
  %_7 = load i32, i32* %tmp, align 4, !dbg !850
  store i32 %_7, i32* %self.dbg.spill.i, align 4
  call void @llvm.dbg.declare(metadata i32* %self.dbg.spill.i, metadata !851, metadata !DIExpression()), !dbg !856
  store i32 %_7, i32* %slot.dbg.spill.i.i, align 4
  call void @llvm.dbg.declare(metadata i32* %slot.dbg.spill.i.i, metadata !858, metadata !DIExpression()), !dbg !864
  ret i32 %_7, !dbg !866
}

; Function Attrs: inlinehint nounwind nonlazybind
define internal void @_ZN4core3ptr5write17h01f63a03ad007a3fE(i32* %dst, i32 %0) unnamed_addr #2 personality i32 (...)* @rust_eh_personality !dbg !867 {
start:
  %1 = alloca { i8*, i32 }, align 8
  %dst.dbg.spill = alloca i32*, align 8
  %_7 = alloca i8, align 1
  %src = alloca i32, align 4
  store i32 %0, i32* %src, align 4
  store i32* %dst, i32** %dst.dbg.spill, align 8
  call void @llvm.dbg.declare(metadata i32** %dst.dbg.spill, metadata !871, metadata !DIExpression()), !dbg !873
  call void @llvm.dbg.declare(metadata i32* %src, metadata !872, metadata !DIExpression()), !dbg !874
  store i8 0, i8* %_7, align 1, !dbg !875
  store i8 1, i8* %_7, align 1, !dbg !875
  %2 = bitcast i32* %dst to i8*, !dbg !875
  %3 = bitcast i32* %src to i8*, !dbg !875
  %4 = call i8* @memcpy(i8* %2, i8* %3, i64 4), !dbg !875
  store i8 0, i8* %_7, align 1, !dbg !876
  ret void, !dbg !877
}

; Function Attrs: inlinehint nounwind nonlazybind
define internal { i32, i32 } @"_ZN4core4iter5range101_$LT$impl$u20$core..iter..traits..iterator..Iterator$u20$for$u20$core..ops..range..Range$LT$A$GT$$GT$4next17hdfaa673656eaaa87E"({ i32, i32 }* align 4 dereferenceable(8) %self) unnamed_addr #2 !dbg !878 {
start:
  %n.dbg.spill = alloca i32, align 4
  %self.dbg.spill = alloca { i32, i32 }*, align 8
  %0 = alloca { i32, i32 }, align 4
  store { i32, i32 }* %self, { i32, i32 }** %self.dbg.spill, align 8
  call void @llvm.dbg.declare(metadata { i32, i32 }** %self.dbg.spill, metadata !902, metadata !DIExpression()), !dbg !907
  %_3 = bitcast { i32, i32 }* %self to i32*, !dbg !908
  %_4 = getelementptr inbounds { i32, i32 }, { i32, i32 }* %self, i32 0, i32 1, !dbg !909
  %_2 = call zeroext i1 @"_ZN4core3cmp5impls55_$LT$impl$u20$core..cmp..PartialOrd$u20$for$u20$i32$GT$2lt17hde252bf4809fdad5E"(i32* noalias readonly align 4 dereferenceable(4) %_3, i32* noalias readonly align 4 dereferenceable(4) %_4), !dbg !908
  br i1 %_2, label %bb2, label %bb3, !dbg !910

bb2:                                              ; preds = %start
  %_7 = bitcast { i32, i32 }* %self to i32*, !dbg !911
  %_6 = call i32 @"_ZN4core5clone5impls52_$LT$impl$u20$core..clone..Clone$u20$for$u20$i32$GT$5clone17hf78f200d3cc614ccE"(i32* noalias readonly align 4 dereferenceable(4) %_7), !dbg !911
  %n = call i32 @"_ZN47_$LT$i32$u20$as$u20$core..iter..range..Step$GT$17forward_unchecked17h13295d967d0675deE"(i32 %_6, i64 1), !dbg !912
  store i32 %n, i32* %n.dbg.spill, align 4, !dbg !912
  call void @llvm.dbg.declare(metadata i32* %n.dbg.spill, metadata !903, metadata !DIExpression()), !dbg !913
  %_10 = bitcast { i32, i32 }* %self to i32*, !dbg !914
  %_8 = call i32 @_ZN4core3mem7replace17hc71b24e003d16f64E(i32* align 4 dereferenceable(4) %_10, i32 %n), !dbg !915
  %1 = bitcast { i32, i32 }* %0 to %"core::option::Option<i32>::Some"*, !dbg !916
  %2 = getelementptr inbounds %"core::option::Option<i32>::Some", %"core::option::Option<i32>::Some"* %1, i32 0, i32 1, !dbg !916
  store i32 %_8, i32* %2, align 4, !dbg !916
  %3 = bitcast { i32, i32 }* %0 to i32*, !dbg !916
  store i32 1, i32* %3, align 4, !dbg !916
  br label %bb7, !dbg !910

bb3:                                              ; preds = %start
  %4 = bitcast { i32, i32 }* %0 to i32*, !dbg !917
  store i32 0, i32* %4, align 4, !dbg !917
  br label %bb7, !dbg !910

bb7:                                              ; preds = %bb3, %bb2
  %5 = getelementptr inbounds { i32, i32 }, { i32, i32 }* %0, i32 0, i32 0, !dbg !918
  %6 = load i32, i32* %5, align 4, !dbg !918, !range !919
  %7 = getelementptr inbounds { i32, i32 }, { i32, i32 }* %0, i32 0, i32 1, !dbg !918
  %8 = load i32, i32* %7, align 4, !dbg !918
  %9 = insertvalue { i32, i32 } undef, i32 %6, 0, !dbg !918
  %10 = insertvalue { i32, i32 } %9, i32 %8, 1, !dbg !918
  ret { i32, i32 } %10, !dbg !918
}

; Function Attrs: inlinehint norecurse nounwind nonlazybind readonly
define internal i32 @"_ZN4core5clone5impls52_$LT$impl$u20$core..clone..Clone$u20$for$u20$i32$GT$5clone17hf78f200d3cc614ccE"(i32* noalias readonly align 4 dereferenceable(4) %self) unnamed_addr #3 !dbg !920 {
start:
  %self.dbg.spill = alloca i32*, align 8
  store i32* %self, i32** %self.dbg.spill, align 8
  call void @llvm.dbg.declare(metadata i32** %self.dbg.spill, metadata !928, metadata !DIExpression()), !dbg !929
  %0 = load i32, i32* %self, align 4, !dbg !930
  ret i32 %0, !dbg !931
}

; Function Attrs: norecurse nounwind nonlazybind readnone
define internal { i32, i32 } @"_ZN63_$LT$I$u20$as$u20$core..iter..traits..collect..IntoIterator$GT$9into_iter17hb0b1d6bdda2fa8b0E"(i32 %self.0, i32 %self.1) unnamed_addr #4 !dbg !932 {
start:
  %self.dbg.spill = alloca { i32, i32 }, align 4
  %0 = getelementptr inbounds { i32, i32 }, { i32, i32 }* %self.dbg.spill, i32 0, i32 0
  store i32 %self.0, i32* %0, align 4
  %1 = getelementptr inbounds { i32, i32 }, { i32, i32 }* %self.dbg.spill, i32 0, i32 1
  store i32 %self.1, i32* %1, align 4
  call void @llvm.dbg.declare(metadata { i32, i32 }* %self.dbg.spill, metadata !940, metadata !DIExpression()), !dbg !943
  %2 = insertvalue { i32, i32 } undef, i32 %self.0, 0, !dbg !944
  %3 = insertvalue { i32, i32 } %2, i32 %self.1, 1, !dbg !944
  ret { i32, i32 } %3, !dbg !944
}

; Function Attrs: inlinehint norecurse nounwind nonlazybind readnone
define internal { %"klee_sys::CStr"*, i64 } @_ZN9cstr_core4CStr29from_bytes_with_nul_unchecked17hc5c7ee9b72f6f886E([0 x i8]* noalias nonnull readonly align 1 %bytes.0, i64 %bytes.1) unnamed_addr #1 !dbg !945 {
start:
  %bytes.dbg.spill = alloca { [0 x i8]*, i64 }, align 8
  %0 = getelementptr inbounds { [0 x i8]*, i64 }, { [0 x i8]*, i64 }* %bytes.dbg.spill, i32 0, i32 0
  store [0 x i8]* %bytes.0, [0 x i8]** %0, align 8
  %1 = getelementptr inbounds { [0 x i8]*, i64 }, { [0 x i8]*, i64 }* %bytes.dbg.spill, i32 0, i32 1
  store i64 %bytes.1, i64* %1, align 8
  call void @llvm.dbg.declare(metadata { [0 x i8]*, i64 }* %bytes.dbg.spill, metadata !961, metadata !DIExpression()), !dbg !962
  %_2.0 = bitcast [0 x i8]* %bytes.0 to %"klee_sys::CStr"*, !dbg !963
  %2 = insertvalue { %"klee_sys::CStr"*, i64 } undef, %"klee_sys::CStr"* %_2.0, 0, !dbg !964
  %3 = insertvalue { %"klee_sys::CStr"*, i64 } %2, i64 %bytes.1, 1, !dbg !964
  ret { %"klee_sys::CStr"*, i64 } %3, !dbg !964
}

; Function Attrs: inlinehint norecurse nounwind nonlazybind readnone
define internal nonnull i8* @_ZN9cstr_core4CStr6as_ptr17hbd2976e9ba5ef15eE(%"klee_sys::CStr"* noalias nonnull readonly align 1 %self.0, i64 %self.1) unnamed_addr #1 !dbg !965 {
start:
  %self.dbg.spill = alloca { %"klee_sys::CStr"*, i64 }, align 8
  %0 = getelementptr inbounds { %"klee_sys::CStr"*, i64 }, { %"klee_sys::CStr"*, i64 }* %self.dbg.spill, i32 0, i32 0
  store %"klee_sys::CStr"* %self.0, %"klee_sys::CStr"** %0, align 8
  %1 = getelementptr inbounds { %"klee_sys::CStr"*, i64 }, { %"klee_sys::CStr"*, i64 }* %self.dbg.spill, i32 0, i32 1
  store i64 %self.1, i64* %1, align 8
  call void @llvm.dbg.declare(metadata { %"klee_sys::CStr"*, i64 }* %self.dbg.spill, metadata !970, metadata !DIExpression()), !dbg !971
  %_2.0 = bitcast %"klee_sys::CStr"* %self.0 to [0 x i8]*, !dbg !972
  %2 = call i8* @"_ZN4core5slice29_$LT$impl$u20$$u5b$T$u5d$$GT$6as_ptr17hc11cd399229b063eE"([0 x i8]* noalias nonnull readonly align 1 %_2.0, i64 %self.1), !dbg !972
  ret i8* %2, !dbg !973
}

; Function Attrs: nounwind nonlazybind
define internal i32 @_ZN4fact8fact_rec17ha139d49a18ae97a3E(i32 %n) unnamed_addr #0 !dbg !974 {
start:
  %n.dbg.spill = alloca i32, align 4
  %_2 = alloca i8, align 1
  %0 = alloca i32, align 4
  store i32 %n, i32* %n.dbg.spill, align 4
  call void @llvm.dbg.declare(metadata i32* %n.dbg.spill, metadata !980, metadata !DIExpression()), !dbg !981
  %switch = icmp ult i32 %n, 2, !dbg !982
  br i1 %switch, label %bb1, label %bb2, !dbg !982

bb1:                                              ; preds = %start
  store i8 1, i8* %_2, align 1, !dbg !982
  br label %bb4, !dbg !982

bb2:                                              ; preds = %start
  store i8 0, i8* %_2, align 1, !dbg !982
  br label %bb4, !dbg !982

bb4:                                              ; preds = %bb2, %bb1
  %1 = load i8, i8* %_2, align 1, !dbg !983, !range !529
  %2 = trunc i8 %1 to i1, !dbg !983
  br i1 %2, label %bb5, label %bb6, !dbg !983

bb5:                                              ; preds = %bb4
  store i32 1, i32* %0, align 4, !dbg !984
  br label %bb10, !dbg !985

bb6:                                              ; preds = %bb4
  %3 = sext i32 %n to i64, !dbg !986
  %4 = sub i64 %3, 1, !dbg !986
  %5 = icmp slt i64 %4, -2147483648, !dbg !986
  %6 = icmp sgt i64 %4, 2147483647, !dbg !986
  %7 = or i1 %6, %5, !dbg !986
  %8 = trunc i64 %4 to i32, !dbg !986
  %9 = insertvalue { i32, i1 } undef, i32 %8, 0, !dbg !986
  %10 = insertvalue { i32, i1 } %9, i1 %7, 1, !dbg !986
  %_9.0 = extractvalue { i32, i1 } %10, 0, !dbg !986
  %_9.1 = extractvalue { i32, i1 } %10, 1, !dbg !986
  br i1 %_9.1, label %panic, label %bb7, !dbg !986

bb7:                                              ; preds = %bb6
  %_6 = call i32 @_ZN4fact8fact_rec17ha139d49a18ae97a3E(i32 %_9.0), !dbg !987
  %11 = sext i32 %n to i64, !dbg !988
  %12 = sext i32 %_6 to i64, !dbg !988
  %13 = mul i64 %11, %12, !dbg !988
  %14 = icmp slt i64 %13, -2147483648, !dbg !988
  %15 = icmp sgt i64 %13, 2147483647, !dbg !988
  %16 = or i1 %15, %14, !dbg !988
  %17 = trunc i64 %13 to i32, !dbg !988
  %18 = insertvalue { i32, i1 } undef, i32 %17, 0, !dbg !988
  %19 = insertvalue { i32, i1 } %18, i1 %16, 1, !dbg !988
  %_10.0 = extractvalue { i32, i1 } %19, 0, !dbg !988
  %_10.1 = extractvalue { i32, i1 } %19, 1, !dbg !988
  br i1 %_10.1, label %panic1, label %bb9, !dbg !988

bb9:                                              ; preds = %bb7
  store i32 %_10.0, i32* %0, align 4, !dbg !988
  br label %bb10, !dbg !985

bb10:                                             ; preds = %bb9, %bb5
  %20 = load i32, i32* %0, align 4, !dbg !985
  ret i32 %20, !dbg !985

panic:                                            ; preds = %bb6
  call void @_ZN4core9panicking5panic17h07405d6be4bce887E([0 x i8]* noalias nonnull readonly align 1 bitcast ([33 x i8]* @str.0 to [0 x i8]*), i64 33, %"core::panic::Location"* noalias readonly align 8 dereferenceable(24) bitcast (<{ i8*, [16 x i8] }>* @alloc17 to %"core::panic::Location"*)), !dbg !986
  unreachable, !dbg !986

panic1:                                           ; preds = %bb7
  call void @_ZN4core9panicking5panic17h07405d6be4bce887E([0 x i8]* noalias nonnull readonly align 1 bitcast ([33 x i8]* @str.1 to [0 x i8]*), i64 33, %"core::panic::Location"* noalias readonly align 8 dereferenceable(24) bitcast (<{ i8*, [16 x i8] }>* @alloc19 to %"core::panic::Location"*)), !dbg !988
  unreachable, !dbg !988
}

; Function Attrs: nounwind nonlazybind
define internal i32 @_ZN4fact9fact_iter17h9eb64fbc52d6cbf0E(i32 %n) unnamed_addr #0 !dbg !989 {
start:
  %x.dbg.spill = alloca i32, align 4
  %__next.dbg.spill = alloca i32, align 4
  %val.dbg.spill = alloca i32, align 4
  %n.dbg.spill = alloca i32, align 4
  %_11 = alloca { i32, i32 }, align 4
  %iter = alloca { i32, i32 }, align 4
  %_7 = alloca { i32, i32 }, align 4
  %_3 = alloca i8, align 1
  %prod = alloca i32, align 4
  %0 = alloca i32, align 4
  store i32 %n, i32* %n.dbg.spill, align 4
  call void @llvm.dbg.declare(metadata i32* %n.dbg.spill, metadata !991, metadata !DIExpression()), !dbg !1002
  call void @llvm.dbg.declare(metadata i32* %prod, metadata !992, metadata !DIExpression()), !dbg !1003
  call void @llvm.dbg.declare(metadata { i32, i32 }* %iter, metadata !994, metadata !DIExpression()), !dbg !1004
  store i32 1, i32* %prod, align 4, !dbg !1005
  %switch = icmp ult i32 %n, 2, !dbg !1006
  br i1 %switch, label %bb1, label %bb2, !dbg !1006

bb1:                                              ; preds = %start
  store i8 1, i8* %_3, align 1, !dbg !1006
  br label %bb4, !dbg !1006

bb2:                                              ; preds = %start
  store i8 0, i8* %_3, align 1, !dbg !1006
  br label %bb4, !dbg !1006

bb4:                                              ; preds = %bb2, %bb1
  %1 = load i8, i8* %_3, align 1, !dbg !1007, !range !529
  %2 = trunc i8 %1 to i1, !dbg !1007
  br i1 %2, label %bb5, label %bb6, !dbg !1007

bb5:                                              ; preds = %bb4
  %3 = load i32, i32* %prod, align 4, !dbg !1008
  store i32 %3, i32* %0, align 4, !dbg !1008
  br label %bb14, !dbg !1009

bb6:                                              ; preds = %bb4
  %4 = bitcast { i32, i32 }* %_7 to i32*, !dbg !1010
  store i32 2, i32* %4, align 4, !dbg !1010
  %5 = getelementptr inbounds { i32, i32 }, { i32, i32 }* %_7, i32 0, i32 1, !dbg !1010
  store i32 %n, i32* %5, align 4, !dbg !1010
  %6 = getelementptr inbounds { i32, i32 }, { i32, i32 }* %_7, i32 0, i32 0, !dbg !1010
  %7 = load i32, i32* %6, align 4, !dbg !1010
  %8 = getelementptr inbounds { i32, i32 }, { i32, i32 }* %_7, i32 0, i32 1, !dbg !1010
  %9 = load i32, i32* %8, align 4, !dbg !1010
  %10 = call { i32, i32 } @"_ZN63_$LT$I$u20$as$u20$core..iter..traits..collect..IntoIterator$GT$9into_iter17hb0b1d6bdda2fa8b0E"(i32 %7, i32 %9), !dbg !1010
  %_6.0 = extractvalue { i32, i32 } %10, 0, !dbg !1010
  %_6.1 = extractvalue { i32, i32 } %10, 1, !dbg !1010
  %11 = getelementptr inbounds { i32, i32 }, { i32, i32 }* %iter, i32 0, i32 0, !dbg !1010
  store i32 %_6.0, i32* %11, align 4, !dbg !1010
  %12 = getelementptr inbounds { i32, i32 }, { i32, i32 }* %iter, i32 0, i32 1, !dbg !1010
  store i32 %_6.1, i32* %12, align 4, !dbg !1010
  br label %bb8, !dbg !1011

bb8:                                              ; preds = %bb13, %bb6
  %13 = call { i32, i32 } @"_ZN4core4iter5range101_$LT$impl$u20$core..iter..traits..iterator..Iterator$u20$for$u20$core..ops..range..Range$LT$A$GT$$GT$4next17hdfaa673656eaaa87E"({ i32, i32 }* align 4 dereferenceable(8) %iter), !dbg !1012
  store { i32, i32 } %13, { i32, i32 }* %_11, align 4, !dbg !1012
  %14 = bitcast { i32, i32 }* %_11 to i32*, !dbg !1013
  %15 = load i32, i32* %14, align 4, !dbg !1013, !range !919
  %_14 = zext i32 %15 to i64, !dbg !1013
  %switch1 = icmp ult i64 %_14, 1, !dbg !1013
  br i1 %switch1, label %bb10, label %bb12, !dbg !1013

bb10:                                             ; preds = %bb8
  %16 = load i32, i32* %prod, align 4, !dbg !1014
  store i32 %16, i32* %0, align 4, !dbg !1014
  br label %bb14, !dbg !1015

bb12:                                             ; preds = %bb8
  %17 = bitcast { i32, i32 }* %_11 to %"core::option::Option<i32>::Some"*, !dbg !1013
  %18 = getelementptr inbounds %"core::option::Option<i32>::Some", %"core::option::Option<i32>::Some"* %17, i32 0, i32 1, !dbg !1013
  %val = load i32, i32* %18, align 4, !dbg !1013
  store i32 %val, i32* %val.dbg.spill, align 4, !dbg !1013
  call void @llvm.dbg.declare(metadata i32* %val.dbg.spill, metadata !998, metadata !DIExpression()), !dbg !1016
  store i32 %val, i32* %__next.dbg.spill, align 4, !dbg !1016
  call void @llvm.dbg.declare(metadata i32* %__next.dbg.spill, metadata !996, metadata !DIExpression()), !dbg !1012
  store i32 %val, i32* %x.dbg.spill, align 4, !dbg !1012
  call void @llvm.dbg.declare(metadata i32* %x.dbg.spill, metadata !1000, metadata !DIExpression()), !dbg !1017
  %19 = load i32, i32* %prod, align 4, !dbg !1018
  %20 = sext i32 %19 to i64, !dbg !1018
  %21 = sext i32 %val to i64, !dbg !1018
  %22 = mul i64 %20, %21, !dbg !1018
  %23 = icmp slt i64 %22, -2147483648, !dbg !1018
  %24 = icmp sgt i64 %22, 2147483647, !dbg !1018
  %25 = or i1 %24, %23, !dbg !1018
  %26 = trunc i64 %22 to i32, !dbg !1018
  %27 = insertvalue { i32, i1 } undef, i32 %26, 0, !dbg !1018
  %28 = insertvalue { i32, i1 } %27, i1 %25, 1, !dbg !1018
  %_19.0 = extractvalue { i32, i1 } %28, 0, !dbg !1018
  %_19.1 = extractvalue { i32, i1 } %28, 1, !dbg !1018
  br i1 %_19.1, label %panic, label %bb13, !dbg !1018

bb13:                                             ; preds = %bb12
  store i32 %_19.0, i32* %prod, align 4, !dbg !1018
  br label %bb8, !dbg !1011

bb14:                                             ; preds = %bb10, %bb5
  %29 = load i32, i32* %0, align 4, !dbg !1019
  ret i32 %29, !dbg !1019

panic:                                            ; preds = %bb12
  call void @_ZN4core9panicking5panic17h07405d6be4bce887E([0 x i8]* noalias nonnull readonly align 1 bitcast ([33 x i8]* @str.1 to [0 x i8]*), i64 33, %"core::panic::Location"* noalias readonly align 8 dereferenceable(24) bitcast (<{ i8*, [16 x i8] }>* @alloc21 to %"core::panic::Location"*)), !dbg !1018
  unreachable, !dbg !1018
}

; Function Attrs: nounwind nonlazybind
define internal void @_ZN4fact9fact_test17h3b0d301d1e2f7b1fE(i32 %n) unnamed_addr #0 !dbg !1020 {
start:
  %arg1.dbg.spill = alloca i32**, align 8
  %arg0.dbg.spill = alloca i32**, align 8
  %right_val.dbg.spill = alloca i32*, align 8
  %left_val.dbg.spill = alloca i32*, align 8
  %n.dbg.spill = alloca i32, align 4
  %_27 = alloca i32*, align 8
  %_25 = alloca i32*, align 8
  %_23 = alloca { i64*, i64* }, align 8
  %_22 = alloca [2 x { i8*, i64* }], align 8
  %_15 = alloca %"core::fmt::Arguments", align 8
  %_7 = alloca i32, align 4
  %_4 = alloca i32, align 4
  %_2 = alloca { i32*, i32* }, align 8
  store i32 %n, i32* %n.dbg.spill, align 4
  call void @llvm.dbg.declare(metadata i32* %n.dbg.spill, metadata !1024, metadata !DIExpression()), !dbg !1035
  %0 = call i32 @_ZN4fact8fact_rec17ha139d49a18ae97a3E(i32 %n), !dbg !1036
  store i32 %0, i32* %_4, align 4, !dbg !1036
  %1 = call i32 @_ZN4fact9fact_iter17h9eb64fbc52d6cbf0E(i32 %n), !dbg !1037
  store i32 %1, i32* %_7, align 4, !dbg !1037
  %2 = bitcast { i32*, i32* }* %_2 to i32**, !dbg !1038
  store i32* %_4, i32** %2, align 8, !dbg !1038
  %3 = getelementptr inbounds { i32*, i32* }, { i32*, i32* }* %_2, i32 0, i32 1, !dbg !1038
  store i32* %_7, i32** %3, align 8, !dbg !1038
  %4 = bitcast { i32*, i32* }* %_2 to i32**, !dbg !1038
  %left_val = load i32*, i32** %4, align 8, !dbg !1038, !nonnull !28
  store i32* %left_val, i32** %left_val.dbg.spill, align 8, !dbg !1038
  call void @llvm.dbg.declare(metadata i32** %left_val.dbg.spill, metadata !1025, metadata !DIExpression()), !dbg !1039
  %5 = getelementptr inbounds { i32*, i32* }, { i32*, i32* }* %_2, i32 0, i32 1, !dbg !1038
  %right_val = load i32*, i32** %5, align 8, !dbg !1038, !nonnull !28
  store i32* %right_val, i32** %right_val.dbg.spill, align 8, !dbg !1038
  call void @llvm.dbg.declare(metadata i32** %right_val.dbg.spill, metadata !1029, metadata !DIExpression()), !dbg !1039
  %_13 = load i32, i32* %left_val, align 4, !dbg !1039
  %_14 = load i32, i32* %right_val, align 4, !dbg !1039
  %_12 = icmp eq i32 %_13, %_14, !dbg !1039
  %_11 = xor i1 %_12, true, !dbg !1039
  br i1 %_11, label %bb3, label %bb4, !dbg !1039

bb3:                                              ; preds = %start
  store i32* %left_val, i32** %_25, align 8, !dbg !1039
  store i32* %right_val, i32** %_27, align 8, !dbg !1039
  %6 = bitcast { i64*, i64* }* %_23 to i32***, !dbg !1039
  store i32** %_25, i32*** %6, align 8, !dbg !1039
  %7 = getelementptr inbounds { i64*, i64* }, { i64*, i64* }* %_23, i32 0, i32 1, !dbg !1039
  %8 = bitcast i64** %7 to i32***, !dbg !1039
  store i32** %_27, i32*** %8, align 8, !dbg !1039
  %9 = bitcast { i64*, i64* }* %_23 to i32***, !dbg !1039
  %arg0 = load i32**, i32*** %9, align 8, !dbg !1039, !nonnull !28
  store i32** %arg0, i32*** %arg0.dbg.spill, align 8, !dbg !1039
  call void @llvm.dbg.declare(metadata i32*** %arg0.dbg.spill, metadata !1030, metadata !DIExpression()), !dbg !1040
  %10 = getelementptr inbounds { i64*, i64* }, { i64*, i64* }* %_23, i32 0, i32 1, !dbg !1039
  %11 = bitcast i64** %10 to i32***, !dbg !1039
  %arg1 = load i32**, i32*** %11, align 8, !dbg !1039, !nonnull !28
  store i32** %arg1, i32*** %arg1.dbg.spill, align 8, !dbg !1039
  call void @llvm.dbg.declare(metadata i32*** %arg1.dbg.spill, metadata !1034, metadata !DIExpression()), !dbg !1040
  %12 = call { i8*, i64* } @_ZN4core3fmt10ArgumentV13new17h520fd58315662778E(i32** noalias readonly align 8 dereferenceable(8) %arg0, i1 (i32**, %"core::fmt::Formatter"*)* nonnull @"_ZN42_$LT$$RF$T$u20$as$u20$core..fmt..Debug$GT$3fmt17hd65a54898de4153eE"), !dbg !1040
  %_30.0 = extractvalue { i8*, i64* } %12, 0, !dbg !1040
  %_30.1 = extractvalue { i8*, i64* } %12, 1, !dbg !1040
  %13 = call { i8*, i64* } @_ZN4core3fmt10ArgumentV13new17h520fd58315662778E(i32** noalias readonly align 8 dereferenceable(8) %arg1, i1 (i32**, %"core::fmt::Formatter"*)* nonnull @"_ZN42_$LT$$RF$T$u20$as$u20$core..fmt..Debug$GT$3fmt17hd65a54898de4153eE"), !dbg !1040
  %_33.0 = extractvalue { i8*, i64* } %13, 0, !dbg !1040
  %_33.1 = extractvalue { i8*, i64* } %13, 1, !dbg !1040
  %14 = bitcast [2 x { i8*, i64* }]* %_22 to { i8*, i64* }*, !dbg !1040
  %15 = getelementptr inbounds { i8*, i64* }, { i8*, i64* }* %14, i32 0, i32 0, !dbg !1040
  store i8* %_30.0, i8** %15, align 8, !dbg !1040
  %16 = getelementptr inbounds { i8*, i64* }, { i8*, i64* }* %14, i32 0, i32 1, !dbg !1040
  store i64* %_30.1, i64** %16, align 8, !dbg !1040
  %17 = getelementptr inbounds [2 x { i8*, i64* }], [2 x { i8*, i64* }]* %_22, i32 0, i32 1, !dbg !1040
  %18 = getelementptr inbounds { i8*, i64* }, { i8*, i64* }* %17, i32 0, i32 0, !dbg !1040
  store i8* %_33.0, i8** %18, align 8, !dbg !1040
  %19 = getelementptr inbounds { i8*, i64* }, { i8*, i64* }* %17, i32 0, i32 1, !dbg !1040
  store i64* %_33.1, i64** %19, align 8, !dbg !1040
  %_19.0 = bitcast [2 x { i8*, i64* }]* %_22 to [0 x { i8*, i64* }]*, !dbg !1039
  call void @_ZN4core3fmt9Arguments6new_v117hdff1995a1908b6f3E(%"core::fmt::Arguments"* noalias nocapture sret dereferenceable(48) %_15, [0 x { [0 x i8]*, i64 }]* noalias nonnull readonly align 8 bitcast (<{ i8*, [8 x i8], i8*, [8 x i8], i8*, [8 x i8] }>* @alloc6 to [0 x { [0 x i8]*, i64 }]*), i64 3, [0 x { i8*, i64* }]* noalias nonnull readonly align 8 %_19.0, i64 2), !dbg !1039
  call void @_ZN4core9panicking9panic_fmt17hcd56f7f635f62c74E(%"core::fmt::Arguments"* noalias nocapture dereferenceable(48) %_15, %"core::panic::Location"* noalias readonly align 8 dereferenceable(24) bitcast (<{ i8*, [16 x i8] }>* @alloc23 to %"core::panic::Location"*)), !dbg !1039
  unreachable, !dbg !1039

bb4:                                              ; preds = %start
  ret void, !dbg !1041
}

; Function Attrs: nounwind nonlazybind
define void @main() unnamed_addr #0 !dbg !1042 {
start:
  %name.dbg.spill.i = alloca { %"klee_sys::CStr"*, i64 }, align 8
  %t.dbg.spill.i = alloca i32*, align 8
  %0 = alloca { [0 x i8]*, i64 }, align 8
  %self.dbg.spill.i = alloca { [0 x i8]*, i64 }, align 8
  %n = alloca i32, align 4
  call void @llvm.dbg.declare(metadata i32* %n, metadata !1046, metadata !DIExpression()), !dbg !1048
  store i32 12, i32* %n, align 4, !dbg !1049
  %1 = getelementptr inbounds { [0 x i8]*, i64 }, { [0 x i8]*, i64 }* %self.dbg.spill.i, i32 0, i32 0
  store [0 x i8]* bitcast (<{ [2 x i8] }>* @alloc24 to [0 x i8]*), [0 x i8]** %1, align 8, !noalias !1050
  %2 = getelementptr inbounds { [0 x i8]*, i64 }, { [0 x i8]*, i64 }* %self.dbg.spill.i, i32 0, i32 1
  store i64 2, i64* %2, align 8, !noalias !1050
  call void @llvm.dbg.declare(metadata { [0 x i8]*, i64 }* %self.dbg.spill.i, metadata !1053, metadata !DIExpression()), !dbg !1061
  %3 = getelementptr inbounds { [0 x i8]*, i64 }, { [0 x i8]*, i64 }* %0, i32 0, i32 0, !dbg !1063
  store [0 x i8]* bitcast (<{ [2 x i8] }>* @alloc24 to [0 x i8]*), [0 x i8]** %3, align 8, !dbg !1063, !noalias !1050
  %4 = getelementptr inbounds { [0 x i8]*, i64 }, { [0 x i8]*, i64 }* %0, i32 0, i32 1, !dbg !1063
  store i64 2, i64* %4, align 8, !dbg !1063, !noalias !1050
  %5 = getelementptr inbounds { [0 x i8]*, i64 }, { [0 x i8]*, i64 }* %0, i32 0, i32 0, !dbg !1063
  %6 = load [0 x i8]*, [0 x i8]** %5, align 8, !dbg !1063, !noalias !1050, !nonnull !28
  %7 = getelementptr inbounds { [0 x i8]*, i64 }, { [0 x i8]*, i64 }* %0, i32 0, i32 1, !dbg !1063
  %8 = load i64, i64* %7, align 8, !dbg !1063, !noalias !1050
  %9 = insertvalue { [0 x i8]*, i64 } undef, [0 x i8]* %6, 0, !dbg !1064
  %10 = insertvalue { [0 x i8]*, i64 } %9, i64 %8, 1, !dbg !1064
  %_9.0 = extractvalue { [0 x i8]*, i64 } %10, 0, !dbg !1065
  %_9.1 = extractvalue { [0 x i8]*, i64 } %10, 1, !dbg !1065
  %11 = call { %"klee_sys::CStr"*, i64 } @_ZN9cstr_core4CStr29from_bytes_with_nul_unchecked17hc5c7ee9b72f6f886E([0 x i8]* noalias nonnull readonly align 1 %_9.0, i64 %_9.1), !dbg !1065
  %_7.0 = extractvalue { %"klee_sys::CStr"*, i64 } %11, 0, !dbg !1065
  %_7.1 = extractvalue { %"klee_sys::CStr"*, i64 } %11, 1, !dbg !1065
  store i32* %n, i32** %t.dbg.spill.i, align 8, !noalias !1066
  call void @llvm.dbg.declare(metadata i32** %t.dbg.spill.i, metadata !1069, metadata !DIExpression()) #19, !dbg !1078
  %12 = getelementptr inbounds { %"klee_sys::CStr"*, i64 }, { %"klee_sys::CStr"*, i64 }* %name.dbg.spill.i, i32 0, i32 0
  store %"klee_sys::CStr"* %_7.0, %"klee_sys::CStr"** %12, align 8, !noalias !1066
  %13 = getelementptr inbounds { %"klee_sys::CStr"*, i64 }, { %"klee_sys::CStr"*, i64 }* %name.dbg.spill.i, i32 0, i32 1
  store i64 %_7.1, i64* %13, align 8, !noalias !1066
  call void @llvm.dbg.declare(metadata { %"klee_sys::CStr"*, i64 }* %name.dbg.spill.i, metadata !1077, metadata !DIExpression()) #19, !dbg !1080
  %_3.i = bitcast i32* %n to i8*, !dbg !1081
  %_6.i = call i8* @_ZN9cstr_core4CStr6as_ptr17hbd2976e9ba5ef15eE(%"klee_sys::CStr"* noalias nonnull readonly align 1 %_7.0, i64 %_7.1) #19, !dbg !1082
  call void @klee_make_symbolic(i8* %_3.i, i64 4, i8* %_6.i) #19, !dbg !1083
  %_13 = load i32, i32* %n, align 4, !dbg !1084
  call void @_ZN4fact9fact_test17h3b0d301d1e2f7b1fE(i32 %_13), !dbg !1085
  ret void, !dbg !1086
}

; Function Attrs: nounwind readnone speculatable willreturn
declare void @llvm.dbg.declare(metadata, metadata, metadata) #6

; Function Attrs: argmemonly nounwind willreturn
declare void @llvm.memcpy.p0i8.p0i8.i64(i8* noalias nocapture writeonly, i8* noalias nocapture readonly, i64, i1 immarg) #7

; Function Attrs: nounwind nonlazybind
declare i32 @rust_eh_personality(...) unnamed_addr #8

; Function Attrs: nounwind nonlazybind
declare void @klee_make_symbolic(i8*, i64, i8*) unnamed_addr #0

; Function Attrs: nounwind readnone speculatable willreturn
declare { i32, i1 } @llvm.ssub.with.overflow.i32(i32, i32) #6

; Function Attrs: nounwind readnone willreturn
declare i1 @llvm.expect.i1(i1, i1) #9

; Function Attrs: nounwind readnone speculatable willreturn
declare { i32, i1 } @llvm.smul.with.overflow.i32(i32, i32) #6

; Function Attrs: cold noinline noreturn nounwind nonlazybind uwtable
define internal void @_ZN4core9panicking5panic17h07405d6be4bce887E([0 x i8]* noalias nonnull readonly align 1 %0, i64 %1, %"core::panic::Location"* noalias readonly align 8 dereferenceable(24) %2) unnamed_addr #10 !dbg !1087 {
  %4 = alloca [1 x { [0 x i8]*, i64 }], align 8
  %5 = alloca %"core::fmt::Arguments", align 8
  %6 = bitcast %"core::fmt::Arguments"* %5 to i8*, !dbg !1091
  %7 = bitcast [1 x { [0 x i8]*, i64 }]* %4 to i8*, !dbg !1092
  %8 = getelementptr inbounds [1 x { [0 x i8]*, i64 }], [1 x { [0 x i8]*, i64 }]* %4, i64 0, i64 0, i32 0, !dbg !1092
  store [0 x i8]* %0, [0 x i8]** %8, align 8, !dbg !1092
  %9 = getelementptr inbounds [1 x { [0 x i8]*, i64 }], [1 x { [0 x i8]*, i64 }]* %4, i64 0, i64 0, i32 1, !dbg !1092
  store i64 %1, i64* %9, align 8, !dbg !1092
  %10 = bitcast %"core::fmt::Arguments"* %5 to [1 x { [0 x i8]*, i64 }]**, !dbg !1093
  store [1 x { [0 x i8]*, i64 }]* %4, [1 x { [0 x i8]*, i64 }]** %10, align 8, !dbg !1093, !alias.scope !1098, !noalias !1101
  %11 = getelementptr inbounds %"core::fmt::Arguments", %"core::fmt::Arguments"* %5, i64 0, i32 1, i32 1, !dbg !1093
  store i64 1, i64* %11, align 8, !dbg !1093, !alias.scope !1098, !noalias !1101
  %12 = getelementptr inbounds %"core::fmt::Arguments", %"core::fmt::Arguments"* %5, i64 0, i32 3, i32 0, !dbg !1093
  store i64* null, i64** %12, align 8, !dbg !1093, !alias.scope !1098, !noalias !1101
  %13 = getelementptr inbounds %"core::fmt::Arguments", %"core::fmt::Arguments"* %5, i64 0, i32 5, i32 0, !dbg !1093
  store [0 x { i8*, i64* }]* bitcast (<{ [0 x i8] }>* @anon.965c706604096d42e5b155eaa3c30edf.12 to [0 x { i8*, i64* }]*), [0 x { i8*, i64* }]** %13, align 8, !dbg !1093, !alias.scope !1098, !noalias !1101
  %14 = getelementptr inbounds %"core::fmt::Arguments", %"core::fmt::Arguments"* %5, i64 0, i32 5, i32 1, !dbg !1093
  store i64 0, i64* %14, align 8, !dbg !1093, !alias.scope !1098, !noalias !1101
  call void @_ZN4core9panicking9panic_fmt17hcd56f7f635f62c74E(%"core::fmt::Arguments"* noalias nocapture nonnull dereferenceable(48) %5, %"core::panic::Location"* noalias nonnull readonly align 8 dereferenceable(24) %2), !dbg !1104
  unreachable, !dbg !1104
}

; Function Attrs: argmemonly nounwind willreturn
declare void @llvm.lifetime.start.p0i8(i64 immarg, i8* nocapture) #7

; Function Attrs: nounwind nonlazybind uwtable
define internal zeroext i1 @"_ZN4core3fmt3num3imp52_$LT$impl$u20$core..fmt..Display$u20$for$u20$u64$GT$3fmt17h48d894a52c575073E"(i64* noalias nocapture readonly align 8 dereferenceable(8) %0, %"core::fmt::Formatter"* nocapture align 8 dereferenceable(64) %1) unnamed_addr #11 !dbg !1105 {
  %3 = alloca [39 x i8], align 1
  %4 = load i64, i64* %0, align 8, !dbg !1109, !alias.scope !1112
  %5 = getelementptr inbounds [39 x i8], [39 x i8]* %3, i64 0, i64 0, !dbg !1115
  %6 = call i8* @memset(i8* %5, i32 0, i64 39), !dbg !1118
  %7 = icmp ugt i64 %4, 9999, !dbg !1119
  br i1 %7, label %12, label %8, !dbg !1120

8:                                                ; preds = %12, %2
  %9 = phi i64 [ 39, %2 ], [ %24, %12 ], !dbg !1121
  %10 = phi i64 [ %4, %2 ], [ %16, %12 ]
  %11 = icmp sgt i64 %10, 99, !dbg !1122
  br i1 %11, label %37, label %50, !dbg !1123

12:                                               ; preds = %12, %2
  %13 = phi i64 [ %16, %12 ], [ %4, %2 ]
  %14 = phi i64 [ %24, %12 ], [ 39, %2 ]
  %15 = urem i64 %13, 10000, !dbg !1124
  %16 = udiv i64 %13, 10000, !dbg !1125
  %17 = trunc i64 %15 to i16, !dbg !1126
  %18 = udiv i16 %17, 100, !dbg !1126
  %19 = shl nuw nsw i16 %18, 1, !dbg !1126
  %20 = zext i16 %19 to i64, !dbg !1126
  %21 = urem i16 %17, 100, !dbg !1127
  %22 = shl nuw nsw i16 %21, 1, !dbg !1127
  %23 = zext i16 %22 to i64, !dbg !1127
  %24 = add i64 %14, -4, !dbg !1128
  %25 = getelementptr inbounds <{ [200 x i8] }>, <{ [200 x i8] }>* @anon.965c706604096d42e5b155eaa3c30edf.223, i64 0, i32 0, i64 %20, !dbg !1129
  %26 = getelementptr inbounds [39 x i8], [39 x i8]* %3, i64 0, i64 %24, !dbg !1135
  %27 = bitcast i8* %25 to i16*, !dbg !1141
  %28 = bitcast i8* %26 to i16*, !dbg !1141
  %29 = load i16, i16* %27, align 1, !dbg !1141
  store i16 %29, i16* %28, align 1, !dbg !1141
  %30 = getelementptr inbounds <{ [200 x i8] }>, <{ [200 x i8] }>* @anon.965c706604096d42e5b155eaa3c30edf.223, i64 0, i32 0, i64 %23, !dbg !1145
  %31 = add nsw i64 %14, -2, !dbg !1147
  %32 = getelementptr inbounds [39 x i8], [39 x i8]* %3, i64 0, i64 %31, !dbg !1148
  %33 = bitcast i8* %30 to i16*, !dbg !1150
  %34 = bitcast i8* %32 to i16*, !dbg !1150
  %35 = load i16, i16* %33, align 1, !dbg !1150
  store i16 %35, i16* %34, align 1, !dbg !1150
  %36 = icmp ugt i64 %13, 99999999, !dbg !1119
  br i1 %36, label %12, label %8, !dbg !1120

37:                                               ; preds = %8
  %38 = trunc i64 %10 to i16, !dbg !1152
  %39 = urem i16 %38, 100, !dbg !1152
  %40 = shl nuw nsw i16 %39, 1, !dbg !1152
  %41 = zext i16 %40 to i64, !dbg !1152
  %42 = udiv i16 %38, 100, !dbg !1153
  %43 = zext i16 %42 to i64, !dbg !1153
  %44 = add i64 %9, -2, !dbg !1154
  %45 = getelementptr inbounds <{ [200 x i8] }>, <{ [200 x i8] }>* @anon.965c706604096d42e5b155eaa3c30edf.223, i64 0, i32 0, i64 %41, !dbg !1155
  %46 = getelementptr inbounds [39 x i8], [39 x i8]* %3, i64 0, i64 %44, !dbg !1157
  %47 = bitcast i8* %45 to i16*, !dbg !1159
  %48 = bitcast i8* %46 to i16*, !dbg !1159
  %49 = load i16, i16* %47, align 1, !dbg !1159
  store i16 %49, i16* %48, align 1, !dbg !1159
  br label %50, !dbg !1123

50:                                               ; preds = %37, %8
  %51 = phi i64 [ %43, %37 ], [ %10, %8 ], !dbg !1121
  %52 = phi i64 [ %44, %37 ], [ %9, %8 ], !dbg !1121
  %53 = icmp slt i64 %51, 10, !dbg !1161
  br i1 %53, label %54, label %59, !dbg !1162

54:                                               ; preds = %50
  %55 = add i64 %52, -1, !dbg !1163
  %56 = trunc i64 %51 to i8, !dbg !1164
  %57 = getelementptr inbounds [39 x i8], [39 x i8]* %3, i64 0, i64 %55, !dbg !1165
  %58 = add nuw nsw i8 %56, 48, !dbg !1167
  store i8 %58, i8* %57, align 1, !dbg !1167
  br label %67, !dbg !1162

59:                                               ; preds = %50
  %60 = shl nuw nsw i64 %51, 1, !dbg !1168
  %61 = add i64 %52, -2, !dbg !1169
  %62 = getelementptr inbounds <{ [200 x i8] }>, <{ [200 x i8] }>* @anon.965c706604096d42e5b155eaa3c30edf.223, i64 0, i32 0, i64 %60, !dbg !1170
  %63 = getelementptr inbounds [39 x i8], [39 x i8]* %3, i64 0, i64 %61, !dbg !1172
  %64 = bitcast i8* %62 to i16*, !dbg !1174
  %65 = bitcast i8* %63 to i16*, !dbg !1174
  %66 = load i16, i16* %64, align 1, !dbg !1174
  store i16 %66, i16* %65, align 1, !dbg !1174
  br label %67, !dbg !1162

67:                                               ; preds = %59, %54
  %68 = phi i64 [ %55, %54 ], [ %61, %59 ], !dbg !1121
  %69 = getelementptr inbounds [39 x i8], [39 x i8]* %3, i64 0, i64 %68, !dbg !1176
  %70 = sub i64 39, %68, !dbg !1178
  %71 = bitcast i8* %69 to [0 x i8]*, !dbg !1179
  %72 = call zeroext i1 @_ZN4core3fmt9Formatter12pad_integral17h0f9951fc9f2b13b4E(%"core::fmt::Formatter"* nonnull align 8 dereferenceable(64) %1, i1 zeroext true, [0 x i8]* noalias nonnull readonly align 1 getelementptr inbounds (<{ [0 x i8] }>, <{ [0 x i8] }>* @anon.965c706604096d42e5b155eaa3c30edf.12, i32 0, i32 0), i64 0, [0 x i8]* noalias nonnull readonly align 1 %71, i64 %70), !dbg !1188
  ret i1 %72, !dbg !1189
}

; Function Attrs: cold noinline noreturn nounwind nonlazybind uwtable
define internal void @_ZN4core9panicking9panic_fmt17hcd56f7f635f62c74E(%"core::fmt::Arguments"* noalias nocapture dereferenceable(48) %0, %"core::panic::Location"* noalias readonly align 8 dereferenceable(24) %1) unnamed_addr #10 !dbg !1190 {
  %3 = alloca %"panic::PanicInfo", align 8
  %4 = bitcast %"panic::PanicInfo"* %3 to i8*, !dbg !1191
  %5 = getelementptr inbounds %"core::fmt::Arguments", %"core::fmt::Arguments"* %0, i64 0, i32 0, i64 0, !dbg !1192
  %6 = bitcast %"panic::PanicInfo"* %3 to {}**, !dbg !1193
  store {}* bitcast (<{ [0 x i8] }>* @anon.965c706604096d42e5b155eaa3c30edf.12 to {}*), {}** %6, align 8, !dbg !1193, !alias.scope !1199, !noalias !1202
  %7 = getelementptr inbounds %"panic::PanicInfo", %"panic::PanicInfo"* %3, i64 0, i32 1, i32 1, !dbg !1193
  store [3 x i64]* bitcast ({ void ({}*)*, i64, i64, i64 ({}*)* }* @anon.965c706604096d42e5b155eaa3c30edf.177 to [3 x i64]*), [3 x i64]** %7, align 8, !dbg !1193, !alias.scope !1199, !noalias !1202
  %8 = getelementptr inbounds %"panic::PanicInfo", %"panic::PanicInfo"* %3, i64 0, i32 3, !dbg !1193
  store i64* %5, i64** %8, align 8, !dbg !1193, !alias.scope !1199, !noalias !1202
  %9 = getelementptr inbounds %"panic::PanicInfo", %"panic::PanicInfo"* %3, i64 0, i32 5, !dbg !1193
  store %"core::panic::Location"* %1, %"core::panic::Location"** %9, align 8, !dbg !1193, !alias.scope !1199, !noalias !1202
  call void @rust_begin_unwind(%"panic::PanicInfo"* noalias nonnull readonly align 8 dereferenceable(32) %3), !dbg !1205
  unreachable, !dbg !1205
}

; Function Attrs: inlinehint norecurse nounwind nonlazybind readnone uwtable
define internal void @"_ZN4core3ptr102drop_in_place$LT$$RF$core..iter..adapters..copied..Copied$LT$core..slice..iter..Iter$LT$u8$GT$$GT$$GT$17h5913dccf4681891cE"({ i8*, i8* }** nocapture %0) unnamed_addr #12 !dbg !1206 {
  ret void, !dbg !1207
}

; Function Attrs: norecurse nounwind nonlazybind readnone uwtable
define internal i64 @"_ZN36_$LT$T$u20$as$u20$core..any..Any$GT$7type_id17h108f63b8120e9c9cE"({}* noalias nocapture nonnull readonly align 1 %0) unnamed_addr #13 !dbg !1208 {
  ret i64 6876091270197435960, !dbg !1212
}

; Function Attrs: argmemonly nounwind willreturn
declare void @llvm.memset.p0i8.i64(i8* nocapture writeonly, i8, i64, i1 immarg) #7

; Function Attrs: nounwind nonlazybind uwtable
define internal zeroext i1 @_ZN4core3fmt9Formatter12pad_integral17h0f9951fc9f2b13b4E(%"core::fmt::Formatter"* nocapture align 8 dereferenceable(64) %0, i1 zeroext %1, [0 x i8]* noalias nonnull readonly align 1 %2, i64 %3, [0 x i8]* noalias nonnull readonly align 1 %4, i64 %5) unnamed_addr #11 personality i32 (...)* @rust_eh_personality !dbg !1213 {
  br i1 %1, label %11, label %7, !dbg !1215

7:                                                ; preds = %6
  %8 = add i64 %5, 1, !dbg !1216
  %9 = getelementptr inbounds %"core::fmt::Formatter", %"core::fmt::Formatter"* %0, i64 0, i32 7, !dbg !1217
  %10 = load i32, i32* %9, align 8, !dbg !1220, !alias.scope !1221
  br label %20, !dbg !1215

11:                                               ; preds = %6
  %12 = getelementptr inbounds %"core::fmt::Formatter", %"core::fmt::Formatter"* %0, i64 0, i32 7, !dbg !1224
  %13 = load i32, i32* %12, align 8, !dbg !1224, !alias.scope !1227
  %14 = and i32 %13, 1, !dbg !1224
  %15 = icmp eq i32 %14, 0, !dbg !1224
  %16 = select i1 %15, i32 1114112, i32 43, !dbg !1230
  %17 = xor i1 %15, true, !dbg !1230
  %18 = zext i1 %17 to i64, !dbg !1230
  %19 = add i64 %18, %5, !dbg !1230
  br label %20, !dbg !1230

20:                                               ; preds = %11, %7
  %21 = phi i32 [ %10, %7 ], [ %13, %11 ], !dbg !1220
  %22 = phi i32 [ 45, %7 ], [ %16, %11 ], !dbg !1231
  %23 = phi i64 [ %8, %7 ], [ %19, %11 ], !dbg !1231
  %24 = and i32 %21, 4, !dbg !1220
  %25 = icmp eq i32 %24, 0, !dbg !1220
  br i1 %25, label %91, label %26, !dbg !1232

26:                                               ; preds = %20
  %27 = getelementptr [0 x i8], [0 x i8]* %2, i64 0, i64 0, !dbg !1233
  %28 = getelementptr inbounds [0 x i8], [0 x i8]* %2, i64 0, i64 %3, !dbg !1248
  %29 = icmp eq i64 %3, 0, !dbg !1252
  br i1 %29, label %88, label %30, !dbg !1285

30:                                               ; preds = %26
  %31 = icmp ult i64 %3, 4, !dbg !1285
  br i1 %31, label %75, label %32, !dbg !1285

32:                                               ; preds = %30
  %33 = and i64 %3, -4, !dbg !1285
  %34 = getelementptr [0 x i8], [0 x i8]* %2, i64 0, i64 %33, !dbg !1285
  %35 = add i64 %33, -4, !dbg !1285
  %36 = lshr exact i64 %35, 2, !dbg !1285
  %37 = add nuw nsw i64 %36, 1, !dbg !1285
  %38 = and i64 %37, 1, !dbg !1285
  %39 = icmp eq i64 %35, 0, !dbg !1285
  br i1 %39, label %61, label %40, !dbg !1285

40:                                               ; preds = %32
  %41 = and i64 %37, 9223372036854775806, !dbg !1285
  br label %42, !dbg !1285

42:                                               ; preds = %42, %40
  %43 = phi i64 [ 0, %40 ], [ %58, %42 ]
  %.i0 = phi i64 [ 0, %40 ], [ %.i01, %42 ]
  %.i1 = phi i64 [ 0, %40 ], [ %.i12, %42 ]
  %.i03 = phi i64 [ 0, %40 ], [ %.i05, %42 ]
  %.i14 = phi i64 [ 0, %40 ], [ %.i16, %42 ]
  %44 = phi i64 [ %41, %40 ], [ %59, %42 ]
  %45 = getelementptr [0 x i8], [0 x i8]* %2, i64 0, i64 %43
  %46 = bitcast i8* %45 to <2 x i8>*, !dbg !1286
  %47 = load <2 x i8>, <2 x i8>* %46, align 1, !dbg !1286, !alias.scope !1287
  %.i07 = extractelement <2 x i8> %47, i32 0, !dbg !1286
  %.i19 = extractelement <2 x i8> %47, i32 1, !dbg !1286
  %48 = getelementptr i8, i8* %45, i64 2, !dbg !1286
  %49 = bitcast i8* %48 to <2 x i8>*, !dbg !1286
  %50 = load <2 x i8>, <2 x i8>* %49, align 1, !dbg !1286, !alias.scope !1287
  %.i011 = extractelement <2 x i8> %50, i32 0, !dbg !1290
  %.i113 = extractelement <2 x i8> %50, i32 1, !dbg !1290
  %.i08 = and i8 %.i07, -64, !dbg !1290
  %.i110 = and i8 %.i19, -64, !dbg !1290
  %.i012 = and i8 %.i011, -64, !dbg !1290
  %.i114 = and i8 %.i113, -64, !dbg !1290
  %.i015 = icmp ne i8 %.i08, -128, !dbg !1290
  %.i116 = icmp ne i8 %.i110, -128, !dbg !1290
  %.i017 = icmp ne i8 %.i012, -128, !dbg !1290
  %.i118 = icmp ne i8 %.i114, -128, !dbg !1290
  %.i019 = zext i1 %.i015 to i64, !dbg !1305
  %.i120 = zext i1 %.i116 to i64, !dbg !1305
  %.i021 = zext i1 %.i017 to i64, !dbg !1305
  %.i122 = zext i1 %.i118 to i64, !dbg !1305
  %.i023 = add i64 %.i0, %.i019, !dbg !1306
  %.i124 = add i64 %.i1, %.i120, !dbg !1306
  %.i025 = add i64 %.i03, %.i021, !dbg !1306
  %.i126 = add i64 %.i14, %.i122, !dbg !1306
  %51 = or i64 %43, 4
  %52 = getelementptr [0 x i8], [0 x i8]* %2, i64 0, i64 %51
  %53 = bitcast i8* %52 to <2 x i8>*, !dbg !1286
  %54 = load <2 x i8>, <2 x i8>* %53, align 1, !dbg !1286, !alias.scope !1287
  %.i027 = extractelement <2 x i8> %54, i32 0, !dbg !1286
  %.i129 = extractelement <2 x i8> %54, i32 1, !dbg !1286
  %55 = getelementptr i8, i8* %52, i64 2, !dbg !1286
  %56 = bitcast i8* %55 to <2 x i8>*, !dbg !1286
  %57 = load <2 x i8>, <2 x i8>* %56, align 1, !dbg !1286, !alias.scope !1287
  %.i031 = extractelement <2 x i8> %57, i32 0, !dbg !1290
  %.i133 = extractelement <2 x i8> %57, i32 1, !dbg !1290
  %.i028 = and i8 %.i027, -64, !dbg !1290
  %.i130 = and i8 %.i129, -64, !dbg !1290
  %.i032 = and i8 %.i031, -64, !dbg !1290
  %.i134 = and i8 %.i133, -64, !dbg !1290
  %.i035 = icmp ne i8 %.i028, -128, !dbg !1290
  %.i136 = icmp ne i8 %.i130, -128, !dbg !1290
  %.i037 = icmp ne i8 %.i032, -128, !dbg !1290
  %.i138 = icmp ne i8 %.i134, -128, !dbg !1290
  %.i039 = zext i1 %.i035 to i64, !dbg !1305
  %.i140 = zext i1 %.i136 to i64, !dbg !1305
  %.i041 = zext i1 %.i037 to i64, !dbg !1305
  %.i142 = zext i1 %.i138 to i64, !dbg !1305
  %.i01 = add i64 %.i023, %.i039, !dbg !1306
  %.i12 = add i64 %.i124, %.i140, !dbg !1306
  %.i05 = add i64 %.i025, %.i041, !dbg !1306
  %.i16 = add i64 %.i126, %.i142, !dbg !1306
  %58 = add i64 %43, 8
  %59 = add i64 %44, -2
  %60 = icmp eq i64 %59, 0
  br i1 %60, label %61, label %42, !llvm.loop !1317

61:                                               ; preds = %42, %32
  %.i047 = phi i64 [ undef, %32 ], [ %.i01, %42 ]
  %.i148 = phi i64 [ undef, %32 ], [ %.i12, %42 ]
  %.i049 = phi i64 [ undef, %32 ], [ %.i05, %42 ]
  %.i150 = phi i64 [ undef, %32 ], [ %.i16, %42 ]
  %62 = phi i64 [ 0, %32 ], [ %58, %42 ]
  %.i051 = phi i64 [ 0, %32 ], [ %.i01, %42 ]
  %.i152 = phi i64 [ 0, %32 ], [ %.i12, %42 ]
  %.i053 = phi i64 [ 0, %32 ], [ %.i05, %42 ]
  %.i154 = phi i64 [ 0, %32 ], [ %.i16, %42 ]
  %63 = icmp eq i64 %38, 0
  br i1 %63, label %71, label %64

64:                                               ; preds = %61
  %65 = getelementptr [0 x i8], [0 x i8]* %2, i64 0, i64 %62
  %66 = getelementptr i8, i8* %65, i64 2, !dbg !1286
  %67 = bitcast i8* %66 to <2 x i8>*, !dbg !1286
  %68 = load <2 x i8>, <2 x i8>* %67, align 1, !dbg !1286, !alias.scope !1287
  %.i055 = extractelement <2 x i8> %68, i32 0, !dbg !1290
  %.i056 = and i8 %.i055, -64, !dbg !1290
  %.i157 = extractelement <2 x i8> %68, i32 1, !dbg !1290
  %.i158 = and i8 %.i157, -64, !dbg !1290
  %.i059 = icmp ne i8 %.i056, -128, !dbg !1290
  %.i160 = icmp ne i8 %.i158, -128, !dbg !1290
  %.i061 = zext i1 %.i059 to i64, !dbg !1305
  %.i162 = zext i1 %.i160 to i64, !dbg !1305
  %.i063 = add i64 %.i053, %.i061, !dbg !1306
  %.i164 = add i64 %.i154, %.i162, !dbg !1306
  %69 = bitcast i8* %65 to <2 x i8>*, !dbg !1286
  %70 = load <2 x i8>, <2 x i8>* %69, align 1, !dbg !1286, !alias.scope !1287
  %.i065 = extractelement <2 x i8> %70, i32 0, !dbg !1290
  %.i066 = and i8 %.i065, -64, !dbg !1290
  %.i167 = extractelement <2 x i8> %70, i32 1, !dbg !1290
  %.i168 = and i8 %.i167, -64, !dbg !1290
  %.i069 = icmp ne i8 %.i066, -128, !dbg !1290
  %.i170 = icmp ne i8 %.i168, -128, !dbg !1290
  %.i071 = zext i1 %.i069 to i64, !dbg !1305
  %.i172 = zext i1 %.i170 to i64, !dbg !1305
  %.i073 = add i64 %.i051, %.i071, !dbg !1306
  %.i174 = add i64 %.i152, %.i172, !dbg !1306
  br label %71, !dbg !1285

71:                                               ; preds = %64, %61
  %.i075 = phi i64 [ %.i047, %61 ], [ %.i073, %64 ], !dbg !1306
  %.i176 = phi i64 [ %.i148, %61 ], [ %.i174, %64 ], !dbg !1306
  %.i077 = phi i64 [ %.i049, %61 ], [ %.i063, %64 ], !dbg !1306
  %.i178 = phi i64 [ %.i150, %61 ], [ %.i164, %64 ], !dbg !1306
  %.i079 = add i64 %.i077, %.i075, !dbg !1285
  %.i180 = add i64 %.i178, %.i176, !dbg !1285
  %.upto0 = insertelement <2 x i64> undef, i64 %.i079, i32 0, !dbg !1285
  %72 = insertelement <2 x i64> %.upto0, i64 %.i180, i32 1, !dbg !1285
  %73 = call i64 @llvm.experimental.vector.reduce.add.v2i64(<2 x i64> %72), !dbg !1285
  %74 = icmp eq i64 %33, %3, !dbg !1285
  br i1 %74, label %88, label %75, !dbg !1285

75:                                               ; preds = %71, %30
  %76 = phi i64 [ 0, %30 ], [ %73, %71 ]
  %77 = phi i8* [ %27, %30 ], [ %34, %71 ]
  br label %78, !dbg !1285

78:                                               ; preds = %78, %75
  %79 = phi i64 [ %86, %78 ], [ %76, %75 ]
  %80 = phi i8* [ %81, %78 ], [ %77, %75 ]
  %81 = getelementptr inbounds i8, i8* %80, i64 1, !dbg !1319
  %82 = load i8, i8* %80, align 1, !dbg !1286, !alias.scope !1287
  %83 = and i8 %82, -64, !dbg !1290
  %84 = icmp ne i8 %83, -128, !dbg !1290
  %85 = zext i1 %84 to i64, !dbg !1305
  %86 = add i64 %79, %85, !dbg !1306
  %87 = icmp eq i8* %81, %28, !dbg !1252
  br i1 %87, label %88, label %78, !dbg !1285, !llvm.loop !1323

88:                                               ; preds = %78, %71, %26
  %89 = phi i64 [ 0, %26 ], [ %73, %71 ], [ %86, %78 ], !dbg !1325
  %90 = add i64 %89, %23, !dbg !1326
  br label %91, !dbg !1232

91:                                               ; preds = %88, %20
  %92 = phi i8* [ %27, %88 ], [ null, %20 ], !dbg !1231
  %93 = phi i64 [ %90, %88 ], [ %23, %20 ], !dbg !1231
  %94 = getelementptr inbounds %"core::fmt::Formatter", %"core::fmt::Formatter"* %0, i64 0, i32 0, i64 0, !dbg !1327
  %95 = load i64, i64* %94, align 8, !dbg !1327, !range !1328
  %96 = icmp eq i64 %95, 1, !dbg !1327
  br i1 %96, label %108, label %97, !dbg !1327

97:                                               ; preds = %91
  %98 = tail call fastcc zeroext i1 @_ZN4core3fmt9Formatter12pad_integral12write_prefix17h89d94f6859d81915E(%"core::fmt::Formatter"* nonnull align 8 dereferenceable(64) %0, i32 %22, i8* noalias readonly align 1 %92, i64 %3), !dbg !1329
  br i1 %98, label %233, label %99, !dbg !1330

99:                                               ; preds = %97
  %100 = getelementptr inbounds %"core::fmt::Formatter", %"core::fmt::Formatter"* %0, i64 0, i32 5, i32 0, !dbg !1331
  %101 = load {}*, {}** %100, align 8, !dbg !1331, !nonnull !28
  %102 = getelementptr inbounds %"core::fmt::Formatter", %"core::fmt::Formatter"* %0, i64 0, i32 5, i32 1, !dbg !1331
  %103 = bitcast [3 x i64]** %102 to i1 ({}*, [0 x i8]*, i64)***, !dbg !1331
  %104 = load i1 ({}*, [0 x i8]*, i64)**, i1 ({}*, [0 x i8]*, i64)*** %103, align 8, !dbg !1331, !nonnull !28
  %105 = getelementptr inbounds i1 ({}*, [0 x i8]*, i64)*, i1 ({}*, [0 x i8]*, i64)** %104, i64 3, !dbg !1331
  %106 = load i1 ({}*, [0 x i8]*, i64)*, i1 ({}*, [0 x i8]*, i64)** %105, align 8, !dbg !1331, !invariant.load !28, !nonnull !28
  %107 = tail call zeroext i1 %106({}* nonnull align 1 %101, [0 x i8]* noalias nonnull readonly align 1 %4, i64 %5), !dbg !1331
  br label %233, !dbg !1332

108:                                              ; preds = %91
  %109 = getelementptr inbounds %"core::fmt::Formatter", %"core::fmt::Formatter"* %0, i64 0, i32 1, i32 1, !dbg !1333
  %110 = load i64, i64* %109, align 8, !dbg !1334
  %111 = icmp ugt i64 %110, %93, !dbg !1335
  br i1 %111, label %114, label %112, !dbg !1335

112:                                              ; preds = %108
  %113 = tail call fastcc zeroext i1 @_ZN4core3fmt9Formatter12pad_integral12write_prefix17h89d94f6859d81915E(%"core::fmt::Formatter"* nonnull align 8 dereferenceable(64) %0, i32 %22, i8* noalias readonly align 1 %92, i64 %3), !dbg !1336
  br i1 %113, label %233, label %117, !dbg !1337

114:                                              ; preds = %108
  %115 = and i32 %21, 8, !dbg !1338
  %116 = icmp eq i32 %115, 0, !dbg !1338
  br i1 %116, label %132, label %126, !dbg !1341

117:                                              ; preds = %112
  %118 = getelementptr inbounds %"core::fmt::Formatter", %"core::fmt::Formatter"* %0, i64 0, i32 5, i32 0, !dbg !1342
  %119 = load {}*, {}** %118, align 8, !dbg !1342, !nonnull !28
  %120 = getelementptr inbounds %"core::fmt::Formatter", %"core::fmt::Formatter"* %0, i64 0, i32 5, i32 1, !dbg !1342
  %121 = bitcast [3 x i64]** %120 to i1 ({}*, [0 x i8]*, i64)***, !dbg !1342
  %122 = load i1 ({}*, [0 x i8]*, i64)**, i1 ({}*, [0 x i8]*, i64)*** %121, align 8, !dbg !1342, !nonnull !28
  %123 = getelementptr inbounds i1 ({}*, [0 x i8]*, i64)*, i1 ({}*, [0 x i8]*, i64)** %122, i64 3, !dbg !1342
  %124 = load i1 ({}*, [0 x i8]*, i64)*, i1 ({}*, [0 x i8]*, i64)** %123, align 8, !dbg !1342, !invariant.load !28, !nonnull !28
  %125 = tail call zeroext i1 %124({}* nonnull align 1 %119, [0 x i8]* noalias nonnull readonly align 1 %4, i64 %5), !dbg !1342
  br label %233, !dbg !1332

126:                                              ; preds = %114
  %127 = getelementptr inbounds %"core::fmt::Formatter", %"core::fmt::Formatter"* %0, i64 0, i32 9, !dbg !1343
  %128 = load i32, i32* %127, align 4, !dbg !1344
  store i32 48, i32* %127, align 4, !dbg !1352
  %129 = getelementptr inbounds %"core::fmt::Formatter", %"core::fmt::Formatter"* %0, i64 0, i32 11, !dbg !1355
  %130 = load i8, i8* %129, align 8, !dbg !1356
  store i8 1, i8* %129, align 8, !dbg !1363
  %131 = tail call fastcc zeroext i1 @_ZN4core3fmt9Formatter12pad_integral12write_prefix17h89d94f6859d81915E(%"core::fmt::Formatter"* nonnull align 8 dereferenceable(64) %0, i32 %22, i8* noalias readonly align 1 %92, i64 %3), !dbg !1366
  br i1 %131, label %233, label %162, !dbg !1367

132:                                              ; preds = %114
  %133 = sub i64 %110, %93, !dbg !1368
  %134 = getelementptr inbounds %"core::fmt::Formatter", %"core::fmt::Formatter"* %0, i64 0, i32 11, !dbg !1369
  %135 = load i8, i8* %134, align 8, !dbg !1369, !range !1372
  %136 = icmp eq i8 %135, 3, !dbg !1369
  %137 = select i1 %136, i8 1, i8 %135, !dbg !1373
  switch i8 %137, label %142 [
    i8 0, label %144
    i8 1, label %143
    i8 2, label %138
    i8 3, label %143
  ], !dbg !1374

138:                                              ; preds = %132
  %139 = lshr i64 %133, 1, !dbg !1375
  %140 = add i64 %133, 1, !dbg !1376
  %141 = lshr i64 %140, 1, !dbg !1376
  br label %144, !dbg !1377

142:                                              ; preds = %132
  unreachable, !dbg !1378

143:                                              ; preds = %132, %132
  br label %144, !dbg !1377

144:                                              ; preds = %143, %138, %132
  %145 = phi i64 [ %141, %138 ], [ 0, %143 ], [ %133, %132 ], !dbg !1379
  %146 = phi i64 [ %139, %138 ], [ %133, %143 ], [ 0, %132 ], !dbg !1379
  %147 = getelementptr inbounds %"core::fmt::Formatter", %"core::fmt::Formatter"* %0, i64 0, i32 5, i32 0, !dbg !1379
  %148 = getelementptr inbounds %"core::fmt::Formatter", %"core::fmt::Formatter"* %0, i64 0, i32 5, i32 1, !dbg !1379
  %149 = bitcast [3 x i64]** %148 to i1 ({}*, i32)***, !dbg !1379
  %150 = getelementptr inbounds %"core::fmt::Formatter", %"core::fmt::Formatter"* %0, i64 0, i32 9, !dbg !1379
  br label %151, !dbg !1380

151:                                              ; preds = %154, %144
  %152 = phi i64 [ 0, %144 ], [ %155, %154 ], !dbg !1379
  %153 = icmp eq i64 %152, %146, !dbg !1381
  br i1 %153, label %211, label %154, !dbg !1388

154:                                              ; preds = %151
  %155 = add i64 %152, 1, !dbg !1389
  %156 = load {}*, {}** %147, align 8, !dbg !1395, !nonnull !28
  %157 = load i1 ({}*, i32)**, i1 ({}*, i32)*** %149, align 8, !dbg !1395, !nonnull !28
  %158 = load i32, i32* %150, align 4, !dbg !1396, !range !1397
  %159 = getelementptr inbounds i1 ({}*, i32)*, i1 ({}*, i32)** %157, i64 4, !dbg !1395
  %160 = load i1 ({}*, i32)*, i1 ({}*, i32)** %159, align 8, !dbg !1395, !invariant.load !28, !nonnull !28
  %161 = tail call zeroext i1 %160({}* nonnull align 1 %156, i32 %158), !dbg !1395
  br i1 %161, label %233, label %151, !dbg !1398

162:                                              ; preds = %126
  %163 = sub i64 %110, %93, !dbg !1399
  %164 = load i8, i8* %129, align 8, !dbg !1400, !range !1372
  %165 = icmp eq i8 %164, 3, !dbg !1400
  %166 = select i1 %165, i8 1, i8 %164, !dbg !1402
  switch i8 %166, label %171 [
    i8 0, label %173
    i8 1, label %172
    i8 2, label %167
    i8 3, label %172
  ], !dbg !1403

167:                                              ; preds = %162
  %168 = lshr i64 %163, 1, !dbg !1404
  %169 = add i64 %163, 1, !dbg !1405
  %170 = lshr i64 %169, 1, !dbg !1405
  br label %173, !dbg !1406

171:                                              ; preds = %162
  unreachable, !dbg !1407

172:                                              ; preds = %162, %162
  br label %173, !dbg !1406

173:                                              ; preds = %172, %167, %162
  %174 = phi i64 [ %170, %167 ], [ 0, %172 ], [ %163, %162 ], !dbg !1408
  %175 = phi i64 [ %168, %167 ], [ %163, %172 ], [ 0, %162 ], !dbg !1408
  %176 = getelementptr inbounds %"core::fmt::Formatter", %"core::fmt::Formatter"* %0, i64 0, i32 5, i32 0, !dbg !1408
  %177 = getelementptr inbounds %"core::fmt::Formatter", %"core::fmt::Formatter"* %0, i64 0, i32 5, i32 1, !dbg !1408
  %178 = bitcast [3 x i64]** %177 to i1 ({}*, i32)***, !dbg !1408
  br label %179, !dbg !1409

179:                                              ; preds = %182, %173
  %180 = phi i64 [ 0, %173 ], [ %183, %182 ], !dbg !1408
  %181 = icmp eq i64 %180, %175, !dbg !1410
  br i1 %181, label %190, label %182, !dbg !1413

182:                                              ; preds = %179
  %183 = add i64 %180, 1, !dbg !1414
  %184 = load {}*, {}** %176, align 8, !dbg !1417, !nonnull !28
  %185 = load i1 ({}*, i32)**, i1 ({}*, i32)*** %178, align 8, !dbg !1417, !nonnull !28
  %186 = load i32, i32* %127, align 4, !dbg !1418, !range !1397
  %187 = getelementptr inbounds i1 ({}*, i32)*, i1 ({}*, i32)** %185, i64 4, !dbg !1417
  %188 = load i1 ({}*, i32)*, i1 ({}*, i32)** %187, align 8, !dbg !1417, !invariant.load !28, !nonnull !28
  %189 = tail call zeroext i1 %188({}* nonnull align 1 %184, i32 %186), !dbg !1417
  br i1 %189, label %233, label %179, !dbg !1419

190:                                              ; preds = %179
  %191 = load i32, i32* %127, align 4, !dbg !1420, !range !1397
  %192 = load {}*, {}** %176, align 8, !dbg !1421, !nonnull !28
  %193 = bitcast [3 x i64]** %177 to i1 ({}*, [0 x i8]*, i64)***, !dbg !1421
  %194 = load i1 ({}*, [0 x i8]*, i64)**, i1 ({}*, [0 x i8]*, i64)*** %193, align 8, !dbg !1421, !nonnull !28
  %195 = getelementptr inbounds i1 ({}*, [0 x i8]*, i64)*, i1 ({}*, [0 x i8]*, i64)** %194, i64 3, !dbg !1421
  %196 = load i1 ({}*, [0 x i8]*, i64)*, i1 ({}*, [0 x i8]*, i64)** %195, align 8, !dbg !1421, !invariant.load !28, !nonnull !28
  %197 = tail call zeroext i1 %196({}* nonnull align 1 %192, [0 x i8]* noalias nonnull readonly align 1 %4, i64 %5), !dbg !1421
  br i1 %197, label %233, label %198, !dbg !1422

198:                                              ; preds = %190
  %199 = load {}*, {}** %176, align 8, !dbg !1423, !nonnull !28
  %200 = load [3 x i64]*, [3 x i64]** %177, align 8, !dbg !1423, !nonnull !28
  %201 = getelementptr inbounds [3 x i64], [3 x i64]* %200, i64 0, i64 4, !dbg !1424
  %202 = bitcast i64* %201 to i1 ({}*, i32)**, !dbg !1424
  br label %203, !dbg !1428

203:                                              ; preds = %206, %198
  %204 = phi i64 [ 0, %198 ], [ %207, %206 ], !dbg !1424
  %205 = icmp eq i64 %204, %174, !dbg !1429
  br i1 %205, label %210, label %206, !dbg !1432

206:                                              ; preds = %203
  %207 = add i64 %204, 1, !dbg !1433
  %208 = load i1 ({}*, i32)*, i1 ({}*, i32)** %202, align 8, !dbg !1436, !invariant.load !28, !alias.scope !1437, !nonnull !28
  %209 = tail call zeroext i1 %208({}* nonnull align 1 %199, i32 %191), !dbg !1436, !noalias !1437
  br i1 %209, label %233, label %203, !dbg !1440

210:                                              ; preds = %203
  store i32 %128, i32* %127, align 4, !dbg !1441
  store i8 %130, i8* %129, align 8, !dbg !1442
  br label %233, !dbg !1332

211:                                              ; preds = %151
  %212 = load i32, i32* %150, align 4, !dbg !1443, !range !1397
  %213 = tail call fastcc zeroext i1 @_ZN4core3fmt9Formatter12pad_integral12write_prefix17h89d94f6859d81915E(%"core::fmt::Formatter"* nonnull align 8 dereferenceable(64) %0, i32 %22, i8* noalias readonly align 1 %92, i64 %3), !dbg !1444
  br i1 %213, label %233, label %214, !dbg !1445

214:                                              ; preds = %211
  %215 = load {}*, {}** %147, align 8, !dbg !1446, !nonnull !28
  %216 = bitcast [3 x i64]** %148 to i1 ({}*, [0 x i8]*, i64)***, !dbg !1446
  %217 = load i1 ({}*, [0 x i8]*, i64)**, i1 ({}*, [0 x i8]*, i64)*** %216, align 8, !dbg !1446, !nonnull !28
  %218 = getelementptr inbounds i1 ({}*, [0 x i8]*, i64)*, i1 ({}*, [0 x i8]*, i64)** %217, i64 3, !dbg !1446
  %219 = load i1 ({}*, [0 x i8]*, i64)*, i1 ({}*, [0 x i8]*, i64)** %218, align 8, !dbg !1446, !invariant.load !28, !nonnull !28
  %220 = tail call zeroext i1 %219({}* nonnull align 1 %215, [0 x i8]* noalias nonnull readonly align 1 %4, i64 %5), !dbg !1446
  br i1 %220, label %233, label %221, !dbg !1447

221:                                              ; preds = %214
  %222 = load {}*, {}** %147, align 8, !dbg !1448, !nonnull !28
  %223 = load [3 x i64]*, [3 x i64]** %148, align 8, !dbg !1448, !nonnull !28
  %224 = getelementptr inbounds [3 x i64], [3 x i64]* %223, i64 0, i64 4, !dbg !1449
  %225 = bitcast i64* %224 to i1 ({}*, i32)**, !dbg !1449
  br label %226, !dbg !1451

226:                                              ; preds = %229, %221
  %227 = phi i64 [ 0, %221 ], [ %230, %229 ], !dbg !1449
  %228 = icmp eq i64 %227, %145, !dbg !1452
  br i1 %228, label %233, label %229, !dbg !1455

229:                                              ; preds = %226
  %230 = add i64 %227, 1, !dbg !1456
  %231 = load i1 ({}*, i32)*, i1 ({}*, i32)** %225, align 8, !dbg !1459, !invariant.load !28, !alias.scope !1460, !nonnull !28
  %232 = tail call zeroext i1 %231({}* nonnull align 1 %222, i32 %212), !dbg !1459, !noalias !1460
  br i1 %232, label %233, label %226, !dbg !1463

233:                                              ; preds = %229, %226, %214, %211, %210, %206, %190, %182, %154, %126, %117, %112, %99, %97
  %234 = phi i1 [ %107, %99 ], [ %125, %117 ], [ false, %210 ], [ true, %97 ], [ true, %112 ], [ true, %126 ], [ true, %190 ], [ true, %211 ], [ true, %214 ], [ true, %229 ], [ false, %226 ], [ true, %154 ], [ true, %206 ], [ true, %182 ], !dbg !1231
  ret i1 %234, !dbg !1464
}

; Function Attrs: argmemonly nounwind willreturn
declare void @llvm.lifetime.end.p0i8(i64 immarg, i8* nocapture) #7

; Function Attrs: nounwind readnone willreturn
declare i64 @llvm.experimental.vector.reduce.add.v2i64(<2 x i64>) #9

; Function Attrs: noinline nounwind nonlazybind uwtable
define internal fastcc zeroext i1 @_ZN4core3fmt9Formatter12pad_integral12write_prefix17h89d94f6859d81915E(%"core::fmt::Formatter"* nocapture readonly align 8 dereferenceable(64) %0, i32 %1, i8* noalias readonly align 1 %2, i64 %3) unnamed_addr #14 !dbg !1465 {
  %5 = icmp eq i32 %1, 1114112, !dbg !1467
  br i1 %5, label %15, label %6, !dbg !1467

6:                                                ; preds = %4
  %7 = getelementptr inbounds %"core::fmt::Formatter", %"core::fmt::Formatter"* %0, i64 0, i32 5, i32 0, !dbg !1468
  %8 = load {}*, {}** %7, align 8, !dbg !1468, !nonnull !28
  %9 = getelementptr inbounds %"core::fmt::Formatter", %"core::fmt::Formatter"* %0, i64 0, i32 5, i32 1, !dbg !1468
  %10 = bitcast [3 x i64]** %9 to i1 ({}*, i32)***, !dbg !1468
  %11 = load i1 ({}*, i32)**, i1 ({}*, i32)*** %10, align 8, !dbg !1468, !nonnull !28
  %12 = getelementptr inbounds i1 ({}*, i32)*, i1 ({}*, i32)** %11, i64 4, !dbg !1468
  %13 = load i1 ({}*, i32)*, i1 ({}*, i32)** %12, align 8, !dbg !1468, !invariant.load !28, !nonnull !28
  %14 = tail call zeroext i1 %13({}* nonnull align 1 %8, i32 %1), !dbg !1468
  br i1 %14, label %27, label %15, !dbg !1469

15:                                               ; preds = %6, %4
  %16 = icmp eq i8* %2, null, !dbg !1470
  br i1 %16, label %27, label %17, !dbg !1470

17:                                               ; preds = %15
  %18 = bitcast i8* %2 to [0 x i8]*, !dbg !1471
  %19 = getelementptr inbounds %"core::fmt::Formatter", %"core::fmt::Formatter"* %0, i64 0, i32 5, i32 0, !dbg !1472
  %20 = load {}*, {}** %19, align 8, !dbg !1472, !nonnull !28
  %21 = getelementptr inbounds %"core::fmt::Formatter", %"core::fmt::Formatter"* %0, i64 0, i32 5, i32 1, !dbg !1472
  %22 = bitcast [3 x i64]** %21 to i1 ({}*, [0 x i8]*, i64)***, !dbg !1472
  %23 = load i1 ({}*, [0 x i8]*, i64)**, i1 ({}*, [0 x i8]*, i64)*** %22, align 8, !dbg !1472, !nonnull !28
  %24 = getelementptr inbounds i1 ({}*, [0 x i8]*, i64)*, i1 ({}*, [0 x i8]*, i64)** %23, i64 3, !dbg !1472
  %25 = load i1 ({}*, [0 x i8]*, i64)*, i1 ({}*, [0 x i8]*, i64)** %24, align 8, !dbg !1472, !invariant.load !28, !nonnull !28
  %26 = tail call zeroext i1 %25({}* nonnull align 1 %20, [0 x i8]* noalias nonnull readonly align 1 %18, i64 %3), !dbg !1472
  br label %27, !dbg !1473

27:                                               ; preds = %17, %15, %6
  %28 = phi i1 [ %26, %17 ], [ false, %15 ], [ true, %6 ]
  ret i1 %28, !dbg !1474
}

; Function Attrs: cold noinline noreturn nounwind nonlazybind uwtable
define internal void @_ZN4core5slice5index26slice_start_index_len_fail17h1218e2e291e3f22cE(i64 %0, i64 %1, %"core::panic::Location"* noalias readonly align 8 dereferenceable(24) %2) unnamed_addr #10 !dbg !1475 {
  %4 = alloca [2 x { i8*, i64* }], align 8
  %5 = alloca %"core::fmt::Arguments", align 8
  %6 = alloca i64, align 8
  %7 = alloca i64, align 8
  store i64 %0, i64* %7, align 8
  store i64 %1, i64* %6, align 8
  %8 = bitcast %"core::fmt::Arguments"* %5 to i8*, !dbg !1478
  %9 = bitcast [2 x { i8*, i64* }]* %4 to i8*, !dbg !1478
  %10 = bitcast [2 x { i8*, i64* }]* %4 to i64**, !dbg !1478
  store i64* %7, i64** %10, align 8, !dbg !1478
  %11 = getelementptr inbounds [2 x { i8*, i64* }], [2 x { i8*, i64* }]* %4, i64 0, i64 0, i32 1, !dbg !1478
  store i64* bitcast (i1 (i64*, %"core::fmt::Formatter"*)* @"_ZN4core3fmt3num3imp52_$LT$impl$u20$core..fmt..Display$u20$for$u20$u64$GT$3fmt17h48d894a52c575073E" to i64*), i64** %11, align 8, !dbg !1478
  %12 = getelementptr inbounds [2 x { i8*, i64* }], [2 x { i8*, i64* }]* %4, i64 0, i64 1, i32 0, !dbg !1478
  %13 = bitcast i8** %12 to i64**, !dbg !1478
  store i64* %6, i64** %13, align 8, !dbg !1478
  %14 = getelementptr inbounds [2 x { i8*, i64* }], [2 x { i8*, i64* }]* %4, i64 0, i64 1, i32 1, !dbg !1478
  store i64* bitcast (i1 (i64*, %"core::fmt::Formatter"*)* @"_ZN4core3fmt3num3imp52_$LT$impl$u20$core..fmt..Display$u20$for$u20$u64$GT$3fmt17h48d894a52c575073E" to i64*), i64** %14, align 8, !dbg !1478
  %15 = bitcast %"core::fmt::Arguments"* %5 to [0 x { [0 x i8]*, i64 }]**, !dbg !1479
  store [0 x { [0 x i8]*, i64 }]* bitcast (<{ i8*, [8 x i8], i8*, [8 x i8] }>* @anon.965c706604096d42e5b155eaa3c30edf.245 to [0 x { [0 x i8]*, i64 }]*), [0 x { [0 x i8]*, i64 }]** %15, align 8, !dbg !1479, !alias.scope !1481, !noalias !1484
  %16 = getelementptr inbounds %"core::fmt::Arguments", %"core::fmt::Arguments"* %5, i64 0, i32 1, i32 1, !dbg !1479
  store i64 2, i64* %16, align 8, !dbg !1479, !alias.scope !1481, !noalias !1484
  %17 = getelementptr inbounds %"core::fmt::Arguments", %"core::fmt::Arguments"* %5, i64 0, i32 3, i32 0, !dbg !1479
  store i64* null, i64** %17, align 8, !dbg !1479, !alias.scope !1481, !noalias !1484
  %18 = getelementptr inbounds %"core::fmt::Arguments", %"core::fmt::Arguments"* %5, i64 0, i32 5, i32 0, !dbg !1479
  %19 = bitcast [0 x { i8*, i64* }]** %18 to [2 x { i8*, i64* }]**, !dbg !1479
  store [2 x { i8*, i64* }]* %4, [2 x { i8*, i64* }]** %19, align 8, !dbg !1479, !alias.scope !1481, !noalias !1484
  %20 = getelementptr inbounds %"core::fmt::Arguments", %"core::fmt::Arguments"* %5, i64 0, i32 5, i32 1, !dbg !1479
  store i64 2, i64* %20, align 8, !dbg !1479, !alias.scope !1481, !noalias !1484
  call void @_ZN4core9panicking9panic_fmt17hcd56f7f635f62c74E(%"core::fmt::Arguments"* noalias nocapture nonnull dereferenceable(48) %5, %"core::panic::Location"* noalias nonnull readonly align 8 dereferenceable(24) %2), !dbg !1478
  unreachable, !dbg !1478
}

; Function Attrs: norecurse nounwind nonlazybind readonly uwtable
define internal zeroext i1 @_ZN4core3fmt9Formatter15debug_lower_hex17hb9158b04f1f1b6d1E(%"core::fmt::Formatter"* noalias nocapture readonly align 8 dereferenceable(64) %0) unnamed_addr #15 !dbg !1487 {
  %2 = getelementptr inbounds %"core::fmt::Formatter", %"core::fmt::Formatter"* %0, i64 0, i32 7, !dbg !1488
  %3 = load i32, i32* %2, align 8, !dbg !1488
  %4 = and i32 %3, 16, !dbg !1488
  %5 = icmp ne i32 %4, 0, !dbg !1488
  ret i1 %5, !dbg !1489
}

; Function Attrs: norecurse nounwind nonlazybind readonly uwtable
define internal zeroext i1 @_ZN4core3fmt9Formatter15debug_upper_hex17hdbac3cb457cbbe5cE(%"core::fmt::Formatter"* noalias nocapture readonly align 8 dereferenceable(64) %0) unnamed_addr #15 !dbg !1490 {
  %2 = getelementptr inbounds %"core::fmt::Formatter", %"core::fmt::Formatter"* %0, i64 0, i32 7, !dbg !1491
  %3 = load i32, i32* %2, align 8, !dbg !1491
  %4 = and i32 %3, 32, !dbg !1491
  %5 = icmp ne i32 %4, 0, !dbg !1491
  ret i1 %5, !dbg !1492
}

; Function Attrs: nounwind nonlazybind uwtable
define internal zeroext i1 @"_ZN4core3fmt3num53_$LT$impl$u20$core..fmt..LowerHex$u20$for$u20$i32$GT$3fmt17hae0ef2c5a0a98ae0E"(i32* noalias nocapture readonly align 4 dereferenceable(4) %0, %"core::fmt::Formatter"* nocapture align 8 dereferenceable(64) %1) unnamed_addr #11 !dbg !1493 {
  %3 = alloca [128 x i8], align 1
  %4 = load i32, i32* %0, align 4, !dbg !1494
  %5 = getelementptr inbounds [128 x i8], [128 x i8]* %3, i64 0, i64 0, !dbg !1495
  %6 = call i8* @memset(i8* %5, i32 0, i64 128), !dbg !1499
  %7 = getelementptr inbounds [128 x i8], [128 x i8]* %3, i64 0, i64 128, !dbg !1500
  br label %8, !dbg !1510

8:                                                ; preds = %8, %2
  %9 = phi i8* [ %7, %2 ], [ %12, %8 ], !dbg !1511
  %10 = phi i32 [ %4, %2 ], [ %13, %8 ]
  %11 = phi i64 [ 128, %2 ], [ %20, %8 ], !dbg !1512
  %12 = getelementptr inbounds i8, i8* %9, i64 -1, !dbg !1513
  %13 = lshr i32 %10, 4, !dbg !1524
  %14 = trunc i32 %10 to i8, !dbg !1527
  %15 = and i8 %14, 15, !dbg !1527
  %16 = icmp ult i8 %15, 10
  %17 = or i8 %15, 48, !dbg !1530
  %18 = add nuw nsw i8 %15, 87, !dbg !1530
  %19 = select i1 %16, i8 %17, i8 %18, !dbg !1530
  store i8 %19, i8* %12, align 1, !dbg !1533
  %20 = add nsw i64 %11, -1, !dbg !1538
  %21 = icmp eq i32 %13, 0, !dbg !1539
  br i1 %21, label %22, label %8, !dbg !1542

22:                                               ; preds = %8
  %23 = icmp ugt i64 %20, 128, !dbg !1543
  br i1 %23, label %24, label %25, !dbg !1554

24:                                               ; preds = %22
  tail call void @_ZN4core5slice5index26slice_start_index_len_fail17h1218e2e291e3f22cE(i64 %20, i64 128, %"core::panic::Location"* noalias readonly align 8 dereferenceable(24) bitcast (<{ i8*, [16 x i8] }>* @anon.965c706604096d42e5b155eaa3c30edf.219 to %"core::panic::Location"*)), !dbg !1555
  unreachable, !dbg !1555

25:                                               ; preds = %22
  %26 = getelementptr inbounds [128 x i8], [128 x i8]* %3, i64 0, i64 %20, !dbg !1556
  %27 = sub nuw nsw i64 129, %11, !dbg !1565
  %28 = bitcast i8* %26 to [0 x i8]*, !dbg !1566
  %29 = call zeroext i1 @_ZN4core3fmt9Formatter12pad_integral17h0f9951fc9f2b13b4E(%"core::fmt::Formatter"* nonnull align 8 dereferenceable(64) %1, i1 zeroext true, [0 x i8]* noalias nonnull readonly align 1 bitcast (<{ [2 x i8] }>* @anon.965c706604096d42e5b155eaa3c30edf.222 to [0 x i8]*), i64 2, [0 x i8]* noalias nonnull readonly align 1 %28, i64 %27), !dbg !1569
  ret i1 %29, !dbg !1570
}

; Function Attrs: nounwind nonlazybind uwtable
define internal zeroext i1 @"_ZN4core3fmt3num53_$LT$impl$u20$core..fmt..UpperHex$u20$for$u20$i32$GT$3fmt17hd6bd52d94c3c8cbcE"(i32* noalias nocapture readonly align 4 dereferenceable(4) %0, %"core::fmt::Formatter"* nocapture align 8 dereferenceable(64) %1) unnamed_addr #11 !dbg !1571 {
  %3 = alloca [128 x i8], align 1
  %4 = load i32, i32* %0, align 4, !dbg !1572
  %5 = getelementptr inbounds [128 x i8], [128 x i8]* %3, i64 0, i64 0, !dbg !1573
  %6 = call i8* @memset(i8* %5, i32 0, i64 128), !dbg !1576
  %7 = getelementptr inbounds [128 x i8], [128 x i8]* %3, i64 0, i64 128, !dbg !1577
  br label %8, !dbg !1582

8:                                                ; preds = %8, %2
  %9 = phi i8* [ %7, %2 ], [ %12, %8 ], !dbg !1583
  %10 = phi i32 [ %4, %2 ], [ %13, %8 ]
  %11 = phi i64 [ 128, %2 ], [ %20, %8 ], !dbg !1584
  %12 = getelementptr inbounds i8, i8* %9, i64 -1, !dbg !1585
  %13 = lshr i32 %10, 4, !dbg !1590
  %14 = trunc i32 %10 to i8, !dbg !1592
  %15 = and i8 %14, 15, !dbg !1592
  %16 = icmp ult i8 %15, 10
  %17 = or i8 %15, 48, !dbg !1594
  %18 = add nuw nsw i8 %15, 55, !dbg !1594
  %19 = select i1 %16, i8 %17, i8 %18, !dbg !1594
  store i8 %19, i8* %12, align 1, !dbg !1597
  %20 = add nsw i64 %11, -1, !dbg !1599
  %21 = icmp eq i32 %13, 0, !dbg !1600
  br i1 %21, label %22, label %8, !dbg !1602

22:                                               ; preds = %8
  %23 = icmp ugt i64 %20, 128, !dbg !1603
  br i1 %23, label %24, label %25, !dbg !1607

24:                                               ; preds = %22
  tail call void @_ZN4core5slice5index26slice_start_index_len_fail17h1218e2e291e3f22cE(i64 %20, i64 128, %"core::panic::Location"* noalias readonly align 8 dereferenceable(24) bitcast (<{ i8*, [16 x i8] }>* @anon.965c706604096d42e5b155eaa3c30edf.219 to %"core::panic::Location"*)), !dbg !1608
  unreachable, !dbg !1608

25:                                               ; preds = %22
  %26 = getelementptr inbounds [128 x i8], [128 x i8]* %3, i64 0, i64 %20, !dbg !1609
  %27 = sub nuw nsw i64 129, %11, !dbg !1614
  %28 = bitcast i8* %26 to [0 x i8]*, !dbg !1615
  %29 = call zeroext i1 @_ZN4core3fmt9Formatter12pad_integral17h0f9951fc9f2b13b4E(%"core::fmt::Formatter"* nonnull align 8 dereferenceable(64) %1, i1 zeroext true, [0 x i8]* noalias nonnull readonly align 1 bitcast (<{ [2 x i8] }>* @anon.965c706604096d42e5b155eaa3c30edf.222 to [0 x i8]*), i64 2, [0 x i8]* noalias nonnull readonly align 1 %28, i64 %27), !dbg !1618
  ret i1 %29, !dbg !1619
}

; Function Attrs: nounwind nonlazybind uwtable
define internal zeroext i1 @"_ZN4core3fmt3num3imp52_$LT$impl$u20$core..fmt..Display$u20$for$u20$i32$GT$3fmt17h5d8dde62d565a4afE"(i32* noalias nocapture readonly align 4 dereferenceable(4) %0, %"core::fmt::Formatter"* nocapture align 8 dereferenceable(64) %1) unnamed_addr #11 !dbg !1620 {
  %3 = alloca [39 x i8], align 1
  %4 = load i32, i32* %0, align 4, !dbg !1621
  %5 = icmp sgt i32 %4, -1, !dbg !1621
  %6 = sext i32 %4 to i64, !dbg !1622
  %7 = sub nsw i64 0, %6, !dbg !1625
  %8 = select i1 %5, i64 %6, i64 %7, !dbg !1625
  %9 = getelementptr inbounds [39 x i8], [39 x i8]* %3, i64 0, i64 0, !dbg !1626
  %10 = call i8* @memset(i8* %9, i32 0, i64 39), !dbg !1628
  %11 = icmp ugt i64 %8, 9999, !dbg !1629
  br i1 %11, label %16, label %12, !dbg !1630

12:                                               ; preds = %16, %2
  %13 = phi i64 [ 39, %2 ], [ %28, %16 ], !dbg !1631
  %14 = phi i64 [ %8, %2 ], [ %20, %16 ]
  %15 = icmp ugt i64 %14, 99, !dbg !1632
  br i1 %15, label %41, label %54, !dbg !1633

16:                                               ; preds = %16, %2
  %17 = phi i64 [ %20, %16 ], [ %8, %2 ]
  %18 = phi i64 [ %28, %16 ], [ 39, %2 ]
  %19 = urem i64 %17, 10000, !dbg !1634
  %20 = udiv i64 %17, 10000, !dbg !1635
  %21 = trunc i64 %19 to i16, !dbg !1636
  %22 = udiv i16 %21, 100, !dbg !1636
  %23 = shl nuw nsw i16 %22, 1, !dbg !1636
  %24 = zext i16 %23 to i64, !dbg !1636
  %25 = urem i16 %21, 100, !dbg !1637
  %26 = shl nuw nsw i16 %25, 1, !dbg !1637
  %27 = zext i16 %26 to i64, !dbg !1637
  %28 = add i64 %18, -4, !dbg !1638
  %29 = getelementptr inbounds <{ [200 x i8] }>, <{ [200 x i8] }>* @anon.965c706604096d42e5b155eaa3c30edf.223, i64 0, i32 0, i64 %24, !dbg !1639
  %30 = getelementptr inbounds [39 x i8], [39 x i8]* %3, i64 0, i64 %28, !dbg !1641
  %31 = bitcast i8* %29 to i16*, !dbg !1643
  %32 = bitcast i8* %30 to i16*, !dbg !1643
  %33 = load i16, i16* %31, align 1, !dbg !1643
  store i16 %33, i16* %32, align 1, !dbg !1643
  %34 = getelementptr inbounds <{ [200 x i8] }>, <{ [200 x i8] }>* @anon.965c706604096d42e5b155eaa3c30edf.223, i64 0, i32 0, i64 %27, !dbg !1645
  %35 = add nsw i64 %18, -2, !dbg !1647
  %36 = getelementptr inbounds [39 x i8], [39 x i8]* %3, i64 0, i64 %35, !dbg !1648
  %37 = bitcast i8* %34 to i16*, !dbg !1650
  %38 = bitcast i8* %36 to i16*, !dbg !1650
  %39 = load i16, i16* %37, align 1, !dbg !1650
  store i16 %39, i16* %38, align 1, !dbg !1650
  %40 = icmp ugt i64 %17, 99999999, !dbg !1629
  br i1 %40, label %16, label %12, !dbg !1630

41:                                               ; preds = %12
  %42 = trunc i64 %14 to i16, !dbg !1652
  %43 = urem i16 %42, 100, !dbg !1652
  %44 = shl nuw nsw i16 %43, 1, !dbg !1652
  %45 = zext i16 %44 to i64, !dbg !1652
  %46 = udiv i16 %42, 100, !dbg !1653
  %47 = zext i16 %46 to i64, !dbg !1653
  %48 = add i64 %13, -2, !dbg !1654
  %49 = getelementptr inbounds <{ [200 x i8] }>, <{ [200 x i8] }>* @anon.965c706604096d42e5b155eaa3c30edf.223, i64 0, i32 0, i64 %45, !dbg !1655
  %50 = getelementptr inbounds [39 x i8], [39 x i8]* %3, i64 0, i64 %48, !dbg !1657
  %51 = bitcast i8* %49 to i16*, !dbg !1659
  %52 = bitcast i8* %50 to i16*, !dbg !1659
  %53 = load i16, i16* %51, align 1, !dbg !1659
  store i16 %53, i16* %52, align 1, !dbg !1659
  br label %54, !dbg !1633

54:                                               ; preds = %41, %12
  %55 = phi i64 [ %47, %41 ], [ %14, %12 ], !dbg !1631
  %56 = phi i64 [ %48, %41 ], [ %13, %12 ], !dbg !1631
  %57 = icmp slt i64 %55, 10, !dbg !1661
  br i1 %57, label %58, label %63, !dbg !1662

58:                                               ; preds = %54
  %59 = add i64 %56, -1, !dbg !1663
  %60 = trunc i64 %55 to i8, !dbg !1664
  %61 = getelementptr inbounds [39 x i8], [39 x i8]* %3, i64 0, i64 %59, !dbg !1665
  %62 = add nuw nsw i8 %60, 48, !dbg !1667
  store i8 %62, i8* %61, align 1, !dbg !1667
  br label %71, !dbg !1662

63:                                               ; preds = %54
  %64 = shl nuw nsw i64 %55, 1, !dbg !1668
  %65 = add i64 %56, -2, !dbg !1669
  %66 = getelementptr inbounds <{ [200 x i8] }>, <{ [200 x i8] }>* @anon.965c706604096d42e5b155eaa3c30edf.223, i64 0, i32 0, i64 %64, !dbg !1670
  %67 = getelementptr inbounds [39 x i8], [39 x i8]* %3, i64 0, i64 %65, !dbg !1672
  %68 = bitcast i8* %66 to i16*, !dbg !1674
  %69 = bitcast i8* %67 to i16*, !dbg !1674
  %70 = load i16, i16* %68, align 1, !dbg !1674
  store i16 %70, i16* %69, align 1, !dbg !1674
  br label %71, !dbg !1662

71:                                               ; preds = %63, %58
  %72 = phi i64 [ %59, %58 ], [ %65, %63 ], !dbg !1631
  %73 = getelementptr inbounds [39 x i8], [39 x i8]* %3, i64 0, i64 %72, !dbg !1676
  %74 = sub i64 39, %72, !dbg !1678
  %75 = bitcast i8* %73 to [0 x i8]*, !dbg !1679
  %76 = call zeroext i1 @_ZN4core3fmt9Formatter12pad_integral17h0f9951fc9f2b13b4E(%"core::fmt::Formatter"* nonnull align 8 dereferenceable(64) %1, i1 zeroext %5, [0 x i8]* noalias nonnull readonly align 1 getelementptr inbounds (<{ [0 x i8] }>, <{ [0 x i8] }>* @anon.965c706604096d42e5b155eaa3c30edf.12, i32 0, i32 0), i64 0, [0 x i8]* noalias nonnull readonly align 1 %75, i64 %74), !dbg !1682
  ret i1 %76, !dbg !1683
}

; Function Attrs: inlinehint norecurse nounwind nonlazybind readnone
define internal nonnull i8* @"_ZN4core5slice29_$LT$impl$u20$$u5b$T$u5d$$GT$6as_ptr17hc11cd399229b063eE"([0 x i8]* noalias nonnull readonly align 1 %0, i64 %1) unnamed_addr #1 !dbg !1684 {
  %3 = alloca { [0 x i8]*, i64 }, align 8
  %4 = getelementptr inbounds { [0 x i8]*, i64 }, { [0 x i8]*, i64 }* %3, i32 0, i32 0
  store [0 x i8]* %0, [0 x i8]** %4, align 8
  %5 = getelementptr inbounds { [0 x i8]*, i64 }, { [0 x i8]*, i64 }* %3, i32 0, i32 1
  store i64 %1, i64* %5, align 8
  call void @llvm.dbg.declare(metadata { [0 x i8]*, i64 }* %3, metadata !1693, metadata !DIExpression()), !dbg !1696
  %6 = bitcast [0 x i8]* %0 to i8*, !dbg !1697
  ret i8* %6, !dbg !1698
}

; Function Attrs: inlinehint norecurse nounwind nonlazybind readnone
define internal i8* @"_ZN4core3ptr7mut_ptr31_$LT$impl$u20$$BP$mut$u20$T$GT$3add17h90e417d9863cb405E"(i8* %0, i64 %1) unnamed_addr #1 !dbg !1699 {
  %3 = alloca i64, align 8
  %4 = alloca i8*, align 8
  store i8* %0, i8** %4, align 8
  call void @llvm.dbg.declare(metadata i8** %4, metadata !1704, metadata !DIExpression()), !dbg !1708
  store i64 %1, i64* %3, align 8
  call void @llvm.dbg.declare(metadata i64* %3, metadata !1705, metadata !DIExpression()), !dbg !1709
  %5 = call i8* @"_ZN4core3ptr7mut_ptr31_$LT$impl$u20$$BP$mut$u20$T$GT$6offset17h0b3ce97c1f0a282eE"(i8* %0, i64 %1), !dbg !1710
  ret i8* %5, !dbg !1711
}

; Function Attrs: inlinehint nounwind nonlazybind
define internal void @_ZN4core10intrinsics19copy_nonoverlapping17h7df68daedec6b3d5E(i8* %0, i8* %1, i64 %2) unnamed_addr #2 !dbg !1712 {
  %4 = alloca i64, align 8
  %5 = alloca i8*, align 8
  %6 = alloca i8*, align 8
  store i8* %0, i8** %6, align 8
  call void @llvm.dbg.declare(metadata i8** %6, metadata !1716, metadata !DIExpression()), !dbg !1719
  store i8* %1, i8** %5, align 8
  call void @llvm.dbg.declare(metadata i8** %5, metadata !1717, metadata !DIExpression()), !dbg !1720
  store i64 %2, i64* %4, align 8
  call void @llvm.dbg.declare(metadata i64* %4, metadata !1718, metadata !DIExpression()), !dbg !1721
  %7 = mul i64 1, %2, !dbg !1722
  %8 = call i8* @memcpy(i8* %1, i8* %0, i64 %7), !dbg !1722
  ret void, !dbg !1723
}

; Function Attrs: inlinehint norecurse nounwind nonlazybind readnone
define internal i8* @"_ZN4core3ptr7mut_ptr31_$LT$impl$u20$$BP$mut$u20$T$GT$6offset17h0b3ce97c1f0a282eE"(i8* %0, i64 %1) unnamed_addr #1 !dbg !1724 {
  %3 = alloca i8*, align 8
  %4 = alloca i64, align 8
  %5 = alloca i8*, align 8
  store i8* %0, i8** %5, align 8
  call void @llvm.dbg.declare(metadata i8** %5, metadata !1729, metadata !DIExpression()), !dbg !1731
  store i64 %1, i64* %4, align 8
  call void @llvm.dbg.declare(metadata i64* %4, metadata !1730, metadata !DIExpression()), !dbg !1732
  %6 = getelementptr inbounds i8, i8* %0, i64 %1, !dbg !1733
  store i8* %6, i8** %3, align 8, !dbg !1733
  %7 = load i8*, i8** %3, align 8, !dbg !1733
  ret i8* %7, !dbg !1734
}

; Function Attrs: noinline noreturn nounwind nonlazybind
define internal void @rust_begin_unwind(%"panic::PanicInfo"* noalias readonly align 8 dereferenceable(32) %0) unnamed_addr #16 !dbg !1735 {
  %2 = alloca %"panic::PanicInfo"*, align 8
  store %"panic::PanicInfo"* %0, %"panic::PanicInfo"** %2, align 8
  call void @llvm.dbg.declare(metadata %"panic::PanicInfo"** %2, metadata !1861, metadata !DIExpression()), !dbg !1862
  call void @abort(), !dbg !1863
  unreachable, !dbg !1863
}

; Function Attrs: alwaysinline noreturn nounwind nonlazybind
declare void @abort() unnamed_addr #17

; Function Attrs: noinline nounwind uwtable
define dso_local i8* @memcpy(i8* %0, i8* %1, i64 %2) #18 !dbg !1864 {
  %4 = alloca i8*, align 8
  %5 = alloca i8*, align 8
  %6 = alloca i64, align 8
  %7 = alloca i8*, align 8
  %8 = alloca i8*, align 8
  store i8* %0, i8** %4, align 8
  call void @llvm.dbg.declare(metadata i8** %4, metadata !1874, metadata !DIExpression()), !dbg !1875
  store i8* %1, i8** %5, align 8
  call void @llvm.dbg.declare(metadata i8** %5, metadata !1876, metadata !DIExpression()), !dbg !1877
  store i64 %2, i64* %6, align 8
  call void @llvm.dbg.declare(metadata i64* %6, metadata !1878, metadata !DIExpression()), !dbg !1879
  call void @llvm.dbg.declare(metadata i8** %7, metadata !1880, metadata !DIExpression()), !dbg !1883
  %9 = load i8*, i8** %4, align 8, !dbg !1884
  store i8* %9, i8** %7, align 8, !dbg !1883
  call void @llvm.dbg.declare(metadata i8** %8, metadata !1885, metadata !DIExpression()), !dbg !1888
  %10 = load i8*, i8** %5, align 8, !dbg !1889
  store i8* %10, i8** %8, align 8, !dbg !1888
  br label %11, !dbg !1890

11:                                               ; preds = %15, %3
  %12 = load i64, i64* %6, align 8, !dbg !1891
  %13 = add i64 %12, -1, !dbg !1891
  store i64 %13, i64* %6, align 8, !dbg !1891
  %14 = icmp ugt i64 %12, 0, !dbg !1892
  br i1 %14, label %15, label %21, !dbg !1890

15:                                               ; preds = %11
  %16 = load i8*, i8** %8, align 8, !dbg !1893
  %17 = getelementptr inbounds i8, i8* %16, i32 1, !dbg !1893
  store i8* %17, i8** %8, align 8, !dbg !1893
  %18 = load i8, i8* %16, align 1, !dbg !1894
  %19 = load i8*, i8** %7, align 8, !dbg !1895
  %20 = getelementptr inbounds i8, i8* %19, i32 1, !dbg !1895
  store i8* %20, i8** %7, align 8, !dbg !1895
  store i8 %18, i8* %19, align 1, !dbg !1896
  br label %11, !dbg !1890, !llvm.loop !1897

21:                                               ; preds = %11
  %22 = load i8*, i8** %4, align 8, !dbg !1898
  ret i8* %22, !dbg !1899
}

; Function Attrs: noinline nounwind uwtable
define dso_local i8* @memset(i8* %0, i32 %1, i64 %2) #18 !dbg !1900 {
  %4 = alloca i8*, align 8
  %5 = alloca i32, align 4
  %6 = alloca i64, align 8
  %7 = alloca i8*, align 8
  store i8* %0, i8** %4, align 8
  call void @llvm.dbg.declare(metadata i8** %4, metadata !1905, metadata !DIExpression()), !dbg !1906
  store i32 %1, i32* %5, align 4
  call void @llvm.dbg.declare(metadata i32* %5, metadata !1907, metadata !DIExpression()), !dbg !1908
  store i64 %2, i64* %6, align 8
  call void @llvm.dbg.declare(metadata i64* %6, metadata !1909, metadata !DIExpression()), !dbg !1910
  call void @llvm.dbg.declare(metadata i8** %7, metadata !1911, metadata !DIExpression()), !dbg !1912
  %8 = load i8*, i8** %4, align 8, !dbg !1913
  store i8* %8, i8** %7, align 8, !dbg !1912
  br label %9, !dbg !1914

9:                                                ; preds = %13, %3
  %10 = load i64, i64* %6, align 8, !dbg !1915
  %11 = add i64 %10, -1, !dbg !1915
  store i64 %11, i64* %6, align 8, !dbg !1915
  %12 = icmp ugt i64 %10, 0, !dbg !1916
  br i1 %12, label %13, label %18, !dbg !1914

13:                                               ; preds = %9
  %14 = load i32, i32* %5, align 4, !dbg !1917
  %15 = trunc i32 %14 to i8, !dbg !1917
  %16 = load i8*, i8** %7, align 8, !dbg !1918
  %17 = getelementptr inbounds i8, i8* %16, i32 1, !dbg !1918
  store i8* %17, i8** %7, align 8, !dbg !1918
  store i8 %15, i8* %16, align 1, !dbg !1919
  br label %9, !dbg !1914, !llvm.loop !1920

18:                                               ; preds = %9
  %19 = load i8*, i8** %4, align 8, !dbg !1921
  ret i8* %19, !dbg !1922
}

attributes #0 = { nounwind nonlazybind "probe-stack"="__rust_probestack" "target-cpu"="x86-64" }
attributes #1 = { inlinehint norecurse nounwind nonlazybind readnone "probe-stack"="__rust_probestack" "target-cpu"="x86-64" }
attributes #2 = { inlinehint nounwind nonlazybind "probe-stack"="__rust_probestack" "target-cpu"="x86-64" }
attributes #3 = { inlinehint norecurse nounwind nonlazybind readonly "probe-stack"="__rust_probestack" "target-cpu"="x86-64" }
attributes #4 = { norecurse nounwind nonlazybind readnone "probe-stack"="__rust_probestack" "target-cpu"="x86-64" }
attributes #5 = { inlinehint nofree norecurse nounwind nonlazybind writeonly "probe-stack"="__rust_probestack" "target-cpu"="x86-64" }
attributes #6 = { nounwind readnone speculatable willreturn }
attributes #7 = { argmemonly nounwind willreturn }
attributes #8 = { nounwind nonlazybind "target-cpu"="x86-64" }
attributes #9 = { nounwind readnone willreturn }
attributes #10 = { cold noinline noreturn nounwind nonlazybind uwtable "probe-stack"="__rust_probestack" "target-cpu"="x86-64" }
attributes #11 = { nounwind nonlazybind uwtable "probe-stack"="__rust_probestack" "target-cpu"="x86-64" }
attributes #12 = { inlinehint norecurse nounwind nonlazybind readnone uwtable "probe-stack"="__rust_probestack" "target-cpu"="x86-64" }
attributes #13 = { norecurse nounwind nonlazybind readnone uwtable "probe-stack"="__rust_probestack" "target-cpu"="x86-64" }
attributes #14 = { noinline nounwind nonlazybind uwtable "probe-stack"="__rust_probestack" "target-cpu"="x86-64" }
attributes #15 = { norecurse nounwind nonlazybind readonly uwtable "probe-stack"="__rust_probestack" "target-cpu"="x86-64" }
attributes #16 = { noinline noreturn nounwind nonlazybind "probe-stack"="__rust_probestack" "target-cpu"="x86-64" }
attributes #17 = { alwaysinline noreturn nounwind nonlazybind "probe-stack"="__rust_probestack" "target-cpu"="x86-64" }
attributes #18 = { noinline nounwind uwtable "correctly-rounded-divide-sqrt-fp-math"="false" "disable-tail-calls"="false" "frame-pointer"="all" "less-precise-fpmad"="false" "min-legal-vector-width"="0" "no-infs-fp-math"="false" "no-jump-tables"="false" "no-nans-fp-math"="false" "no-signed-zeros-fp-math"="false" "no-trapping-math"="false" "stack-protector-buffer-size"="8" "target-cpu"="x86-64" "target-features"="+cx8,+fxsr,+mmx,+sse,+sse2,+x87" "unsafe-fp-math"="false" "use-soft-float"="false" }
attributes #19 = { nounwind }

!llvm.module.flags = !{!0, !1, !2, !3, !4, !5}
!llvm.dbg.cu = !{!6, !26, !29, !62, !64, !66, !383, !386, !388, !390}
!llvm.ident = !{!392, !392}

!0 = !{i32 7, !"PIC Level", i32 2}
!1 = !{i32 7, !"PIE Level", i32 2}
!2 = !{i32 2, !"RtLibUseGOT", i32 1}
!3 = !{i32 2, !"Debug Info Version", i32 3}
!4 = !{i32 7, !"Dwarf Version", i32 4}
!5 = !{i32 1, !"wchar_size", i32 4}
!6 = distinct !DICompileUnit(language: DW_LANG_Rust, file: !7, producer: "clang LLVM (rustc version 1.51.0 (2fd73fabe 2021-03-23))", isOptimized: false, runtimeVersion: 0, emissionKind: FullDebug, enums: !8)
!7 = !DIFile(filename: "src/main.rs", directory: "/home/ubuntu/container-data/fact/target/debug/deps")
!8 = !{!9, !17}
!9 = !DICompositeType(tag: DW_TAG_enumeration_type, name: "Result", scope: !11, file: !10, baseType: !13, size: 8, align: 8, flags: DIFlagEnumClass, elements: !14)
!10 = !DIFile(filename: "<unknown>", directory: "")
!11 = !DINamespace(name: "result", scope: !12)
!12 = !DINamespace(name: "core", scope: null)
!13 = !DIBasicType(name: "u8", size: 8, encoding: DW_ATE_unsigned)
!14 = !{!15, !16}
!15 = !DIEnumerator(name: "Ok", value: 0)
!16 = !DIEnumerator(name: "Err", value: 1)
!17 = !DICompositeType(tag: DW_TAG_enumeration_type, name: "Alignment", scope: !18, file: !10, baseType: !13, size: 8, align: 8, flags: DIFlagEnumClass, elements: !21)
!18 = !DINamespace(name: "v1", scope: !19)
!19 = !DINamespace(name: "rt", scope: !20)
!20 = !DINamespace(name: "fmt", scope: !12)
!21 = !{!22, !23, !24, !25}
!22 = !DIEnumerator(name: "Left", value: 0)
!23 = !DIEnumerator(name: "Right", value: 1)
!24 = !DIEnumerator(name: "Center", value: 2)
!25 = !DIEnumerator(name: "Unknown", value: 3)
!26 = distinct !DICompileUnit(language: DW_LANG_Rust, file: !27, producer: "clang LLVM (rustc version 1.51.0 (2fd73fabe 2021-03-23))", isOptimized: true, runtimeVersion: 0, emissionKind: FullDebug, enums: !28)
!27 = !DIFile(filename: "library/core/src/lib.rs", directory: "/checkout/obj/build/x86_64-unknown-linux-gnu/stage1-std/x86_64-unknown-linux-gnu/release/deps")
!28 = !{}
!29 = distinct !DICompileUnit(language: DW_LANG_Rust, file: !30, producer: "clang LLVM (rustc version 1.51.0 (2fd73fabe 2021-03-23))", isOptimized: false, runtimeVersion: 0, emissionKind: FullDebug, enums: !31, globals: !39)
!30 = !DIFile(filename: "/home/ubuntu/.cargo/registry/src/github.com-1ecc6299db9ec823/cstr_core-0.2.5/src/lib.rs", directory: "/home/ubuntu/container-data/container-data/fact/target/debug/deps")
!31 = !{!9, !17, !32}
!32 = !DICompositeType(tag: DW_TAG_enumeration_type, name: "Ordering", scope: !33, file: !10, baseType: !34, size: 8, align: 8, flags: DIFlagEnumClass, elements: !35)
!33 = !DINamespace(name: "cmp", scope: !12)
!34 = !DIBasicType(name: "i8", size: 8, encoding: DW_ATE_signed)
!35 = !{!36, !37, !38}
!36 = !DIEnumerator(name: "Less", value: -1)
!37 = !DIEnumerator(name: "Equal", value: 0)
!38 = !DIEnumerator(name: "Greater", value: 1)
!39 = !{!40, !58}
!40 = !DIGlobalVariableExpression(var: !41, expr: !DIExpression())
!41 = distinct !DIGlobalVariable(name: "vtable", scope: null, file: !10, type: !42, isLocal: true, isDefinition: true)
!42 = !DICompositeType(tag: DW_TAG_structure_type, name: "vtable", file: !10, align: 64, flags: DIFlagArtificial, elements: !28, vtableHolder: !43, identifier: "vtable")
!43 = !DIDerivedType(tag: DW_TAG_pointer_type, name: "&cstr_core::FromBytesWithNulErrorKind", baseType: !44, size: 64, align: 64, dwarfAddressSpace: 0)
!44 = !DICompositeType(tag: DW_TAG_structure_type, name: "FromBytesWithNulErrorKind", scope: !45, file: !10, size: 128, align: 64, elements: !46, identifier: "bbc6373f6c1b3f34c6d2b514ae57c5d8")
!45 = !DINamespace(name: "cstr_core", scope: null)
!46 = !{!47}
!47 = !DICompositeType(tag: DW_TAG_variant_part, scope: !45, file: !10, size: 128, align: 64, elements: !48, templateParams: !28, identifier: "bbc6373f6c1b3f34c6d2b514ae57c5d8_variant_part", discriminator: !56)
!48 = !{!49, !54}
!49 = !DIDerivedType(tag: DW_TAG_member, name: "InteriorNul", scope: !47, file: !10, baseType: !50, size: 128, align: 64, extraData: i64 0)
!50 = !DICompositeType(tag: DW_TAG_structure_type, name: "InteriorNul", scope: !44, file: !10, size: 128, align: 64, elements: !51, templateParams: !28, identifier: "bbc6373f6c1b3f34c6d2b514ae57c5d8::InteriorNul")
!51 = !{!52}
!52 = !DIDerivedType(tag: DW_TAG_member, name: "__0", scope: !50, file: !10, baseType: !53, size: 64, align: 64, offset: 64)
!53 = !DIBasicType(name: "usize", size: 64, encoding: DW_ATE_unsigned)
!54 = !DIDerivedType(tag: DW_TAG_member, name: "NotNulTerminated", scope: !47, file: !10, baseType: !55, size: 128, align: 64, extraData: i64 1)
!55 = !DICompositeType(tag: DW_TAG_structure_type, name: "NotNulTerminated", scope: !44, file: !10, size: 128, align: 64, elements: !28, templateParams: !28, identifier: "bbc6373f6c1b3f34c6d2b514ae57c5d8::NotNulTerminated")
!56 = !DIDerivedType(tag: DW_TAG_member, scope: !45, file: !10, baseType: !57, size: 64, align: 64, flags: DIFlagArtificial)
!57 = !DIBasicType(name: "u64", size: 64, encoding: DW_ATE_unsigned)
!58 = !DIGlobalVariableExpression(var: !59, expr: !DIExpression())
!59 = distinct !DIGlobalVariable(name: "vtable", scope: null, file: !10, type: !60, isLocal: true, isDefinition: true)
!60 = !DICompositeType(tag: DW_TAG_structure_type, name: "vtable", file: !10, align: 64, flags: DIFlagArtificial, elements: !28, vtableHolder: !61, identifier: "vtable")
!61 = !DIDerivedType(tag: DW_TAG_pointer_type, name: "&usize", baseType: !53, size: 64, align: 64, dwarfAddressSpace: 0)
!62 = distinct !DICompileUnit(language: DW_LANG_Rust, file: !63, producer: "clang LLVM (rustc version 1.51.0 (2fd73fabe 2021-03-23))", isOptimized: false, runtimeVersion: 0, emissionKind: FullDebug, enums: !28)
!63 = !DIFile(filename: "/home/ubuntu/.cargo/registry/src/github.com-1ecc6299db9ec823/cty-0.2.2/src/lib.rs", directory: "/home/ubuntu/container-data/fact/target/debug/deps")
!64 = distinct !DICompileUnit(language: DW_LANG_Rust, file: !65, producer: "clang LLVM (rustc version 1.51.0 (2fd73fabe 2021-03-23))", isOptimized: false, runtimeVersion: 0, emissionKind: FullDebug, enums: !28)
!65 = !DIFile(filename: "/home/ubuntu/.cargo/git/checkouts/klee-sys-7ee2aa8a1a6bbc46/9f462cc/src/lib.rs", directory: "/home/ubuntu/container-data/container-data/fact/target/debug/deps")
!66 = distinct !DICompileUnit(language: DW_LANG_Rust, file: !67, producer: "clang LLVM (rustc version 1.51.0 (2fd73fabe 2021-03-23))", isOptimized: false, runtimeVersion: 0, emissionKind: FullDebug, enums: !68, globals: !90)
!67 = !DIFile(filename: "/home/ubuntu/.cargo/registry/src/github.com-1ecc6299db9ec823/memchr-2.5.0/src/lib.rs", directory: "/home/ubuntu/container-data/fact/target/debug/deps")
!68 = !{!9, !17, !69, !32, !76, !81, !86}
!69 = !DICompositeType(tag: DW_TAG_enumeration_type, name: "Prefilter", scope: !70, file: !10, baseType: !13, size: 8, align: 8, flags: DIFlagEnumClass, elements: !73)
!70 = !DINamespace(name: "prefilter", scope: !71)
!71 = !DINamespace(name: "memmem", scope: !72)
!72 = !DINamespace(name: "memchr", scope: null)
!73 = !{!74, !75}
!74 = !DIEnumerator(name: "None", value: 0)
!75 = !DIEnumerator(name: "Auto", value: 1)
!76 = !DICompositeType(tag: DW_TAG_enumeration_type, name: "SuffixKind", scope: !77, file: !10, baseType: !13, size: 8, align: 8, flags: DIFlagEnumClass, elements: !78)
!77 = !DINamespace(name: "twoway", scope: !71)
!78 = !{!79, !80}
!79 = !DIEnumerator(name: "Minimal", value: 0)
!80 = !DIEnumerator(name: "Maximal", value: 1)
!81 = !DICompositeType(tag: DW_TAG_enumeration_type, name: "SuffixOrdering", scope: !77, file: !10, baseType: !13, size: 8, align: 8, flags: DIFlagEnumClass, elements: !82)
!82 = !{!83, !84, !85}
!83 = !DIEnumerator(name: "Accept", value: 0)
!84 = !DIEnumerator(name: "Skip", value: 1)
!85 = !DIEnumerator(name: "Push", value: 2)
!86 = !DICompositeType(tag: DW_TAG_enumeration_type, name: "Option", scope: !87, file: !10, baseType: !13, size: 8, align: 8, flags: DIFlagEnumClass, elements: !88)
!87 = !DINamespace(name: "option", scope: !12)
!88 = !{!74, !89}
!89 = !DIEnumerator(name: "Some", value: 1)
!90 = !{!91, !95, !147, !149, !157, !161, !165, !169, !194, !198, !202, !206, !211, !220, !224, !288, !317, !321, !325, !329, !336, !340, !343, !347, !351, !355, !359, !363, !367, !371, !375, !379}
!91 = !DIGlobalVariableExpression(var: !92, expr: !DIExpression())
!92 = distinct !DIGlobalVariable(name: "vtable", scope: null, file: !10, type: !93, isLocal: true, isDefinition: true)
!93 = !DICompositeType(tag: DW_TAG_structure_type, name: "vtable", file: !10, align: 64, flags: DIFlagArtificial, elements: !28, vtableHolder: !94, identifier: "vtable")
!94 = !DIDerivedType(tag: DW_TAG_pointer_type, name: "&u8", baseType: !13, size: 64, align: 64, dwarfAddressSpace: 0)
!95 = !DIGlobalVariableExpression(var: !96, expr: !DIExpression())
!96 = distinct !DIGlobalVariable(name: "vtable", scope: null, file: !10, type: !97, isLocal: true, isDefinition: true)
!97 = !DICompositeType(tag: DW_TAG_structure_type, name: "vtable", file: !10, align: 64, flags: DIFlagArtificial, elements: !28, vtableHolder: !98, identifier: "vtable")
!98 = !DIDerivedType(tag: DW_TAG_pointer_type, name: "&memchr::memmem::prefilter::PrefilterFn", baseType: !99, size: 64, align: 64, dwarfAddressSpace: 0)
!99 = !DICompositeType(tag: DW_TAG_structure_type, name: "PrefilterFn", scope: !70, file: !10, size: 64, align: 64, elements: !100, templateParams: !28, identifier: "fd07ce860b35c48843c0eb5698cc8fd9")
!100 = !{!101}
!101 = !DIDerivedType(tag: DW_TAG_member, name: "__0", scope: !99, file: !10, baseType: !102, size: 64, align: 64)
!102 = !DIDerivedType(tag: DW_TAG_pointer_type, name: "unsafe fn(&mut memchr::memmem::prefilter::PrefilterState, &memchr::memmem::NeedleInfo, &[u8], &[u8]) -> core::option::Option<usize>", baseType: !103, size: 64, align: 64, dwarfAddressSpace: 0)
!103 = !DISubroutineType(types: !104)
!104 = !{!105, !118, !124, !142, !142}
!105 = !DICompositeType(tag: DW_TAG_structure_type, name: "Option<usize>", scope: !87, file: !10, size: 128, align: 64, elements: !106, identifier: "9332858134cb740a2a89b17fc22aeac2")
!106 = !{!107}
!107 = !DICompositeType(tag: DW_TAG_variant_part, scope: !87, file: !10, size: 128, align: 64, elements: !108, templateParams: !111, identifier: "9332858134cb740a2a89b17fc22aeac2_variant_part", discriminator: !117)
!108 = !{!109, !113}
!109 = !DIDerivedType(tag: DW_TAG_member, name: "None", scope: !107, file: !10, baseType: !110, size: 128, align: 64, extraData: i64 0)
!110 = !DICompositeType(tag: DW_TAG_structure_type, name: "None", scope: !105, file: !10, size: 128, align: 64, elements: !28, templateParams: !111, identifier: "9332858134cb740a2a89b17fc22aeac2::None")
!111 = !{!112}
!112 = !DITemplateTypeParameter(name: "T", type: !53)
!113 = !DIDerivedType(tag: DW_TAG_member, name: "Some", scope: !107, file: !10, baseType: !114, size: 128, align: 64, extraData: i64 1)
!114 = !DICompositeType(tag: DW_TAG_structure_type, name: "Some", scope: !105, file: !10, size: 128, align: 64, elements: !115, templateParams: !111, identifier: "9332858134cb740a2a89b17fc22aeac2::Some")
!115 = !{!116}
!116 = !DIDerivedType(tag: DW_TAG_member, name: "__0", scope: !114, file: !10, baseType: !53, size: 64, align: 64, offset: 64)
!117 = !DIDerivedType(tag: DW_TAG_member, scope: !87, file: !10, baseType: !57, size: 64, align: 64, flags: DIFlagArtificial)
!118 = !DIDerivedType(tag: DW_TAG_pointer_type, name: "&mut memchr::memmem::prefilter::PrefilterState", baseType: !119, size: 64, align: 64, dwarfAddressSpace: 0)
!119 = !DICompositeType(tag: DW_TAG_structure_type, name: "PrefilterState", scope: !70, file: !10, size: 64, align: 32, elements: !120, templateParams: !28, identifier: "bbd8f00e63457a1f36453a76769a291")
!120 = !{!121, !123}
!121 = !DIDerivedType(tag: DW_TAG_member, name: "skips", scope: !119, file: !10, baseType: !122, size: 32, align: 32)
!122 = !DIBasicType(name: "u32", size: 32, encoding: DW_ATE_unsigned)
!123 = !DIDerivedType(tag: DW_TAG_member, name: "skipped", scope: !119, file: !10, baseType: !122, size: 32, align: 32, offset: 32)
!124 = !DIDerivedType(tag: DW_TAG_pointer_type, name: "&memchr::memmem::NeedleInfo", baseType: !125, size: 64, align: 64, dwarfAddressSpace: 0)
!125 = !DICompositeType(tag: DW_TAG_structure_type, name: "NeedleInfo", scope: !71, file: !10, size: 96, align: 32, elements: !126, templateParams: !28, identifier: "5af3f5f64479f07eeaefa4fa4ef8cc07")
!126 = !{!127, !133}
!127 = !DIDerivedType(tag: DW_TAG_member, name: "rarebytes", scope: !125, file: !10, baseType: !128, size: 16, align: 8, offset: 64)
!128 = !DICompositeType(tag: DW_TAG_structure_type, name: "RareNeedleBytes", scope: !129, file: !10, size: 16, align: 8, elements: !130, templateParams: !28, identifier: "568e7544adcdca1b4e0d1c2b2b58b314")
!129 = !DINamespace(name: "rarebytes", scope: !71)
!130 = !{!131, !132}
!131 = !DIDerivedType(tag: DW_TAG_member, name: "rare1i", scope: !128, file: !10, baseType: !13, size: 8, align: 8)
!132 = !DIDerivedType(tag: DW_TAG_member, name: "rare2i", scope: !128, file: !10, baseType: !13, size: 8, align: 8, offset: 8)
!133 = !DIDerivedType(tag: DW_TAG_member, name: "nhash", scope: !125, file: !10, baseType: !134, size: 64, align: 32)
!134 = !DICompositeType(tag: DW_TAG_structure_type, name: "NeedleHash", scope: !135, file: !10, size: 64, align: 32, elements: !136, templateParams: !28, identifier: "aab7f68e2b084fff376838cc49597435")
!135 = !DINamespace(name: "rabinkarp", scope: !71)
!136 = !{!137, !141}
!137 = !DIDerivedType(tag: DW_TAG_member, name: "hash", scope: !134, file: !10, baseType: !138, size: 32, align: 32)
!138 = !DICompositeType(tag: DW_TAG_structure_type, name: "Hash", scope: !135, file: !10, size: 32, align: 32, elements: !139, templateParams: !28, identifier: "7738aab847299922dc982a6a7a1ca931")
!139 = !{!140}
!140 = !DIDerivedType(tag: DW_TAG_member, name: "__0", scope: !138, file: !10, baseType: !122, size: 32, align: 32)
!141 = !DIDerivedType(tag: DW_TAG_member, name: "hash_2pow", scope: !134, file: !10, baseType: !122, size: 32, align: 32, offset: 32)
!142 = !DICompositeType(tag: DW_TAG_structure_type, name: "&[u8]", file: !10, size: 128, align: 64, elements: !143, templateParams: !28, identifier: "585202bcfc7dfd1dd72e8befe2491ee4")
!143 = !{!144, !146}
!144 = !DIDerivedType(tag: DW_TAG_member, name: "data_ptr", scope: !142, file: !10, baseType: !145, size: 64, align: 64)
!145 = !DIDerivedType(tag: DW_TAG_pointer_type, name: "*const u8", baseType: !13, size: 64, align: 64, dwarfAddressSpace: 0)
!146 = !DIDerivedType(tag: DW_TAG_member, name: "length", scope: !142, file: !10, baseType: !53, size: 64, align: 64, offset: 64)
!147 = !DIGlobalVariableExpression(var: !148, expr: !DIExpression())
!148 = distinct !DIGlobalVariable(name: "vtable", scope: null, file: !10, type: !60, isLocal: true, isDefinition: true)
!149 = !DIGlobalVariableExpression(var: !150, expr: !DIExpression())
!150 = distinct !DIGlobalVariable(name: "vtable", scope: null, file: !10, type: !151, isLocal: true, isDefinition: true)
!151 = !DICompositeType(tag: DW_TAG_structure_type, name: "vtable", file: !10, align: 64, flags: DIFlagArtificial, elements: !28, vtableHolder: !152, identifier: "vtable")
!152 = !DIDerivedType(tag: DW_TAG_pointer_type, name: "&memchr::cow::Imp", baseType: !153, size: 64, align: 64, dwarfAddressSpace: 0)
!153 = !DICompositeType(tag: DW_TAG_structure_type, name: "Imp", scope: !154, file: !10, size: 128, align: 64, elements: !155, templateParams: !28, identifier: "58ced11b3de798ddba581718ea61006d")
!154 = !DINamespace(name: "cow", scope: !72)
!155 = !{!156}
!156 = !DIDerivedType(tag: DW_TAG_member, name: "__0", scope: !153, file: !10, baseType: !142, size: 128, align: 64)
!157 = !DIGlobalVariableExpression(var: !158, expr: !DIExpression())
!158 = distinct !DIGlobalVariable(name: "vtable", scope: null, file: !10, type: !159, isLocal: true, isDefinition: true)
!159 = !DICompositeType(tag: DW_TAG_structure_type, name: "vtable", file: !10, align: 64, flags: DIFlagArtificial, elements: !28, vtableHolder: !160, identifier: "vtable")
!160 = !DIDerivedType(tag: DW_TAG_pointer_type, name: "&&[u8]", baseType: !142, size: 64, align: 64, dwarfAddressSpace: 0)
!161 = !DIGlobalVariableExpression(var: !162, expr: !DIExpression())
!162 = distinct !DIGlobalVariable(name: "vtable", scope: null, file: !10, type: !163, isLocal: true, isDefinition: true)
!163 = !DICompositeType(tag: DW_TAG_structure_type, name: "vtable", file: !10, align: 64, flags: DIFlagArtificial, elements: !28, vtableHolder: !164, identifier: "vtable")
!164 = !DIDerivedType(tag: DW_TAG_pointer_type, name: "&u32", baseType: !122, size: 64, align: 64, dwarfAddressSpace: 0)
!165 = !DIGlobalVariableExpression(var: !166, expr: !DIExpression())
!166 = distinct !DIGlobalVariable(name: "vtable", scope: null, file: !10, type: !167, isLocal: true, isDefinition: true)
!167 = !DICompositeType(tag: DW_TAG_structure_type, name: "vtable", file: !10, align: 64, flags: DIFlagArtificial, elements: !28, vtableHolder: !168, identifier: "vtable")
!168 = !DIDerivedType(tag: DW_TAG_pointer_type, name: "&memchr::memmem::rabinkarp::Hash", baseType: !138, size: 64, align: 64, dwarfAddressSpace: 0)
!169 = !DIGlobalVariableExpression(var: !170, expr: !DIExpression())
!170 = distinct !DIGlobalVariable(name: "vtable", scope: null, file: !10, type: !171, isLocal: true, isDefinition: true)
!171 = !DICompositeType(tag: DW_TAG_structure_type, name: "vtable", file: !10, align: 64, flags: DIFlagArtificial, elements: !28, vtableHolder: !172, identifier: "vtable")
!172 = !DIDerivedType(tag: DW_TAG_pointer_type, name: "&memchr::memmem::twoway::TwoWay", baseType: !173, size: 64, align: 64, dwarfAddressSpace: 0)
!173 = !DICompositeType(tag: DW_TAG_structure_type, name: "TwoWay", scope: !77, file: !10, size: 256, align: 64, elements: !174, templateParams: !28, identifier: "23b0621eed33b04d7b5b8a2cc51f1e8b")
!174 = !{!175, !179, !180}
!175 = !DIDerivedType(tag: DW_TAG_member, name: "byteset", scope: !173, file: !10, baseType: !176, size: 64, align: 64)
!176 = !DICompositeType(tag: DW_TAG_structure_type, name: "ApproximateByteSet", scope: !77, file: !10, size: 64, align: 64, elements: !177, templateParams: !28, identifier: "2d83ca49d78cf4c98c923c9c75035836")
!177 = !{!178}
!178 = !DIDerivedType(tag: DW_TAG_member, name: "__0", scope: !176, file: !10, baseType: !57, size: 64, align: 64)
!179 = !DIDerivedType(tag: DW_TAG_member, name: "critical_pos", scope: !173, file: !10, baseType: !53, size: 64, align: 64, offset: 64)
!180 = !DIDerivedType(tag: DW_TAG_member, name: "shift", scope: !173, file: !10, baseType: !181, size: 128, align: 64, offset: 128)
!181 = !DICompositeType(tag: DW_TAG_structure_type, name: "Shift", scope: !77, file: !10, size: 128, align: 64, elements: !182, identifier: "a2ed7bfc3d2c76de60c1f3753ca9431b")
!182 = !{!183}
!183 = !DICompositeType(tag: DW_TAG_variant_part, scope: !77, file: !10, size: 128, align: 64, elements: !184, templateParams: !28, identifier: "a2ed7bfc3d2c76de60c1f3753ca9431b_variant_part", discriminator: !193)
!184 = !{!185, !189}
!185 = !DIDerivedType(tag: DW_TAG_member, name: "Small", scope: !183, file: !10, baseType: !186, size: 128, align: 64, extraData: i64 0)
!186 = !DICompositeType(tag: DW_TAG_structure_type, name: "Small", scope: !181, file: !10, size: 128, align: 64, elements: !187, templateParams: !28, identifier: "a2ed7bfc3d2c76de60c1f3753ca9431b::Small")
!187 = !{!188}
!188 = !DIDerivedType(tag: DW_TAG_member, name: "period", scope: !186, file: !10, baseType: !53, size: 64, align: 64, offset: 64)
!189 = !DIDerivedType(tag: DW_TAG_member, name: "Large", scope: !183, file: !10, baseType: !190, size: 128, align: 64, extraData: i64 1)
!190 = !DICompositeType(tag: DW_TAG_structure_type, name: "Large", scope: !181, file: !10, size: 128, align: 64, elements: !191, templateParams: !28, identifier: "a2ed7bfc3d2c76de60c1f3753ca9431b::Large")
!191 = !{!192}
!192 = !DIDerivedType(tag: DW_TAG_member, name: "shift", scope: !190, file: !10, baseType: !53, size: 64, align: 64, offset: 64)
!193 = !DIDerivedType(tag: DW_TAG_member, scope: !77, file: !10, baseType: !57, size: 64, align: 64, flags: DIFlagArtificial)
!194 = !DIGlobalVariableExpression(var: !195, expr: !DIExpression())
!195 = distinct !DIGlobalVariable(name: "vtable", scope: null, file: !10, type: !196, isLocal: true, isDefinition: true)
!196 = !DICompositeType(tag: DW_TAG_structure_type, name: "vtable", file: !10, align: 64, flags: DIFlagArtificial, elements: !28, vtableHolder: !197, identifier: "vtable")
!197 = !DIDerivedType(tag: DW_TAG_pointer_type, name: "&memchr::memmem::twoway::ApproximateByteSet", baseType: !176, size: 64, align: 64, dwarfAddressSpace: 0)
!198 = !DIGlobalVariableExpression(var: !199, expr: !DIExpression())
!199 = distinct !DIGlobalVariable(name: "vtable", scope: null, file: !10, type: !200, isLocal: true, isDefinition: true)
!200 = !DICompositeType(tag: DW_TAG_structure_type, name: "vtable", file: !10, align: 64, flags: DIFlagArtificial, elements: !28, vtableHolder: !201, identifier: "vtable")
!201 = !DIDerivedType(tag: DW_TAG_pointer_type, name: "&memchr::memmem::twoway::Shift", baseType: !181, size: 64, align: 64, dwarfAddressSpace: 0)
!202 = !DIGlobalVariableExpression(var: !203, expr: !DIExpression())
!203 = distinct !DIGlobalVariable(name: "vtable", scope: null, file: !10, type: !204, isLocal: true, isDefinition: true)
!204 = !DICompositeType(tag: DW_TAG_structure_type, name: "vtable", file: !10, align: 64, flags: DIFlagArtificial, elements: !28, vtableHolder: !205, identifier: "vtable")
!205 = !DIDerivedType(tag: DW_TAG_pointer_type, name: "&u64", baseType: !57, size: 64, align: 64, dwarfAddressSpace: 0)
!206 = !DIGlobalVariableExpression(var: !207, expr: !DIExpression())
!207 = distinct !DIGlobalVariable(name: "vtable", scope: null, file: !10, type: !208, isLocal: true, isDefinition: true)
!208 = !DICompositeType(tag: DW_TAG_structure_type, name: "vtable", file: !10, align: 64, flags: DIFlagArtificial, elements: !28, vtableHolder: !209, identifier: "vtable")
!209 = !DIDerivedType(tag: DW_TAG_pointer_type, name: "&()", baseType: !210, size: 64, align: 64, dwarfAddressSpace: 0)
!210 = !DIBasicType(name: "()", encoding: DW_ATE_unsigned)
!211 = !DIGlobalVariableExpression(var: !212, expr: !DIExpression())
!212 = distinct !DIGlobalVariable(name: "vtable", scope: null, file: !10, type: !213, isLocal: true, isDefinition: true)
!213 = !DICompositeType(tag: DW_TAG_structure_type, name: "vtable", file: !10, align: 64, flags: DIFlagArtificial, elements: !28, vtableHolder: !214, identifier: "vtable")
!214 = !DIDerivedType(tag: DW_TAG_pointer_type, name: "&memchr::memmem::genericsimd::Forward", baseType: !215, size: 64, align: 64, dwarfAddressSpace: 0)
!215 = !DICompositeType(tag: DW_TAG_structure_type, name: "Forward", scope: !216, file: !10, size: 16, align: 8, elements: !217, templateParams: !28, identifier: "c51590305f9bddbefd6beaf83f340641")
!216 = !DINamespace(name: "genericsimd", scope: !71)
!217 = !{!218, !219}
!218 = !DIDerivedType(tag: DW_TAG_member, name: "rare1i", scope: !215, file: !10, baseType: !13, size: 8, align: 8)
!219 = !DIDerivedType(tag: DW_TAG_member, name: "rare2i", scope: !215, file: !10, baseType: !13, size: 8, align: 8, offset: 8)
!220 = !DIGlobalVariableExpression(var: !221, expr: !DIExpression())
!221 = distinct !DIGlobalVariable(name: "vtable", scope: null, file: !10, type: !222, isLocal: true, isDefinition: true)
!222 = !DICompositeType(tag: DW_TAG_structure_type, name: "vtable", file: !10, align: 64, flags: DIFlagArtificial, elements: !28, vtableHolder: !223, identifier: "vtable")
!223 = !DIDerivedType(tag: DW_TAG_pointer_type, name: "&memchr::memmem::prefilter::PrefilterState", baseType: !119, size: 64, align: 64, dwarfAddressSpace: 0)
!224 = !DIGlobalVariableExpression(var: !225, expr: !DIExpression())
!225 = distinct !DIGlobalVariable(name: "vtable", scope: null, file: !10, type: !226, isLocal: true, isDefinition: true)
!226 = !DICompositeType(tag: DW_TAG_structure_type, name: "vtable", file: !10, align: 64, flags: DIFlagArtificial, elements: !28, vtableHolder: !227, identifier: "vtable")
!227 = !DIDerivedType(tag: DW_TAG_pointer_type, name: "&memchr::memmem::Finder", baseType: !228, size: 64, align: 64, dwarfAddressSpace: 0)
!228 = !DICompositeType(tag: DW_TAG_structure_type, name: "Finder", scope: !71, file: !10, size: 640, align: 64, elements: !229, templateParams: !28, identifier: "1a12c4e35cd74fe35d8bf89955d677c1")
!229 = !{!230}
!230 = !DIDerivedType(tag: DW_TAG_member, name: "searcher", scope: !228, file: !10, baseType: !231, size: 640, align: 64)
!231 = !DICompositeType(tag: DW_TAG_structure_type, name: "Searcher", scope: !71, file: !10, size: 640, align: 64, elements: !232, templateParams: !28, identifier: "188dadce0556bb401fa60c478397a29")
!232 = !{!233, !237, !238, !251}
!233 = !DIDerivedType(tag: DW_TAG_member, name: "needle", scope: !231, file: !10, baseType: !234, size: 128, align: 64)
!234 = !DICompositeType(tag: DW_TAG_structure_type, name: "CowBytes", scope: !154, file: !10, size: 128, align: 64, elements: !235, templateParams: !28, identifier: "50f7d608f4362a9aca35dfc0d50a3b8a")
!235 = !{!236}
!236 = !DIDerivedType(tag: DW_TAG_member, name: "__0", scope: !234, file: !10, baseType: !153, size: 128, align: 64)
!237 = !DIDerivedType(tag: DW_TAG_member, name: "ninfo", scope: !231, file: !10, baseType: !125, size: 96, align: 32, offset: 512)
!238 = !DIDerivedType(tag: DW_TAG_member, name: "prefn", scope: !231, file: !10, baseType: !239, size: 64, align: 64, offset: 128)
!239 = !DICompositeType(tag: DW_TAG_structure_type, name: "Option<memchr::memmem::prefilter::PrefilterFn>", scope: !87, file: !10, size: 64, align: 64, elements: !240, identifier: "3475fe56114027c5c80fb701c8101574")
!240 = !{!241}
!241 = !DICompositeType(tag: DW_TAG_variant_part, scope: !87, file: !10, size: 64, align: 64, elements: !242, templateParams: !245, identifier: "3475fe56114027c5c80fb701c8101574_variant_part", discriminator: !117)
!242 = !{!243, !247}
!243 = !DIDerivedType(tag: DW_TAG_member, name: "None", scope: !241, file: !10, baseType: !244, size: 64, align: 64, extraData: i64 0)
!244 = !DICompositeType(tag: DW_TAG_structure_type, name: "None", scope: !239, file: !10, size: 64, align: 64, elements: !28, templateParams: !245, identifier: "3475fe56114027c5c80fb701c8101574::None")
!245 = !{!246}
!246 = !DITemplateTypeParameter(name: "T", type: !99)
!247 = !DIDerivedType(tag: DW_TAG_member, name: "Some", scope: !241, file: !10, baseType: !248, size: 64, align: 64)
!248 = !DICompositeType(tag: DW_TAG_structure_type, name: "Some", scope: !239, file: !10, size: 64, align: 64, elements: !249, templateParams: !245, identifier: "3475fe56114027c5c80fb701c8101574::Some")
!249 = !{!250}
!250 = !DIDerivedType(tag: DW_TAG_member, name: "__0", scope: !248, file: !10, baseType: !99, size: 64, align: 64)
!251 = !DIDerivedType(tag: DW_TAG_member, name: "kind", scope: !231, file: !10, baseType: !252, size: 320, align: 64, offset: 192)
!252 = !DICompositeType(tag: DW_TAG_structure_type, name: "SearcherKind", scope: !71, file: !10, size: 320, align: 64, elements: !253, identifier: "732e21407fe022dec1be9645a3451af2")
!253 = !{!254}
!254 = !DICompositeType(tag: DW_TAG_variant_part, scope: !71, file: !10, size: 320, align: 64, elements: !255, templateParams: !28, identifier: "732e21407fe022dec1be9645a3451af2_variant_part", discriminator: !287)
!255 = !{!256, !258, !262, !269, !278}
!256 = !DIDerivedType(tag: DW_TAG_member, name: "Empty", scope: !254, file: !10, baseType: !257, size: 320, align: 64, extraData: i64 0)
!257 = !DICompositeType(tag: DW_TAG_structure_type, name: "Empty", scope: !252, file: !10, size: 320, align: 64, elements: !28, templateParams: !28, identifier: "732e21407fe022dec1be9645a3451af2::Empty")
!258 = !DIDerivedType(tag: DW_TAG_member, name: "OneByte", scope: !254, file: !10, baseType: !259, size: 320, align: 64, extraData: i64 1)
!259 = !DICompositeType(tag: DW_TAG_structure_type, name: "OneByte", scope: !252, file: !10, size: 320, align: 64, elements: !260, templateParams: !28, identifier: "732e21407fe022dec1be9645a3451af2::OneByte")
!260 = !{!261}
!261 = !DIDerivedType(tag: DW_TAG_member, name: "__0", scope: !259, file: !10, baseType: !13, size: 8, align: 8, offset: 8)
!262 = !DIDerivedType(tag: DW_TAG_member, name: "TwoWay", scope: !254, file: !10, baseType: !263, size: 320, align: 64, extraData: i64 2)
!263 = !DICompositeType(tag: DW_TAG_structure_type, name: "TwoWay", scope: !252, file: !10, size: 320, align: 64, elements: !264, templateParams: !28, identifier: "732e21407fe022dec1be9645a3451af2::TwoWay")
!264 = !{!265}
!265 = !DIDerivedType(tag: DW_TAG_member, name: "__0", scope: !263, file: !10, baseType: !266, size: 256, align: 64, offset: 64)
!266 = !DICompositeType(tag: DW_TAG_structure_type, name: "Forward", scope: !77, file: !10, size: 256, align: 64, elements: !267, templateParams: !28, identifier: "395fa51d4b607ac6198d875f07048a01")
!267 = !{!268}
!268 = !DIDerivedType(tag: DW_TAG_member, name: "__0", scope: !266, file: !10, baseType: !173, size: 256, align: 64)
!269 = !DIDerivedType(tag: DW_TAG_member, name: "GenericSIMD128", scope: !254, file: !10, baseType: !270, size: 320, align: 64, extraData: i64 3)
!270 = !DICompositeType(tag: DW_TAG_structure_type, name: "GenericSIMD128", scope: !252, file: !10, size: 320, align: 64, elements: !271, templateParams: !28, identifier: "732e21407fe022dec1be9645a3451af2::GenericSIMD128")
!271 = !{!272}
!272 = !DIDerivedType(tag: DW_TAG_member, name: "__0", scope: !270, file: !10, baseType: !273, size: 16, align: 8, offset: 8)
!273 = !DICompositeType(tag: DW_TAG_structure_type, name: "Forward", scope: !274, file: !10, size: 16, align: 8, elements: !276, templateParams: !28, identifier: "47f556755122c256a3ed97946f105192")
!274 = !DINamespace(name: "sse", scope: !275)
!275 = !DINamespace(name: "x86", scope: !71)
!276 = !{!277}
!277 = !DIDerivedType(tag: DW_TAG_member, name: "__0", scope: !273, file: !10, baseType: !215, size: 16, align: 8)
!278 = !DIDerivedType(tag: DW_TAG_member, name: "GenericSIMD256", scope: !254, file: !10, baseType: !279, size: 320, align: 64, extraData: i64 4)
!279 = !DICompositeType(tag: DW_TAG_structure_type, name: "GenericSIMD256", scope: !252, file: !10, size: 320, align: 64, elements: !280, templateParams: !28, identifier: "732e21407fe022dec1be9645a3451af2::GenericSIMD256")
!280 = !{!281}
!281 = !DIDerivedType(tag: DW_TAG_member, name: "__0", scope: !279, file: !10, baseType: !282, align: 8, offset: 8)
!282 = !DICompositeType(tag: DW_TAG_structure_type, name: "Forward", scope: !283, file: !10, align: 8, elements: !285, templateParams: !28, identifier: "f38f341551991a61464cbbeb683c7a2")
!283 = !DINamespace(name: "nostd", scope: !284)
!284 = !DINamespace(name: "avx", scope: !275)
!285 = !{!286}
!286 = !DIDerivedType(tag: DW_TAG_member, name: "__0", scope: !282, file: !10, baseType: !210, align: 8)
!287 = !DIDerivedType(tag: DW_TAG_member, scope: !71, file: !10, baseType: !13, size: 8, align: 8, flags: DIFlagArtificial)
!288 = !DIGlobalVariableExpression(var: !289, expr: !DIExpression())
!289 = distinct !DIGlobalVariable(name: "vtable", scope: null, file: !10, type: !290, isLocal: true, isDefinition: true)
!290 = !DICompositeType(tag: DW_TAG_structure_type, name: "vtable", file: !10, align: 64, flags: DIFlagArtificial, elements: !28, vtableHolder: !291, identifier: "vtable")
!291 = !DIDerivedType(tag: DW_TAG_pointer_type, name: "&memchr::memmem::FinderRev", baseType: !292, size: 64, align: 64, dwarfAddressSpace: 0)
!292 = !DICompositeType(tag: DW_TAG_structure_type, name: "FinderRev", scope: !71, file: !10, size: 512, align: 64, elements: !293, templateParams: !28, identifier: "82cd98a697658b93278e58c11f874c57")
!293 = !{!294}
!294 = !DIDerivedType(tag: DW_TAG_member, name: "searcher", scope: !292, file: !10, baseType: !295, size: 512, align: 64)
!295 = !DICompositeType(tag: DW_TAG_structure_type, name: "SearcherRev", scope: !71, file: !10, size: 512, align: 64, elements: !296, templateParams: !28, identifier: "a5a703a4c6e170542cef61d83ff4491")
!296 = !{!297, !298, !299}
!297 = !DIDerivedType(tag: DW_TAG_member, name: "needle", scope: !295, file: !10, baseType: !234, size: 128, align: 64)
!298 = !DIDerivedType(tag: DW_TAG_member, name: "nhash", scope: !295, file: !10, baseType: !134, size: 64, align: 32, offset: 448)
!299 = !DIDerivedType(tag: DW_TAG_member, name: "kind", scope: !295, file: !10, baseType: !300, size: 320, align: 64, offset: 128)
!300 = !DICompositeType(tag: DW_TAG_structure_type, name: "SearcherRevKind", scope: !71, file: !10, size: 320, align: 64, elements: !301, identifier: "4933a06c2907d5357b9bbcf407b3c56")
!301 = !{!302}
!302 = !DICompositeType(tag: DW_TAG_variant_part, scope: !71, file: !10, size: 320, align: 64, elements: !303, templateParams: !28, identifier: "4933a06c2907d5357b9bbcf407b3c56_variant_part", discriminator: !287)
!303 = !{!304, !306, !310}
!304 = !DIDerivedType(tag: DW_TAG_member, name: "Empty", scope: !302, file: !10, baseType: !305, size: 320, align: 64, extraData: i64 0)
!305 = !DICompositeType(tag: DW_TAG_structure_type, name: "Empty", scope: !300, file: !10, size: 320, align: 64, elements: !28, templateParams: !28, identifier: "4933a06c2907d5357b9bbcf407b3c56::Empty")
!306 = !DIDerivedType(tag: DW_TAG_member, name: "OneByte", scope: !302, file: !10, baseType: !307, size: 320, align: 64, extraData: i64 1)
!307 = !DICompositeType(tag: DW_TAG_structure_type, name: "OneByte", scope: !300, file: !10, size: 320, align: 64, elements: !308, templateParams: !28, identifier: "4933a06c2907d5357b9bbcf407b3c56::OneByte")
!308 = !{!309}
!309 = !DIDerivedType(tag: DW_TAG_member, name: "__0", scope: !307, file: !10, baseType: !13, size: 8, align: 8, offset: 8)
!310 = !DIDerivedType(tag: DW_TAG_member, name: "TwoWay", scope: !302, file: !10, baseType: !311, size: 320, align: 64, extraData: i64 2)
!311 = !DICompositeType(tag: DW_TAG_structure_type, name: "TwoWay", scope: !300, file: !10, size: 320, align: 64, elements: !312, templateParams: !28, identifier: "4933a06c2907d5357b9bbcf407b3c56::TwoWay")
!312 = !{!313}
!313 = !DIDerivedType(tag: DW_TAG_member, name: "__0", scope: !311, file: !10, baseType: !314, size: 256, align: 64, offset: 64)
!314 = !DICompositeType(tag: DW_TAG_structure_type, name: "Reverse", scope: !77, file: !10, size: 256, align: 64, elements: !315, templateParams: !28, identifier: "949d1e5f08421882cb1fc2d8be09b5e5")
!315 = !{!316}
!316 = !DIDerivedType(tag: DW_TAG_member, name: "__0", scope: !314, file: !10, baseType: !173, size: 256, align: 64)
!317 = !DIGlobalVariableExpression(var: !318, expr: !DIExpression())
!318 = distinct !DIGlobalVariable(name: "vtable", scope: null, file: !10, type: !319, isLocal: true, isDefinition: true)
!319 = !DICompositeType(tag: DW_TAG_structure_type, name: "vtable", file: !10, align: 64, flags: DIFlagArtificial, elements: !28, vtableHolder: !320, identifier: "vtable")
!320 = !DIDerivedType(tag: DW_TAG_pointer_type, name: "&core::option::Option<usize>", baseType: !105, size: 64, align: 64, dwarfAddressSpace: 0)
!321 = !DIGlobalVariableExpression(var: !322, expr: !DIExpression())
!322 = distinct !DIGlobalVariable(name: "vtable", scope: null, file: !10, type: !323, isLocal: true, isDefinition: true)
!323 = !DICompositeType(tag: DW_TAG_structure_type, name: "vtable", file: !10, align: 64, flags: DIFlagArtificial, elements: !28, vtableHolder: !324, identifier: "vtable")
!324 = !DIDerivedType(tag: DW_TAG_pointer_type, name: "&memchr::memmem::Searcher", baseType: !231, size: 64, align: 64, dwarfAddressSpace: 0)
!325 = !DIGlobalVariableExpression(var: !326, expr: !DIExpression())
!326 = distinct !DIGlobalVariable(name: "vtable", scope: null, file: !10, type: !327, isLocal: true, isDefinition: true)
!327 = !DICompositeType(tag: DW_TAG_structure_type, name: "vtable", file: !10, align: 64, flags: DIFlagArtificial, elements: !28, vtableHolder: !328, identifier: "vtable")
!328 = !DIDerivedType(tag: DW_TAG_pointer_type, name: "&memchr::memmem::SearcherRev", baseType: !295, size: 64, align: 64, dwarfAddressSpace: 0)
!329 = !DIGlobalVariableExpression(var: !330, expr: !DIExpression())
!330 = distinct !DIGlobalVariable(name: "vtable", scope: null, file: !10, type: !331, isLocal: true, isDefinition: true)
!331 = !DICompositeType(tag: DW_TAG_structure_type, name: "vtable", file: !10, align: 64, flags: DIFlagArtificial, elements: !28, vtableHolder: !332, identifier: "vtable")
!332 = !DIDerivedType(tag: DW_TAG_pointer_type, name: "&memchr::memmem::SearcherConfig", baseType: !333, size: 64, align: 64, dwarfAddressSpace: 0)
!333 = !DICompositeType(tag: DW_TAG_structure_type, name: "SearcherConfig", scope: !71, file: !10, size: 8, align: 8, elements: !334, templateParams: !28, identifier: "cb825a6e9614268a836c3409dbc83fa5")
!334 = !{!335}
!335 = !DIDerivedType(tag: DW_TAG_member, name: "prefilter", scope: !333, file: !10, baseType: !69, size: 8, align: 8)
!336 = !DIGlobalVariableExpression(var: !337, expr: !DIExpression())
!337 = distinct !DIGlobalVariable(name: "vtable", scope: null, file: !10, type: !338, isLocal: true, isDefinition: true)
!338 = !DICompositeType(tag: DW_TAG_structure_type, name: "vtable", file: !10, align: 64, flags: DIFlagArtificial, elements: !28, vtableHolder: !339, identifier: "vtable")
!339 = !DIDerivedType(tag: DW_TAG_pointer_type, name: "&memchr::cow::CowBytes", baseType: !234, size: 64, align: 64, dwarfAddressSpace: 0)
!340 = !DIGlobalVariableExpression(var: !341, expr: !DIExpression())
!341 = distinct !DIGlobalVariable(name: "vtable", scope: null, file: !10, type: !342, isLocal: true, isDefinition: true)
!342 = !DICompositeType(tag: DW_TAG_structure_type, name: "vtable", file: !10, align: 64, flags: DIFlagArtificial, elements: !28, vtableHolder: !124, identifier: "vtable")
!343 = !DIGlobalVariableExpression(var: !344, expr: !DIExpression())
!344 = distinct !DIGlobalVariable(name: "vtable", scope: null, file: !10, type: !345, isLocal: true, isDefinition: true)
!345 = !DICompositeType(tag: DW_TAG_structure_type, name: "vtable", file: !10, align: 64, flags: DIFlagArtificial, elements: !28, vtableHolder: !346, identifier: "vtable")
!346 = !DIDerivedType(tag: DW_TAG_pointer_type, name: "&core::option::Option<memchr::memmem::prefilter::PrefilterFn>", baseType: !239, size: 64, align: 64, dwarfAddressSpace: 0)
!347 = !DIGlobalVariableExpression(var: !348, expr: !DIExpression())
!348 = distinct !DIGlobalVariable(name: "vtable", scope: null, file: !10, type: !349, isLocal: true, isDefinition: true)
!349 = !DICompositeType(tag: DW_TAG_structure_type, name: "vtable", file: !10, align: 64, flags: DIFlagArtificial, elements: !28, vtableHolder: !350, identifier: "vtable")
!350 = !DIDerivedType(tag: DW_TAG_pointer_type, name: "&memchr::memmem::SearcherKind", baseType: !252, size: 64, align: 64, dwarfAddressSpace: 0)
!351 = !DIGlobalVariableExpression(var: !352, expr: !DIExpression())
!352 = distinct !DIGlobalVariable(name: "vtable", scope: null, file: !10, type: !353, isLocal: true, isDefinition: true)
!353 = !DICompositeType(tag: DW_TAG_structure_type, name: "vtable", file: !10, align: 64, flags: DIFlagArtificial, elements: !28, vtableHolder: !354, identifier: "vtable")
!354 = !DIDerivedType(tag: DW_TAG_pointer_type, name: "&memchr::memmem::rarebytes::RareNeedleBytes", baseType: !128, size: 64, align: 64, dwarfAddressSpace: 0)
!355 = !DIGlobalVariableExpression(var: !356, expr: !DIExpression())
!356 = distinct !DIGlobalVariable(name: "vtable", scope: null, file: !10, type: !357, isLocal: true, isDefinition: true)
!357 = !DICompositeType(tag: DW_TAG_structure_type, name: "vtable", file: !10, align: 64, flags: DIFlagArtificial, elements: !28, vtableHolder: !358, identifier: "vtable")
!358 = !DIDerivedType(tag: DW_TAG_pointer_type, name: "&memchr::memmem::rabinkarp::NeedleHash", baseType: !134, size: 64, align: 64, dwarfAddressSpace: 0)
!359 = !DIGlobalVariableExpression(var: !360, expr: !DIExpression())
!360 = distinct !DIGlobalVariable(name: "vtable", scope: null, file: !10, type: !361, isLocal: true, isDefinition: true)
!361 = !DICompositeType(tag: DW_TAG_structure_type, name: "vtable", file: !10, align: 64, flags: DIFlagArtificial, elements: !28, vtableHolder: !362, identifier: "vtable")
!362 = !DIDerivedType(tag: DW_TAG_pointer_type, name: "&memchr::memmem::prefilter::Prefilter", baseType: !69, size: 64, align: 64, dwarfAddressSpace: 0)
!363 = !DIGlobalVariableExpression(var: !364, expr: !DIExpression())
!364 = distinct !DIGlobalVariable(name: "vtable", scope: null, file: !10, type: !365, isLocal: true, isDefinition: true)
!365 = !DICompositeType(tag: DW_TAG_structure_type, name: "vtable", file: !10, align: 64, flags: DIFlagArtificial, elements: !28, vtableHolder: !366, identifier: "vtable")
!366 = !DIDerivedType(tag: DW_TAG_pointer_type, name: "&memchr::memmem::x86::avx::nostd::Forward", baseType: !282, size: 64, align: 64, dwarfAddressSpace: 0)
!367 = !DIGlobalVariableExpression(var: !368, expr: !DIExpression())
!368 = distinct !DIGlobalVariable(name: "vtable", scope: null, file: !10, type: !369, isLocal: true, isDefinition: true)
!369 = !DICompositeType(tag: DW_TAG_structure_type, name: "vtable", file: !10, align: 64, flags: DIFlagArtificial, elements: !28, vtableHolder: !370, identifier: "vtable")
!370 = !DIDerivedType(tag: DW_TAG_pointer_type, name: "&memchr::memmem::x86::sse::Forward", baseType: !273, size: 64, align: 64, dwarfAddressSpace: 0)
!371 = !DIGlobalVariableExpression(var: !372, expr: !DIExpression())
!372 = distinct !DIGlobalVariable(name: "vtable", scope: null, file: !10, type: !373, isLocal: true, isDefinition: true)
!373 = !DICompositeType(tag: DW_TAG_structure_type, name: "vtable", file: !10, align: 64, flags: DIFlagArtificial, elements: !28, vtableHolder: !374, identifier: "vtable")
!374 = !DIDerivedType(tag: DW_TAG_pointer_type, name: "&memchr::memmem::twoway::Forward", baseType: !266, size: 64, align: 64, dwarfAddressSpace: 0)
!375 = !DIGlobalVariableExpression(var: !376, expr: !DIExpression())
!376 = distinct !DIGlobalVariable(name: "vtable", scope: null, file: !10, type: !377, isLocal: true, isDefinition: true)
!377 = !DICompositeType(tag: DW_TAG_structure_type, name: "vtable", file: !10, align: 64, flags: DIFlagArtificial, elements: !28, vtableHolder: !378, identifier: "vtable")
!378 = !DIDerivedType(tag: DW_TAG_pointer_type, name: "&memchr::memmem::SearcherRevKind", baseType: !300, size: 64, align: 64, dwarfAddressSpace: 0)
!379 = !DIGlobalVariableExpression(var: !380, expr: !DIExpression())
!380 = distinct !DIGlobalVariable(name: "vtable", scope: null, file: !10, type: !381, isLocal: true, isDefinition: true)
!381 = !DICompositeType(tag: DW_TAG_structure_type, name: "vtable", file: !10, align: 64, flags: DIFlagArtificial, elements: !28, vtableHolder: !382, identifier: "vtable")
!382 = !DIDerivedType(tag: DW_TAG_pointer_type, name: "&memchr::memmem::twoway::Reverse", baseType: !314, size: 64, align: 64, dwarfAddressSpace: 0)
!383 = distinct !DICompileUnit(language: DW_LANG_Rust, file: !384, producer: "clang LLVM (rustc version 1.51.0 (2fd73fabe 2021-03-23))", isOptimized: false, runtimeVersion: 0, emissionKind: FullDebug, enums: !385)
!384 = !DIFile(filename: "/home/ubuntu/.cargo/git/checkouts/panic-klee-aa8d015442188497/3b0c897/src/lib.rs", directory: "/home/ubuntu/container-data/fact/target/debug/deps")
!385 = !{!17, !9}
!386 = distinct !DICompileUnit(language: DW_LANG_Rust, file: !387, producer: "clang LLVM (rustc version 1.51.0 (2fd73fabe 2021-03-23))", isOptimized: true, runtimeVersion: 0, emissionKind: FullDebug, enums: !28)
!387 = !DIFile(filename: "library/rustc-std-workspace-core/lib.rs", directory: "/checkout/obj/build/x86_64-unknown-linux-gnu/stage1-std/x86_64-unknown-linux-gnu/release/deps")
!388 = distinct !DICompileUnit(language: DW_LANG_C99, file: !389, producer: "clang version 10.0.0-4ubuntu1 ", isOptimized: false, runtimeVersion: 0, emissionKind: FullDebug, enums: !28, splitDebugInlining: false, nameTableKind: None)
!389 = !DIFile(filename: "/home/ubuntu/klee/runtime/Freestanding/memcpy.c", directory: "/home/ubuntu/klee/build/runtime/Freestanding")
!390 = distinct !DICompileUnit(language: DW_LANG_C99, file: !391, producer: "clang version 10.0.0-4ubuntu1 ", isOptimized: false, runtimeVersion: 0, emissionKind: FullDebug, enums: !28, splitDebugInlining: false, nameTableKind: None)
!391 = !DIFile(filename: "/home/ubuntu/klee/runtime/Freestanding/memset.c", directory: "/home/ubuntu/klee/build/runtime/Freestanding")
!392 = !{!"clang version 10.0.0-4ubuntu1 "}
!393 = distinct !DISubprogram(name: "fmt<i32>", linkageName: "_ZN42_$LT$$RF$T$u20$as$u20$core..fmt..Debug$GT$3fmt17hd65a54898de4153eE", scope: !395, file: !394, line: 2014, type: !396, scopeLine: 2014, flags: DIFlagPrototyped, spFlags: DISPFlagLocalToUnit | DISPFlagDefinition, unit: !6, templateParams: !433, retainedNodes: !430)
!394 = !DIFile(filename: "/rustc/2fd73fabe469357a12c2c974c140f67e7cdd76d0/library/core/src/fmt/mod.rs", directory: "", checksumkind: CSK_MD5, checksum: "9c2303bc954c30225b64b2e88dce24d2")
!395 = !DINamespace(name: "{{impl}}", scope: !20)
!396 = !DISubroutineType(types: !397)
!397 = !{!9, !398, !401}
!398 = !DIDerivedType(tag: DW_TAG_pointer_type, name: "&&i32", baseType: !399, size: 64, align: 64, dwarfAddressSpace: 0)
!399 = !DIDerivedType(tag: DW_TAG_pointer_type, name: "&i32", baseType: !400, size: 64, align: 64, dwarfAddressSpace: 0)
!400 = !DIBasicType(name: "i32", size: 32, encoding: DW_ATE_signed)
!401 = !DIDerivedType(tag: DW_TAG_pointer_type, name: "&mut core::fmt::Formatter", baseType: !402, size: 64, align: 64, dwarfAddressSpace: 0)
!402 = !DICompositeType(tag: DW_TAG_structure_type, name: "Formatter", scope: !20, file: !10, size: 512, align: 64, elements: !403, templateParams: !28, identifier: "d1c22cb052fcd55becb4d9e9c2761003")
!403 = !{!404, !405, !407, !408, !419, !420}
!404 = !DIDerivedType(tag: DW_TAG_member, name: "flags", scope: !402, file: !10, baseType: !122, size: 32, align: 32, offset: 384)
!405 = !DIDerivedType(tag: DW_TAG_member, name: "fill", scope: !402, file: !10, baseType: !406, size: 32, align: 32, offset: 416)
!406 = !DIBasicType(name: "char", size: 32, encoding: DW_ATE_unsigned_char)
!407 = !DIDerivedType(tag: DW_TAG_member, name: "align", scope: !402, file: !10, baseType: !17, size: 8, align: 8, offset: 448)
!408 = !DIDerivedType(tag: DW_TAG_member, name: "width", scope: !402, file: !10, baseType: !409, size: 128, align: 64)
!409 = !DICompositeType(tag: DW_TAG_structure_type, name: "Option<usize>", scope: !87, file: !10, size: 128, align: 64, elements: !410, identifier: "9332858134cb740a2a89b17fc22aeac2")
!410 = !{!411}
!411 = !DICompositeType(tag: DW_TAG_variant_part, scope: !87, file: !10, size: 128, align: 64, elements: !412, templateParams: !111, identifier: "9332858134cb740a2a89b17fc22aeac2_variant_part", discriminator: !117)
!412 = !{!413, !415}
!413 = !DIDerivedType(tag: DW_TAG_member, name: "None", scope: !411, file: !10, baseType: !414, size: 128, align: 64, extraData: i64 0)
!414 = !DICompositeType(tag: DW_TAG_structure_type, name: "None", scope: !409, file: !10, size: 128, align: 64, elements: !28, templateParams: !111, identifier: "9332858134cb740a2a89b17fc22aeac2::None")
!415 = !DIDerivedType(tag: DW_TAG_member, name: "Some", scope: !411, file: !10, baseType: !416, size: 128, align: 64, extraData: i64 1)
!416 = !DICompositeType(tag: DW_TAG_structure_type, name: "Some", scope: !409, file: !10, size: 128, align: 64, elements: !417, templateParams: !111, identifier: "9332858134cb740a2a89b17fc22aeac2::Some")
!417 = !{!418}
!418 = !DIDerivedType(tag: DW_TAG_member, name: "__0", scope: !416, file: !10, baseType: !53, size: 64, align: 64, offset: 64)
!419 = !DIDerivedType(tag: DW_TAG_member, name: "precision", scope: !402, file: !10, baseType: !409, size: 128, align: 64, offset: 128)
!420 = !DIDerivedType(tag: DW_TAG_member, name: "buf", scope: !402, file: !10, baseType: !421, size: 128, align: 64, offset: 256)
!421 = !DICompositeType(tag: DW_TAG_structure_type, name: "&mut Write", scope: !20, file: !10, size: 128, align: 64, elements: !422, templateParams: !28, identifier: "110b4069ef19c710e8c916442189e601")
!422 = !{!423, !425}
!423 = !DIDerivedType(tag: DW_TAG_member, name: "pointer", scope: !421, file: !10, baseType: !424, size: 64, align: 64, flags: DIFlagArtificial)
!424 = !DIDerivedType(tag: DW_TAG_pointer_type, name: "*mut u8", baseType: !13, size: 64, align: 64, dwarfAddressSpace: 0)
!425 = !DIDerivedType(tag: DW_TAG_member, name: "vtable", scope: !421, file: !10, baseType: !426, size: 64, align: 64, offset: 64, flags: DIFlagArtificial)
!426 = !DIDerivedType(tag: DW_TAG_pointer_type, name: "&[usize; 3]", baseType: !427, size: 64, align: 64, dwarfAddressSpace: 0)
!427 = !DICompositeType(tag: DW_TAG_array_type, baseType: !53, size: 192, align: 64, elements: !428)
!428 = !{!429}
!429 = !DISubrange(count: 3)
!430 = !{!431, !432}
!431 = !DILocalVariable(name: "self", arg: 1, scope: !393, file: !394, line: 2014, type: !398)
!432 = !DILocalVariable(name: "f", arg: 2, scope: !393, file: !394, line: 2014, type: !401)
!433 = !{!434}
!434 = !DITemplateTypeParameter(name: "T", type: !400)
!435 = !DILocation(line: 2014, column: 20, scope: !393)
!436 = !DILocation(line: 2014, column: 27, scope: !393)
!437 = !DILocation(line: 2014, column: 71, scope: !393)
!438 = !DILocation(line: 2014, column: 62, scope: !393)
!439 = !DILocation(line: 2014, column: 84, scope: !393)
!440 = distinct !DISubprogram(name: "forward_unchecked", linkageName: "_ZN47_$LT$i32$u20$as$u20$core..iter..range..Step$GT$17forward_unchecked17h13295d967d0675deE", scope: !442, file: !441, line: 191, type: !445, scopeLine: 191, flags: DIFlagPrototyped, spFlags: DISPFlagLocalToUnit | DISPFlagDefinition, unit: !6, templateParams: !28, retainedNodes: !447)
!441 = !DIFile(filename: "/rustc/2fd73fabe469357a12c2c974c140f67e7cdd76d0/library/core/src/iter/range.rs", directory: "", checksumkind: CSK_MD5, checksum: "fe23579df17f109f3dfee33f341ff9d4")
!442 = !DINamespace(name: "{{impl}}", scope: !443)
!443 = !DINamespace(name: "range", scope: !444)
!444 = !DINamespace(name: "iter", scope: !12)
!445 = !DISubroutineType(types: !446)
!446 = !{!400, !400, !53}
!447 = !{!448, !449}
!448 = !DILocalVariable(name: "start", arg: 1, scope: !440, file: !441, line: 191, type: !400)
!449 = !DILocalVariable(name: "n", arg: 2, scope: !440, file: !441, line: 191, type: !53)
!450 = !DILocation(line: 191, column: 37, scope: !440)
!451 = !DILocation(line: 191, column: 50, scope: !440)
!452 = !DILocation(line: 193, column: 42, scope: !440)
!453 = !DILocation(line: 193, column: 22, scope: !440)
!454 = !DILocation(line: 194, column: 10, scope: !440)
!455 = distinct !DISubprogram(name: "copy_nonoverlapping<i32>", linkageName: "_ZN4core10intrinsics19copy_nonoverlapping17heb9c70f09399f967E", scope: !457, file: !456, line: 1843, type: !458, scopeLine: 1843, flags: DIFlagPrototyped, spFlags: DISPFlagLocalToUnit | DISPFlagDefinition, unit: !6, templateParams: !433, retainedNodes: !462)
!456 = !DIFile(filename: "/rustc/2fd73fabe469357a12c2c974c140f67e7cdd76d0/library/core/src/intrinsics.rs", directory: "", checksumkind: CSK_MD5, checksum: "0e207eea7b158eb9610137138c6779c4")
!457 = !DINamespace(name: "intrinsics", scope: !12)
!458 = !DISubroutineType(types: !459)
!459 = !{null, !460, !461, !53}
!460 = !DIDerivedType(tag: DW_TAG_pointer_type, name: "*const i32", baseType: !400, size: 64, align: 64, dwarfAddressSpace: 0)
!461 = !DIDerivedType(tag: DW_TAG_pointer_type, name: "*mut i32", baseType: !400, size: 64, align: 64, dwarfAddressSpace: 0)
!462 = !{!463, !464, !465}
!463 = !DILocalVariable(name: "src", arg: 1, scope: !455, file: !456, line: 1843, type: !460)
!464 = !DILocalVariable(name: "dst", arg: 2, scope: !455, file: !456, line: 1843, type: !461)
!465 = !DILocalVariable(name: "count", arg: 3, scope: !455, file: !456, line: 1843, type: !53)
!466 = !DILocation(line: 1843, column: 44, scope: !455)
!467 = !DILocation(line: 1843, column: 59, scope: !455)
!468 = !DILocation(line: 1843, column: 72, scope: !455)
!469 = !DILocation(line: 1861, column: 14, scope: !455)
!470 = !DILocation(line: 1862, column: 2, scope: !455)
!471 = distinct !DISubprogram(name: "lt", linkageName: "_ZN4core3cmp5impls55_$LT$impl$u20$core..cmp..PartialOrd$u20$for$u20$i32$GT$2lt17hde252bf4809fdad5E", scope: !473, file: !472, line: 1258, type: !475, scopeLine: 1258, flags: DIFlagPrototyped, spFlags: DISPFlagLocalToUnit | DISPFlagDefinition, unit: !6, templateParams: !28, retainedNodes: !478)
!472 = !DIFile(filename: "/rustc/2fd73fabe469357a12c2c974c140f67e7cdd76d0/library/core/src/cmp.rs", directory: "", checksumkind: CSK_MD5, checksum: "216266272664f97bdd75a5a9e6b6ecd6")
!473 = !DINamespace(name: "{{impl}}", scope: !474)
!474 = !DINamespace(name: "impls", scope: !33)
!475 = !DISubroutineType(types: !476)
!476 = !{!477, !399, !399}
!477 = !DIBasicType(name: "bool", size: 8, encoding: DW_ATE_boolean)
!478 = !{!479, !480}
!479 = !DILocalVariable(name: "self", arg: 1, scope: !471, file: !472, line: 1258, type: !399)
!480 = !DILocalVariable(name: "other", arg: 2, scope: !471, file: !472, line: 1258, type: !399)
!481 = !DILocation(line: 1258, column: 23, scope: !471)
!482 = !DILocation(line: 1258, column: 30, scope: !471)
!483 = !DILocation(line: 1258, column: 52, scope: !471)
!484 = !DILocation(line: 1258, column: 62, scope: !471)
!485 = !DILocation(line: 1258, column: 72, scope: !471)
!486 = distinct !DISubprogram(name: "new<&i32>", linkageName: "_ZN4core3fmt10ArgumentV13new17h520fd58315662778E", scope: !487, file: !394, line: 267, type: !496, scopeLine: 267, flags: DIFlagPrototyped, spFlags: DISPFlagLocalToUnit | DISPFlagDefinition, unit: !6, templateParams: !502, retainedNodes: !499)
!487 = !DICompositeType(tag: DW_TAG_structure_type, name: "ArgumentV1", scope: !20, file: !10, size: 128, align: 64, elements: !488, templateParams: !28, identifier: "6619fd31a8de7fb48cfbb958bcaec8fe")
!488 = !{!489, !492}
!489 = !DIDerivedType(tag: DW_TAG_member, name: "value", scope: !487, file: !10, baseType: !490, size: 64, align: 64)
!490 = !DIDerivedType(tag: DW_TAG_pointer_type, name: "&core::fmt::::Opaque", baseType: !491, size: 64, align: 64, dwarfAddressSpace: 0)
!491 = !DICompositeType(tag: DW_TAG_structure_type, name: "Opaque", file: !10, align: 8, elements: !28, identifier: "c7b909a8549e774811ca83990f5da58d")
!492 = !DIDerivedType(tag: DW_TAG_member, name: "formatter", scope: !487, file: !10, baseType: !493, size: 64, align: 64, offset: 64)
!493 = !DIDerivedType(tag: DW_TAG_pointer_type, name: "fn(&core::fmt::::Opaque, &mut core::fmt::Formatter) -> core::result::Result<(), core::fmt::Error>", baseType: !494, size: 64, align: 64, dwarfAddressSpace: 0)
!494 = !DISubroutineType(types: !495)
!495 = !{!9, !490, !401}
!496 = !DISubroutineType(types: !497)
!497 = !{!487, !398, !498}
!498 = !DIDerivedType(tag: DW_TAG_pointer_type, name: "fn(&&i32, &mut core::fmt::Formatter) -> core::result::Result<(), core::fmt::Error>", baseType: !396, size: 64, align: 64, dwarfAddressSpace: 0)
!499 = !{!500, !501}
!500 = !DILocalVariable(name: "x", arg: 1, scope: !486, file: !394, line: 267, type: !398)
!501 = !DILocalVariable(name: "f", arg: 2, scope: !486, file: !394, line: 267, type: !498)
!502 = !{!503}
!503 = !DITemplateTypeParameter(name: "T", type: !399)
!504 = !DILocation(line: 267, column: 23, scope: !486)
!505 = !DILocation(line: 267, column: 33, scope: !486)
!506 = !DILocation(line: 276, column: 42, scope: !486)
!507 = !DILocation(line: 276, column: 68, scope: !486)
!508 = !DILocation(line: 276, column: 18, scope: !486)
!509 = !DILocation(line: 277, column: 6, scope: !486)
!510 = distinct !DISubprogram(name: "fmt", linkageName: "_ZN4core3fmt3num50_$LT$impl$u20$core..fmt..Debug$u20$for$u20$i32$GT$3fmt17h8b462461efc32fa4E", scope: !512, file: !511, line: 185, type: !514, scopeLine: 185, flags: DIFlagPrototyped, spFlags: DISPFlagLocalToUnit | DISPFlagDefinition, unit: !6, templateParams: !28, retainedNodes: !516)
!511 = !DIFile(filename: "/rustc/2fd73fabe469357a12c2c974c140f67e7cdd76d0/library/core/src/fmt/num.rs", directory: "", checksumkind: CSK_MD5, checksum: "9015781b6b0707b2f9013dc3bf8db592")
!512 = !DINamespace(name: "{{impl}}", scope: !513)
!513 = !DINamespace(name: "num", scope: !20)
!514 = !DISubroutineType(types: !515)
!515 = !{!9, !399, !401}
!516 = !{!517, !518}
!517 = !DILocalVariable(name: "self", arg: 1, scope: !510, file: !511, line: 185, type: !399)
!518 = !DILocalVariable(name: "f", arg: 2, scope: !510, file: !511, line: 185, type: !401)
!519 = !DILocation(line: 185, column: 20, scope: !510)
!520 = !DILocation(line: 185, column: 27, scope: !510)
!521 = !DILocation(line: 186, column: 20, scope: !510)
!522 = !DILocation(line: 186, column: 17, scope: !510)
!523 = !DILocation(line: 187, column: 21, scope: !510)
!524 = !DILocation(line: 188, column: 27, scope: !510)
!525 = !DILocation(line: 188, column: 24, scope: !510)
!526 = !DILocation(line: 189, column: 21, scope: !510)
!527 = !DILocation(line: 191, column: 21, scope: !510)
!528 = !DILocation(line: 193, column: 14, scope: !510)
!529 = !{i8 0, i8 2}
!530 = distinct !DISubprogram(name: "new_v1", linkageName: "_ZN4core3fmt9Arguments6new_v117hdff1995a1908b6f3E", scope: !531, file: !394, line: 313, type: !593, scopeLine: 313, flags: DIFlagPrototyped, spFlags: DISPFlagLocalToUnit | DISPFlagDefinition, unit: !6, templateParams: !28, retainedNodes: !595)
!531 = !DICompositeType(tag: DW_TAG_structure_type, name: "Arguments", scope: !20, file: !10, size: 384, align: 64, elements: !532, templateParams: !28, identifier: "1a7c27c0b75627fec59278fe321fba57")
!532 = !{!533, !543, !587}
!533 = !DIDerivedType(tag: DW_TAG_member, name: "pieces", scope: !531, file: !10, baseType: !534, size: 128, align: 64)
!534 = !DICompositeType(tag: DW_TAG_structure_type, name: "&[&str]", file: !10, size: 128, align: 64, elements: !535, templateParams: !28, identifier: "e5181a2ba73cefd2b9372dc5646453a9")
!535 = !{!536, !542}
!536 = !DIDerivedType(tag: DW_TAG_member, name: "data_ptr", scope: !534, file: !10, baseType: !537, size: 64, align: 64)
!537 = !DIDerivedType(tag: DW_TAG_pointer_type, name: "*const &str", baseType: !538, size: 64, align: 64, dwarfAddressSpace: 0)
!538 = !DICompositeType(tag: DW_TAG_structure_type, name: "&str", file: !10, size: 128, align: 64, elements: !539, templateParams: !28, identifier: "7ef2a91eecc7bcf4b4aaea2dbce79437")
!539 = !{!540, !541}
!540 = !DIDerivedType(tag: DW_TAG_member, name: "data_ptr", scope: !538, file: !10, baseType: !145, size: 64, align: 64)
!541 = !DIDerivedType(tag: DW_TAG_member, name: "length", scope: !538, file: !10, baseType: !53, size: 64, align: 64, offset: 64)
!542 = !DIDerivedType(tag: DW_TAG_member, name: "length", scope: !534, file: !10, baseType: !53, size: 64, align: 64, offset: 64)
!543 = !DIDerivedType(tag: DW_TAG_member, name: "fmt", scope: !531, file: !10, baseType: !544, size: 128, align: 64, offset: 128)
!544 = !DICompositeType(tag: DW_TAG_structure_type, name: "Option<&[core::fmt::rt::v1::Argument]>", scope: !87, file: !10, size: 128, align: 64, elements: !545, identifier: "b56d67b9b7feca2adbc2832ec8d0c46a")
!545 = !{!546}
!546 = !DICompositeType(tag: DW_TAG_variant_part, scope: !87, file: !10, size: 128, align: 64, elements: !547, templateParams: !550, identifier: "b56d67b9b7feca2adbc2832ec8d0c46a_variant_part", discriminator: !117)
!547 = !{!548, !583}
!548 = !DIDerivedType(tag: DW_TAG_member, name: "None", scope: !546, file: !10, baseType: !549, size: 128, align: 64, extraData: i64 0)
!549 = !DICompositeType(tag: DW_TAG_structure_type, name: "None", scope: !544, file: !10, size: 128, align: 64, elements: !28, templateParams: !550, identifier: "b56d67b9b7feca2adbc2832ec8d0c46a::None")
!550 = !{!551}
!551 = !DITemplateTypeParameter(name: "T", type: !552)
!552 = !DICompositeType(tag: DW_TAG_structure_type, name: "&[core::fmt::rt::v1::Argument]", file: !10, size: 128, align: 64, elements: !553, templateParams: !28, identifier: "8308f45ba37f738f58ea77e9c86e039b")
!553 = !{!554, !582}
!554 = !DIDerivedType(tag: DW_TAG_member, name: "data_ptr", scope: !552, file: !10, baseType: !555, size: 64, align: 64)
!555 = !DIDerivedType(tag: DW_TAG_pointer_type, name: "*const core::fmt::rt::v1::Argument", baseType: !556, size: 64, align: 64, dwarfAddressSpace: 0)
!556 = !DICompositeType(tag: DW_TAG_structure_type, name: "Argument", scope: !18, file: !10, size: 448, align: 64, elements: !557, templateParams: !28, identifier: "691eb57fd0c8590a95019e7601130547")
!557 = !{!558, !559}
!558 = !DIDerivedType(tag: DW_TAG_member, name: "position", scope: !556, file: !10, baseType: !53, size: 64, align: 64)
!559 = !DIDerivedType(tag: DW_TAG_member, name: "format", scope: !556, file: !10, baseType: !560, size: 384, align: 64, offset: 64)
!560 = !DICompositeType(tag: DW_TAG_structure_type, name: "FormatSpec", scope: !18, file: !10, size: 384, align: 64, elements: !561, templateParams: !28, identifier: "7d53aaf36b2d51081e1179e46fb0ab6")
!561 = !{!562, !563, !564, !565, !581}
!562 = !DIDerivedType(tag: DW_TAG_member, name: "fill", scope: !560, file: !10, baseType: !406, size: 32, align: 32, offset: 256)
!563 = !DIDerivedType(tag: DW_TAG_member, name: "align", scope: !560, file: !10, baseType: !17, size: 8, align: 8, offset: 320)
!564 = !DIDerivedType(tag: DW_TAG_member, name: "flags", scope: !560, file: !10, baseType: !122, size: 32, align: 32, offset: 288)
!565 = !DIDerivedType(tag: DW_TAG_member, name: "precision", scope: !560, file: !10, baseType: !566, size: 128, align: 64)
!566 = !DICompositeType(tag: DW_TAG_structure_type, name: "Count", scope: !18, file: !10, size: 128, align: 64, elements: !567, identifier: "42e154d3efa76c68e7c6c9e5f44b41a2")
!567 = !{!568}
!568 = !DICompositeType(tag: DW_TAG_variant_part, scope: !18, file: !10, size: 128, align: 64, elements: !569, templateParams: !28, identifier: "42e154d3efa76c68e7c6c9e5f44b41a2_variant_part", discriminator: !580)
!569 = !{!570, !574, !578}
!570 = !DIDerivedType(tag: DW_TAG_member, name: "Is", scope: !568, file: !10, baseType: !571, size: 128, align: 64, extraData: i64 0)
!571 = !DICompositeType(tag: DW_TAG_structure_type, name: "Is", scope: !566, file: !10, size: 128, align: 64, elements: !572, templateParams: !28, identifier: "42e154d3efa76c68e7c6c9e5f44b41a2::Is")
!572 = !{!573}
!573 = !DIDerivedType(tag: DW_TAG_member, name: "__0", scope: !571, file: !10, baseType: !53, size: 64, align: 64, offset: 64)
!574 = !DIDerivedType(tag: DW_TAG_member, name: "Param", scope: !568, file: !10, baseType: !575, size: 128, align: 64, extraData: i64 1)
!575 = !DICompositeType(tag: DW_TAG_structure_type, name: "Param", scope: !566, file: !10, size: 128, align: 64, elements: !576, templateParams: !28, identifier: "42e154d3efa76c68e7c6c9e5f44b41a2::Param")
!576 = !{!577}
!577 = !DIDerivedType(tag: DW_TAG_member, name: "__0", scope: !575, file: !10, baseType: !53, size: 64, align: 64, offset: 64)
!578 = !DIDerivedType(tag: DW_TAG_member, name: "Implied", scope: !568, file: !10, baseType: !579, size: 128, align: 64, extraData: i64 2)
!579 = !DICompositeType(tag: DW_TAG_structure_type, name: "Implied", scope: !566, file: !10, size: 128, align: 64, elements: !28, templateParams: !28, identifier: "42e154d3efa76c68e7c6c9e5f44b41a2::Implied")
!580 = !DIDerivedType(tag: DW_TAG_member, scope: !18, file: !10, baseType: !57, size: 64, align: 64, flags: DIFlagArtificial)
!581 = !DIDerivedType(tag: DW_TAG_member, name: "width", scope: !560, file: !10, baseType: !566, size: 128, align: 64, offset: 128)
!582 = !DIDerivedType(tag: DW_TAG_member, name: "length", scope: !552, file: !10, baseType: !53, size: 64, align: 64, offset: 64)
!583 = !DIDerivedType(tag: DW_TAG_member, name: "Some", scope: !546, file: !10, baseType: !584, size: 128, align: 64)
!584 = !DICompositeType(tag: DW_TAG_structure_type, name: "Some", scope: !544, file: !10, size: 128, align: 64, elements: !585, templateParams: !550, identifier: "b56d67b9b7feca2adbc2832ec8d0c46a::Some")
!585 = !{!586}
!586 = !DIDerivedType(tag: DW_TAG_member, name: "__0", scope: !584, file: !10, baseType: !552, size: 128, align: 64)
!587 = !DIDerivedType(tag: DW_TAG_member, name: "args", scope: !531, file: !10, baseType: !588, size: 128, align: 64, offset: 256)
!588 = !DICompositeType(tag: DW_TAG_structure_type, name: "&[core::fmt::ArgumentV1]", file: !10, size: 128, align: 64, elements: !589, templateParams: !28, identifier: "e95cec6dff5f479c9a45e2dcffa4a08f")
!589 = !{!590, !592}
!590 = !DIDerivedType(tag: DW_TAG_member, name: "data_ptr", scope: !588, file: !10, baseType: !591, size: 64, align: 64)
!591 = !DIDerivedType(tag: DW_TAG_pointer_type, name: "*const core::fmt::ArgumentV1", baseType: !487, size: 64, align: 64, dwarfAddressSpace: 0)
!592 = !DIDerivedType(tag: DW_TAG_member, name: "length", scope: !588, file: !10, baseType: !53, size: 64, align: 64, offset: 64)
!593 = !DISubroutineType(types: !594)
!594 = !{!531, !534, !588}
!595 = !{!596, !597}
!596 = !DILocalVariable(name: "pieces", arg: 1, scope: !530, file: !394, line: 313, type: !534)
!597 = !DILocalVariable(name: "args", arg: 2, scope: !530, file: !394, line: 313, type: !588)
!598 = !DILocation(line: 313, column: 19, scope: !530)
!599 = !DILocation(line: 313, column: 47, scope: !530)
!600 = !DILocation(line: 314, column: 34, scope: !530)
!601 = !DILocation(line: 314, column: 9, scope: !530)
!602 = !DILocation(line: 315, column: 6, scope: !530)
!603 = distinct !DISubprogram(name: "swap<i32>", linkageName: "_ZN4core3mem4swap17hd710584637d2a7b3E", scope: !605, file: !604, line: 696, type: !606, scopeLine: 696, flags: DIFlagPrototyped, spFlags: DISPFlagLocalToUnit | DISPFlagDefinition, unit: !6, templateParams: !433, retainedNodes: !609)
!604 = !DIFile(filename: "/rustc/2fd73fabe469357a12c2c974c140f67e7cdd76d0/library/core/src/mem/mod.rs", directory: "", checksumkind: CSK_MD5, checksum: "c6e13eb32828a8116f205e2f9341b1ad")
!605 = !DINamespace(name: "mem", scope: !12)
!606 = !DISubroutineType(types: !607)
!607 = !{null, !608, !608}
!608 = !DIDerivedType(tag: DW_TAG_pointer_type, name: "&mut i32", baseType: !400, size: 64, align: 64, dwarfAddressSpace: 0)
!609 = !{!610, !611}
!610 = !DILocalVariable(name: "x", arg: 1, scope: !603, file: !604, line: 696, type: !608)
!611 = !DILocalVariable(name: "y", arg: 2, scope: !603, file: !604, line: 696, type: !608)
!612 = !DILocation(line: 696, column: 16, scope: !603)
!613 = !DILocation(line: 696, column: 27, scope: !603)
!614 = !DILocation(line: 700, column: 9, scope: !603)
!615 = !DILocation(line: 702, column: 2, scope: !603)
!616 = distinct !DISubprogram(name: "replace<i32>", linkageName: "_ZN4core3mem7replace17hc71b24e003d16f64E", scope: !605, file: !604, line: 826, type: !617, scopeLine: 826, flags: DIFlagPrototyped, spFlags: DISPFlagLocalToUnit | DISPFlagDefinition, unit: !6, templateParams: !433, retainedNodes: !619)
!617 = !DISubroutineType(types: !618)
!618 = !{!400, !608, !400}
!619 = !{!620, !621}
!620 = !DILocalVariable(name: "dest", arg: 1, scope: !616, file: !604, line: 826, type: !608)
!621 = !DILocalVariable(name: "src", arg: 2, scope: !616, file: !604, line: 826, type: !400)
!622 = !DILocation(line: 826, column: 19, scope: !616)
!623 = !DILocation(line: 826, column: 33, scope: !616)
!624 = !DILocation(line: 827, column: 5, scope: !616)
!625 = !DILocation(line: 828, column: 5, scope: !616)
!626 = !DILocation(line: 829, column: 2, scope: !616)
!627 = distinct !DISubprogram(name: "unchecked_add", linkageName: "_ZN4core3num21_$LT$impl$u20$i32$GT$13unchecked_add17h23235de5f96169ccE", scope: !629, file: !628, line: 421, type: !631, scopeLine: 421, flags: DIFlagPrototyped, spFlags: DISPFlagLocalToUnit | DISPFlagDefinition, unit: !6, templateParams: !28, retainedNodes: !633)
!628 = !DIFile(filename: "/rustc/2fd73fabe469357a12c2c974c140f67e7cdd76d0/library/core/src/num/int_macros.rs", directory: "", checksumkind: CSK_MD5, checksum: "3e363918b275de56081ecce23e391966")
!629 = !DINamespace(name: "{{impl}}", scope: !630)
!630 = !DINamespace(name: "num", scope: !12)
!631 = !DISubroutineType(types: !632)
!632 = !{!400, !400, !400}
!633 = !{!634, !635}
!634 = !DILocalVariable(name: "self", arg: 1, scope: !627, file: !628, line: 421, type: !400)
!635 = !DILocalVariable(name: "rhs", arg: 2, scope: !627, file: !628, line: 421, type: !400)
!636 = !DILocation(line: 421, column: 37, scope: !627)
!637 = !DILocation(line: 421, column: 43, scope: !627)
!638 = !DILocation(line: 424, column: 22, scope: !627)
!639 = !DILocation(line: 425, column: 10, scope: !627)
!640 = distinct !DISubprogram(name: "swap_nonoverlapping<i32>", linkageName: "_ZN4core3ptr19swap_nonoverlapping17h186f0340486f95c7E", scope: !642, file: !641, line: 432, type: !643, scopeLine: 432, flags: DIFlagPrototyped, spFlags: DISPFlagLocalToUnit | DISPFlagDefinition, unit: !6, templateParams: !433, retainedNodes: !645)
!641 = !DIFile(filename: "/rustc/2fd73fabe469357a12c2c974c140f67e7cdd76d0/library/core/src/ptr/mod.rs", directory: "", checksumkind: CSK_MD5, checksum: "a4f2d8ba04981bbf92ef9174cf1f1763")
!642 = !DINamespace(name: "ptr", scope: !12)
!643 = !DISubroutineType(types: !644)
!644 = !{null, !461, !461, !53}
!645 = !{!646, !647, !648, !649, !651, !653}
!646 = !DILocalVariable(name: "x", arg: 1, scope: !640, file: !641, line: 432, type: !461)
!647 = !DILocalVariable(name: "y", arg: 2, scope: !640, file: !641, line: 432, type: !461)
!648 = !DILocalVariable(name: "count", arg: 3, scope: !640, file: !641, line: 432, type: !53)
!649 = !DILocalVariable(name: "x", scope: !650, file: !641, line: 442, type: !424, align: 8)
!650 = distinct !DILexicalBlock(scope: !640, file: !641, line: 442, column: 5)
!651 = !DILocalVariable(name: "y", scope: !652, file: !641, line: 443, type: !424, align: 8)
!652 = distinct !DILexicalBlock(scope: !650, file: !641, line: 443, column: 5)
!653 = !DILocalVariable(name: "len", scope: !654, file: !641, line: 444, type: !53, align: 8)
!654 = distinct !DILexicalBlock(scope: !652, file: !641, line: 444, column: 5)
!655 = !DILocation(line: 432, column: 38, scope: !640)
!656 = !DILocation(line: 432, column: 49, scope: !640)
!657 = !DILocation(line: 432, column: 60, scope: !640)
!658 = !DILocation(line: 442, column: 13, scope: !640)
!659 = !DILocation(line: 442, column: 9, scope: !650)
!660 = !DILocation(line: 443, column: 13, scope: !650)
!661 = !DILocation(line: 443, column: 9, scope: !652)
!662 = !DILocation(line: 444, column: 15, scope: !652)
!663 = !DILocation(line: 444, column: 9, scope: !654)
!664 = !DILocation(line: 447, column: 14, scope: !654)
!665 = !DILocation(line: 448, column: 2, scope: !640)
!666 = distinct !DISubprogram(name: "swap_nonoverlapping_one<i32>", linkageName: "_ZN4core3ptr23swap_nonoverlapping_one17ha80c7b9a104e6d09E", scope: !642, file: !641, line: 451, type: !667, scopeLine: 451, flags: DIFlagPrototyped, spFlags: DISPFlagLocalToUnit | DISPFlagDefinition, unit: !6, templateParams: !433, retainedNodes: !669)
!667 = !DISubroutineType(types: !668)
!668 = !{null, !461, !461}
!669 = !{!670, !671, !672}
!670 = !DILocalVariable(name: "x", arg: 1, scope: !666, file: !641, line: 451, type: !461)
!671 = !DILocalVariable(name: "y", arg: 2, scope: !666, file: !641, line: 451, type: !461)
!672 = !DILocalVariable(name: "z", scope: !673, file: !641, line: 458, type: !400, align: 4)
!673 = distinct !DILexicalBlock(scope: !666, file: !641, line: 458, column: 13)
!674 = !DILocation(line: 451, column: 49, scope: !666)
!675 = !DILocation(line: 451, column: 60, scope: !666)
!676 = !DILocation(line: 454, column: 8, scope: !666)
!677 = !DILocation(line: 454, column: 5, scope: !666)
!678 = !DILocation(line: 458, column: 21, scope: !666)
!679 = !DILocation(line: 458, column: 17, scope: !673)
!680 = !DILocation(line: 459, column: 13, scope: !673)
!681 = !DILocation(line: 460, column: 22, scope: !673)
!682 = !DILocation(line: 460, column: 13, scope: !673)
!683 = !DILocation(line: 461, column: 9, scope: !666)
!684 = !DILocation(line: 464, column: 18, scope: !666)
!685 = !DILocation(line: 466, column: 2, scope: !666)
!686 = distinct !DISubprogram(name: "swap_nonoverlapping_bytes", linkageName: "_ZN4core3ptr25swap_nonoverlapping_bytes17h21e2caeb9d9ef23dE", scope: !642, file: !641, line: 469, type: !687, scopeLine: 469, flags: DIFlagPrototyped, spFlags: DISPFlagLocalToUnit | DISPFlagDefinition, unit: !6, templateParams: !28, retainedNodes: !689)
!687 = !DISubroutineType(types: !688)
!688 = !{null, !424, !424, !53}
!689 = !{!690, !691, !692, !693, !695, !697, !717, !719, !721, !723, !740, !742, !744, !746}
!690 = !DILocalVariable(name: "x", arg: 1, scope: !686, file: !641, line: 469, type: !424)
!691 = !DILocalVariable(name: "y", arg: 2, scope: !686, file: !641, line: 469, type: !424)
!692 = !DILocalVariable(name: "len", arg: 3, scope: !686, file: !641, line: 469, type: !53)
!693 = !DILocalVariable(name: "block_size", scope: !694, file: !641, line: 480, type: !53, align: 8)
!694 = distinct !DILexicalBlock(scope: !686, file: !641, line: 480, column: 5)
!695 = !DILocalVariable(name: "i", scope: !696, file: !641, line: 485, type: !53, align: 8)
!696 = distinct !DILexicalBlock(scope: !694, file: !641, line: 485, column: 5)
!697 = !DILocalVariable(name: "t", scope: !698, file: !641, line: 489, type: !699, align: 32)
!698 = distinct !DILexicalBlock(scope: !696, file: !641, line: 489, column: 9)
!699 = !DICompositeType(tag: DW_TAG_union_type, name: "MaybeUninit<core::ptr::swap_nonoverlapping_bytes::Block>", scope: !700, file: !10, size: 256, align: 256, elements: !701, templateParams: !715, identifier: "fd45969605ffdcc095246558b4a9155a")
!700 = !DINamespace(name: "maybe_uninit", scope: !605)
!701 = !{!702, !703}
!702 = !DIDerivedType(tag: DW_TAG_member, name: "uninit", scope: !699, file: !10, baseType: !210, align: 8)
!703 = !DIDerivedType(tag: DW_TAG_member, name: "value", scope: !699, file: !10, baseType: !704, size: 256, align: 256)
!704 = !DICompositeType(tag: DW_TAG_structure_type, name: "ManuallyDrop<core::ptr::swap_nonoverlapping_bytes::Block>", scope: !705, file: !10, size: 256, align: 256, elements: !706, templateParams: !715, identifier: "385b640e0c2908a5362c219bb9756fd2")
!705 = !DINamespace(name: "manually_drop", scope: !605)
!706 = !{!707}
!707 = !DIDerivedType(tag: DW_TAG_member, name: "value", scope: !704, file: !10, baseType: !708, size: 256, align: 256)
!708 = !DICompositeType(tag: DW_TAG_structure_type, name: "Block", scope: !709, file: !10, size: 256, align: 256, elements: !710, templateParams: !28, identifier: "94fdff3e596070d33c9da5f7411964f3")
!709 = !DINamespace(name: "swap_nonoverlapping_bytes", scope: !642)
!710 = !{!711, !712, !713, !714}
!711 = !DIDerivedType(tag: DW_TAG_member, name: "__0", scope: !708, file: !10, baseType: !57, size: 64, align: 64)
!712 = !DIDerivedType(tag: DW_TAG_member, name: "__1", scope: !708, file: !10, baseType: !57, size: 64, align: 64, offset: 64)
!713 = !DIDerivedType(tag: DW_TAG_member, name: "__2", scope: !708, file: !10, baseType: !57, size: 64, align: 64, offset: 128)
!714 = !DIDerivedType(tag: DW_TAG_member, name: "__3", scope: !708, file: !10, baseType: !57, size: 64, align: 64, offset: 192)
!715 = !{!716}
!716 = !DITemplateTypeParameter(name: "T", type: !708)
!717 = !DILocalVariable(name: "t", scope: !718, file: !641, line: 490, type: !424, align: 8)
!718 = distinct !DILexicalBlock(scope: !698, file: !641, line: 490, column: 9)
!719 = !DILocalVariable(name: "x", scope: !720, file: !641, line: 499, type: !424, align: 8)
!720 = distinct !DILexicalBlock(scope: !718, file: !641, line: 499, column: 13)
!721 = !DILocalVariable(name: "y", scope: !722, file: !641, line: 500, type: !424, align: 8)
!722 = distinct !DILexicalBlock(scope: !720, file: !641, line: 500, column: 13)
!723 = !DILocalVariable(name: "t", scope: !724, file: !641, line: 513, type: !725, align: 8)
!724 = distinct !DILexicalBlock(scope: !696, file: !641, line: 513, column: 9)
!725 = !DICompositeType(tag: DW_TAG_union_type, name: "MaybeUninit<core::ptr::swap_nonoverlapping_bytes::UnalignedBlock>", scope: !700, file: !10, size: 256, align: 64, elements: !726, templateParams: !738, identifier: "f76fd340747999447e6429ea16115bc2")
!726 = !{!727, !728}
!727 = !DIDerivedType(tag: DW_TAG_member, name: "uninit", scope: !725, file: !10, baseType: !210, align: 8)
!728 = !DIDerivedType(tag: DW_TAG_member, name: "value", scope: !725, file: !10, baseType: !729, size: 256, align: 64)
!729 = !DICompositeType(tag: DW_TAG_structure_type, name: "ManuallyDrop<core::ptr::swap_nonoverlapping_bytes::UnalignedBlock>", scope: !705, file: !10, size: 256, align: 64, elements: !730, templateParams: !738, identifier: "f80b21968ffa287b3f9e07e8ba947efa")
!730 = !{!731}
!731 = !DIDerivedType(tag: DW_TAG_member, name: "value", scope: !729, file: !10, baseType: !732, size: 256, align: 64)
!732 = !DICompositeType(tag: DW_TAG_structure_type, name: "UnalignedBlock", scope: !709, file: !10, size: 256, align: 64, elements: !733, templateParams: !28, identifier: "4c101303033f1e558cfeb4726c4105f")
!733 = !{!734, !735, !736, !737}
!734 = !DIDerivedType(tag: DW_TAG_member, name: "__0", scope: !732, file: !10, baseType: !57, size: 64, align: 64)
!735 = !DIDerivedType(tag: DW_TAG_member, name: "__1", scope: !732, file: !10, baseType: !57, size: 64, align: 64, offset: 64)
!736 = !DIDerivedType(tag: DW_TAG_member, name: "__2", scope: !732, file: !10, baseType: !57, size: 64, align: 64, offset: 128)
!737 = !DIDerivedType(tag: DW_TAG_member, name: "__3", scope: !732, file: !10, baseType: !57, size: 64, align: 64, offset: 192)
!738 = !{!739}
!739 = !DITemplateTypeParameter(name: "T", type: !732)
!740 = !DILocalVariable(name: "rem", scope: !741, file: !641, line: 514, type: !53, align: 8)
!741 = distinct !DILexicalBlock(scope: !724, file: !641, line: 514, column: 9)
!742 = !DILocalVariable(name: "t", scope: !743, file: !641, line: 516, type: !424, align: 8)
!743 = distinct !DILexicalBlock(scope: !741, file: !641, line: 516, column: 9)
!744 = !DILocalVariable(name: "x", scope: !745, file: !641, line: 520, type: !424, align: 8)
!745 = distinct !DILexicalBlock(scope: !743, file: !641, line: 520, column: 13)
!746 = !DILocalVariable(name: "y", scope: !747, file: !641, line: 521, type: !424, align: 8)
!747 = distinct !DILexicalBlock(scope: !745, file: !641, line: 521, column: 13)
!748 = !DILocation(line: 469, column: 37, scope: !686)
!749 = !DILocation(line: 469, column: 49, scope: !686)
!750 = !DILocation(line: 469, column: 61, scope: !686)
!751 = !DILocation(line: 485, column: 9, scope: !696)
!752 = !DILocation(line: 489, column: 13, scope: !698)
!753 = !DILocation(line: 513, column: 13, scope: !724)
!754 = !DILocation(line: 480, column: 22, scope: !686)
!755 = !DILocation(line: 480, column: 9, scope: !694)
!756 = !DILocation(line: 485, column: 17, scope: !694)
!757 = !DILocation(line: 486, column: 5, scope: !696)
!758 = !DILocation(line: 486, column: 11, scope: !696)
!759 = !DILocation(line: 511, column: 8, scope: !696)
!760 = !DILocation(line: 511, column: 5, scope: !696)
!761 = !DILocation(line: 315, column: 9, scope: !762, inlinedAt: !766)
!762 = distinct !DISubprogram(name: "uninit<core::ptr::swap_nonoverlapping_bytes::Block>", linkageName: "_ZN4core3mem12maybe_uninit20MaybeUninit$LT$T$GT$6uninit17h23ba967be5f75129E", scope: !699, file: !763, line: 314, type: !764, scopeLine: 314, flags: DIFlagPrototyped, spFlags: DISPFlagLocalToUnit | DISPFlagDefinition, unit: !6, templateParams: !715, retainedNodes: !28)
!763 = !DIFile(filename: "/rustc/2fd73fabe469357a12c2c974c140f67e7cdd76d0/library/core/src/mem/maybe_uninit.rs", directory: "", checksumkind: CSK_MD5, checksum: "03b43ae1e9b14d05f4f2ba9780321a7a")
!764 = !DISubroutineType(types: !765)
!765 = !{!699}
!766 = distinct !DILocation(line: 489, column: 21, scope: !696)
!767 = !DILocalVariable(name: "self", arg: 1, scope: !768, file: !763, line: 488, type: !772)
!768 = distinct !DISubprogram(name: "as_mut_ptr<core::ptr::swap_nonoverlapping_bytes::Block>", linkageName: "_ZN4core3mem12maybe_uninit20MaybeUninit$LT$T$GT$10as_mut_ptr17ha2f344385d93e648E", scope: !699, file: !763, line: 488, type: !769, scopeLine: 488, flags: DIFlagPrototyped, spFlags: DISPFlagLocalToUnit | DISPFlagDefinition, unit: !6, templateParams: !715, retainedNodes: !773)
!769 = !DISubroutineType(types: !770)
!770 = !{!771, !772}
!771 = !DIDerivedType(tag: DW_TAG_pointer_type, name: "*mut core::ptr::swap_nonoverlapping_bytes::Block", baseType: !708, size: 64, align: 64, dwarfAddressSpace: 0)
!772 = !DIDerivedType(tag: DW_TAG_pointer_type, name: "&mut core::mem::maybe_uninit::MaybeUninit<core::ptr::swap_nonoverlapping_bytes::Block>", baseType: !699, size: 64, align: 64, dwarfAddressSpace: 0)
!773 = !{!767}
!774 = !DILocation(line: 488, column: 29, scope: !768, inlinedAt: !775)
!775 = distinct !DILocation(line: 490, column: 17, scope: !698)
!776 = !DILocation(line: 490, column: 17, scope: !698)
!777 = !DILocation(line: 490, column: 13, scope: !718)
!778 = !DILocation(line: 499, column: 27, scope: !718)
!779 = !DILocation(line: 499, column: 21, scope: !718)
!780 = !DILocation(line: 499, column: 17, scope: !720)
!781 = !DILocation(line: 500, column: 27, scope: !720)
!782 = !DILocation(line: 500, column: 21, scope: !720)
!783 = !DILocation(line: 500, column: 17, scope: !722)
!784 = !DILocation(line: 504, column: 13, scope: !722)
!785 = !DILocation(line: 505, column: 13, scope: !722)
!786 = !DILocation(line: 506, column: 13, scope: !722)
!787 = !DILocation(line: 508, column: 9, scope: !718)
!788 = !DILocation(line: 315, column: 9, scope: !789, inlinedAt: !792)
!789 = distinct !DISubprogram(name: "uninit<core::ptr::swap_nonoverlapping_bytes::UnalignedBlock>", linkageName: "_ZN4core3mem12maybe_uninit20MaybeUninit$LT$T$GT$6uninit17he8f6dd4613851a5aE", scope: !725, file: !763, line: 314, type: !790, scopeLine: 314, flags: DIFlagPrototyped, spFlags: DISPFlagLocalToUnit | DISPFlagDefinition, unit: !6, templateParams: !738, retainedNodes: !28)
!790 = !DISubroutineType(types: !791)
!791 = !{!725}
!792 = distinct !DILocation(line: 513, column: 21, scope: !696)
!793 = !DILocation(line: 514, column: 25, scope: !724)
!794 = !DILocation(line: 514, column: 19, scope: !724)
!795 = !DILocation(line: 514, column: 13, scope: !741)
!796 = !DILocalVariable(name: "self", arg: 1, scope: !797, file: !763, line: 488, type: !801)
!797 = distinct !DISubprogram(name: "as_mut_ptr<core::ptr::swap_nonoverlapping_bytes::UnalignedBlock>", linkageName: "_ZN4core3mem12maybe_uninit20MaybeUninit$LT$T$GT$10as_mut_ptr17h489c8ee98e1cad95E", scope: !725, file: !763, line: 488, type: !798, scopeLine: 488, flags: DIFlagPrototyped, spFlags: DISPFlagLocalToUnit | DISPFlagDefinition, unit: !6, templateParams: !738, retainedNodes: !802)
!798 = !DISubroutineType(types: !799)
!799 = !{!800, !801}
!800 = !DIDerivedType(tag: DW_TAG_pointer_type, name: "*mut core::ptr::swap_nonoverlapping_bytes::UnalignedBlock", baseType: !732, size: 64, align: 64, dwarfAddressSpace: 0)
!801 = !DIDerivedType(tag: DW_TAG_pointer_type, name: "&mut core::mem::maybe_uninit::MaybeUninit<core::ptr::swap_nonoverlapping_bytes::UnalignedBlock>", baseType: !725, size: 64, align: 64, dwarfAddressSpace: 0)
!802 = !{!796}
!803 = !DILocation(line: 488, column: 29, scope: !797, inlinedAt: !804)
!804 = distinct !DILocation(line: 516, column: 17, scope: !741)
!805 = !DILocation(line: 490, column: 9, scope: !797, inlinedAt: !804)
!806 = !DILocation(line: 516, column: 17, scope: !741)
!807 = !DILocation(line: 516, column: 13, scope: !743)
!808 = !DILocation(line: 520, column: 27, scope: !743)
!809 = !DILocation(line: 520, column: 21, scope: !743)
!810 = !DILocation(line: 520, column: 17, scope: !745)
!811 = !DILocation(line: 521, column: 27, scope: !745)
!812 = !DILocation(line: 521, column: 21, scope: !745)
!813 = !DILocation(line: 521, column: 17, scope: !747)
!814 = !DILocation(line: 523, column: 13, scope: !747)
!815 = !DILocation(line: 524, column: 13, scope: !747)
!816 = !DILocation(line: 525, column: 13, scope: !747)
!817 = !DILocation(line: 528, column: 2, scope: !686)
!818 = distinct !DISubprogram(name: "read<i32>", linkageName: "_ZN4core3ptr4read17h8013c984b1627d70E", scope: !642, file: !641, line: 689, type: !819, scopeLine: 689, flags: DIFlagPrototyped, spFlags: DISPFlagLocalToUnit | DISPFlagDefinition, unit: !6, templateParams: !433, retainedNodes: !821)
!819 = !DISubroutineType(types: !820)
!820 = !{!400, !460}
!821 = !{!822, !823}
!822 = !DILocalVariable(name: "src", arg: 1, scope: !818, file: !641, line: 689, type: !460)
!823 = !DILocalVariable(name: "tmp", scope: !824, file: !641, line: 690, type: !825, align: 4)
!824 = distinct !DILexicalBlock(scope: !818, file: !641, line: 690, column: 5)
!825 = !DICompositeType(tag: DW_TAG_union_type, name: "MaybeUninit<i32>", scope: !700, file: !10, size: 32, align: 32, elements: !826, templateParams: !433, identifier: "2d60525f2e4b8b7ed1b9c673f0cf1bb")
!826 = !{!827, !828}
!827 = !DIDerivedType(tag: DW_TAG_member, name: "uninit", scope: !825, file: !10, baseType: !210, align: 8)
!828 = !DIDerivedType(tag: DW_TAG_member, name: "value", scope: !825, file: !10, baseType: !829, size: 32, align: 32)
!829 = !DICompositeType(tag: DW_TAG_structure_type, name: "ManuallyDrop<i32>", scope: !705, file: !10, size: 32, align: 32, elements: !830, templateParams: !433, identifier: "14234c7166df863c3bc1bf36d698f3a6")
!830 = !{!831}
!831 = !DIDerivedType(tag: DW_TAG_member, name: "value", scope: !829, file: !10, baseType: !400, size: 32, align: 32)
!832 = !DILocation(line: 689, column: 29, scope: !818)
!833 = !DILocation(line: 690, column: 9, scope: !824)
!834 = !DILocation(line: 315, column: 9, scope: !835, inlinedAt: !838)
!835 = distinct !DISubprogram(name: "uninit<i32>", linkageName: "_ZN4core3mem12maybe_uninit20MaybeUninit$LT$T$GT$6uninit17h224dce64d95e082fE", scope: !825, file: !763, line: 314, type: !836, scopeLine: 314, flags: DIFlagPrototyped, spFlags: DISPFlagLocalToUnit | DISPFlagDefinition, unit: !6, templateParams: !433, retainedNodes: !28)
!836 = !DISubroutineType(types: !837)
!837 = !{!825}
!838 = distinct !DILocation(line: 690, column: 19, scope: !818)
!839 = !DILocation(line: 316, column: 6, scope: !835, inlinedAt: !838)
!840 = !DILocation(line: 690, column: 19, scope: !818)
!841 = !DILocalVariable(name: "self", arg: 1, scope: !842, file: !763, line: 488, type: !845)
!842 = distinct !DISubprogram(name: "as_mut_ptr<i32>", linkageName: "_ZN4core3mem12maybe_uninit20MaybeUninit$LT$T$GT$10as_mut_ptr17h3d42108b88128569E", scope: !825, file: !763, line: 488, type: !843, scopeLine: 488, flags: DIFlagPrototyped, spFlags: DISPFlagLocalToUnit | DISPFlagDefinition, unit: !6, templateParams: !433, retainedNodes: !846)
!843 = !DISubroutineType(types: !844)
!844 = !{!461, !845}
!845 = !DIDerivedType(tag: DW_TAG_pointer_type, name: "&mut core::mem::maybe_uninit::MaybeUninit<i32>", baseType: !825, size: 64, align: 64, dwarfAddressSpace: 0)
!846 = !{!841}
!847 = !DILocation(line: 488, column: 29, scope: !842, inlinedAt: !848)
!848 = distinct !DILocation(line: 698, column: 34, scope: !824)
!849 = !DILocation(line: 698, column: 9, scope: !824)
!850 = !DILocation(line: 699, column: 9, scope: !824)
!851 = !DILocalVariable(name: "self", arg: 1, scope: !852, file: !763, line: 542, type: !825)
!852 = distinct !DISubprogram(name: "assume_init<i32>", linkageName: "_ZN4core3mem12maybe_uninit20MaybeUninit$LT$T$GT$11assume_init17h254de5abe3a7899dE", scope: !825, file: !763, line: 542, type: !853, scopeLine: 542, flags: DIFlagPrototyped, spFlags: DISPFlagLocalToUnit | DISPFlagDefinition, unit: !6, templateParams: !433, retainedNodes: !855)
!853 = !DISubroutineType(types: !854)
!854 = !{!400, !825}
!855 = !{!851}
!856 = !DILocation(line: 542, column: 37, scope: !852, inlinedAt: !857)
!857 = distinct !DILocation(line: 699, column: 9, scope: !824)
!858 = !DILocalVariable(name: "slot", arg: 1, scope: !859, file: !860, line: 87, type: !829)
!859 = distinct !DISubprogram(name: "into_inner<i32>", linkageName: "_ZN4core3mem13manually_drop21ManuallyDrop$LT$T$GT$10into_inner17hcdf97acb58999d75E", scope: !829, file: !860, line: 87, type: !861, scopeLine: 87, flags: DIFlagPrototyped, spFlags: DISPFlagLocalToUnit | DISPFlagDefinition, unit: !6, templateParams: !433, retainedNodes: !863)
!860 = !DIFile(filename: "/rustc/2fd73fabe469357a12c2c974c140f67e7cdd76d0/library/core/src/mem/manually_drop.rs", directory: "", checksumkind: CSK_MD5, checksum: "1ebb77b55900bbb941b074f7b36dbdc1")
!861 = !DISubroutineType(types: !862)
!862 = !{!400, !829}
!863 = !{!858}
!864 = !DILocation(line: 87, column: 29, scope: !859, inlinedAt: !865)
!865 = distinct !DILocation(line: 547, column: 13, scope: !852, inlinedAt: !857)
!866 = !DILocation(line: 701, column: 2, scope: !818)
!867 = distinct !DISubprogram(name: "write<i32>", linkageName: "_ZN4core3ptr5write17h01f63a03ad007a3fE", scope: !642, file: !641, line: 883, type: !868, scopeLine: 883, flags: DIFlagPrototyped, spFlags: DISPFlagLocalToUnit | DISPFlagDefinition, unit: !6, templateParams: !433, retainedNodes: !870)
!868 = !DISubroutineType(types: !869)
!869 = !{null, !461, !400}
!870 = !{!871, !872}
!871 = !DILocalVariable(name: "dst", arg: 1, scope: !867, file: !641, line: 883, type: !461)
!872 = !DILocalVariable(name: "src", arg: 2, scope: !867, file: !641, line: 883, type: !400)
!873 = !DILocation(line: 883, column: 24, scope: !867)
!874 = !DILocation(line: 883, column: 37, scope: !867)
!875 = !DILocation(line: 894, column: 9, scope: !867)
!876 = !DILocation(line: 895, column: 28, scope: !867)
!877 = !DILocation(line: 897, column: 2, scope: !867)
!878 = distinct !DISubprogram(name: "next<i32>", linkageName: "_ZN4core4iter5range101_$LT$impl$u20$core..iter..traits..iterator..Iterator$u20$for$u20$core..ops..range..Range$LT$A$GT$$GT$4next17hdfaa673656eaaa87E", scope: !442, file: !441, line: 506, type: !879, scopeLine: 506, flags: DIFlagPrototyped, spFlags: DISPFlagLocalToUnit | DISPFlagDefinition, unit: !6, templateParams: !905, retainedNodes: !901)
!879 = !DISubroutineType(types: !880)
!880 = !{!881, !892}
!881 = !DICompositeType(tag: DW_TAG_structure_type, name: "Option<i32>", scope: !87, file: !10, size: 64, align: 32, elements: !882, identifier: "c530bcf281872ee01fcba67202fe6e74")
!882 = !{!883}
!883 = !DICompositeType(tag: DW_TAG_variant_part, scope: !87, file: !10, size: 64, align: 32, elements: !884, templateParams: !433, identifier: "c530bcf281872ee01fcba67202fe6e74_variant_part", discriminator: !891)
!884 = !{!885, !887}
!885 = !DIDerivedType(tag: DW_TAG_member, name: "None", scope: !883, file: !10, baseType: !886, size: 64, align: 32, extraData: i64 0)
!886 = !DICompositeType(tag: DW_TAG_structure_type, name: "None", scope: !881, file: !10, size: 64, align: 32, elements: !28, templateParams: !433, identifier: "c530bcf281872ee01fcba67202fe6e74::None")
!887 = !DIDerivedType(tag: DW_TAG_member, name: "Some", scope: !883, file: !10, baseType: !888, size: 64, align: 32, extraData: i64 1)
!888 = !DICompositeType(tag: DW_TAG_structure_type, name: "Some", scope: !881, file: !10, size: 64, align: 32, elements: !889, templateParams: !433, identifier: "c530bcf281872ee01fcba67202fe6e74::Some")
!889 = !{!890}
!890 = !DIDerivedType(tag: DW_TAG_member, name: "__0", scope: !888, file: !10, baseType: !400, size: 32, align: 32, offset: 32)
!891 = !DIDerivedType(tag: DW_TAG_member, scope: !87, file: !10, baseType: !122, size: 32, align: 32, flags: DIFlagArtificial)
!892 = !DIDerivedType(tag: DW_TAG_pointer_type, name: "&mut core::ops::range::Range<i32>", baseType: !893, size: 64, align: 64, dwarfAddressSpace: 0)
!893 = !DICompositeType(tag: DW_TAG_structure_type, name: "Range<i32>", scope: !894, file: !10, size: 64, align: 32, elements: !896, templateParams: !899, identifier: "5016fc06eb063a342d9aee8b882afb48")
!894 = !DINamespace(name: "range", scope: !895)
!895 = !DINamespace(name: "ops", scope: !12)
!896 = !{!897, !898}
!897 = !DIDerivedType(tag: DW_TAG_member, name: "start", scope: !893, file: !10, baseType: !400, size: 32, align: 32)
!898 = !DIDerivedType(tag: DW_TAG_member, name: "end", scope: !893, file: !10, baseType: !400, size: 32, align: 32, offset: 32)
!899 = !{!900}
!900 = !DITemplateTypeParameter(name: "Idx", type: !400)
!901 = !{!902, !903}
!902 = !DILocalVariable(name: "self", arg: 1, scope: !878, file: !441, line: 506, type: !892)
!903 = !DILocalVariable(name: "n", scope: !904, file: !441, line: 509, type: !400, align: 4)
!904 = distinct !DILexicalBlock(scope: !878, file: !441, line: 509, column: 13)
!905 = !{!906}
!906 = !DITemplateTypeParameter(name: "A", type: !400)
!907 = !DILocation(line: 506, column: 13, scope: !878)
!908 = !DILocation(line: 507, column: 12, scope: !878)
!909 = !DILocation(line: 507, column: 25, scope: !878)
!910 = !DILocation(line: 507, column: 9, scope: !878)
!911 = !DILocation(line: 509, column: 54, scope: !878)
!912 = !DILocation(line: 509, column: 30, scope: !878)
!913 = !DILocation(line: 509, column: 17, scope: !904)
!914 = !DILocation(line: 510, column: 31, scope: !904)
!915 = !DILocation(line: 510, column: 18, scope: !904)
!916 = !DILocation(line: 510, column: 13, scope: !904)
!917 = !DILocation(line: 512, column: 13, scope: !878)
!918 = !DILocation(line: 514, column: 6, scope: !878)
!919 = !{i32 0, i32 2}
!920 = distinct !DISubprogram(name: "clone", linkageName: "_ZN4core5clone5impls52_$LT$impl$u20$core..clone..Clone$u20$for$u20$i32$GT$5clone17hf78f200d3cc614ccE", scope: !922, file: !921, line: 181, type: !925, scopeLine: 181, flags: DIFlagPrototyped, spFlags: DISPFlagLocalToUnit | DISPFlagDefinition, unit: !6, templateParams: !28, retainedNodes: !927)
!921 = !DIFile(filename: "/rustc/2fd73fabe469357a12c2c974c140f67e7cdd76d0/library/core/src/clone.rs", directory: "", checksumkind: CSK_MD5, checksum: "ac8d71a1ea6619659fbd99e3ca3df933")
!922 = !DINamespace(name: "{{impl}}", scope: !923)
!923 = !DINamespace(name: "impls", scope: !924)
!924 = !DINamespace(name: "clone", scope: !12)
!925 = !DISubroutineType(types: !926)
!926 = !{!400, !399}
!927 = !{!928}
!928 = !DILocalVariable(name: "self", arg: 1, scope: !920, file: !921, line: 181, type: !399)
!929 = !DILocation(line: 181, column: 30, scope: !920)
!930 = !DILocation(line: 182, column: 25, scope: !920)
!931 = !DILocation(line: 183, column: 22, scope: !920)
!932 = distinct !DISubprogram(name: "into_iter<core::ops::range::Range<i32>>", linkageName: "_ZN63_$LT$I$u20$as$u20$core..iter..traits..collect..IntoIterator$GT$9into_iter17hb0b1d6bdda2fa8b0E", scope: !934, file: !933, line: 240, type: !937, scopeLine: 240, flags: DIFlagPrototyped, spFlags: DISPFlagLocalToUnit | DISPFlagDefinition, unit: !6, templateParams: !941, retainedNodes: !939)
!933 = !DIFile(filename: "/rustc/2fd73fabe469357a12c2c974c140f67e7cdd76d0/library/core/src/iter/traits/collect.rs", directory: "", checksumkind: CSK_MD5, checksum: "3854390627f76d1db63c99cc13806055")
!934 = !DINamespace(name: "{{impl}}", scope: !935)
!935 = !DINamespace(name: "collect", scope: !936)
!936 = !DINamespace(name: "traits", scope: !444)
!937 = !DISubroutineType(types: !938)
!938 = !{!893, !893}
!939 = !{!940}
!940 = !DILocalVariable(name: "self", arg: 1, scope: !932, file: !933, line: 240, type: !893)
!941 = !{!942}
!942 = !DITemplateTypeParameter(name: "I", type: !893)
!943 = !DILocation(line: 240, column: 18, scope: !932)
!944 = !DILocation(line: 242, column: 6, scope: !932)
!945 = distinct !DISubprogram(name: "from_bytes_with_nul_unchecked", linkageName: "_ZN9cstr_core4CStr29from_bytes_with_nul_unchecked17hc5c7ee9b72f6f886E", scope: !947, file: !946, line: 1162, type: !953, scopeLine: 1162, flags: DIFlagPrototyped, spFlags: DISPFlagLocalToUnit | DISPFlagDefinition, unit: !6, templateParams: !28, retainedNodes: !960)
!946 = !DIFile(filename: "/home/ubuntu/.cargo/registry/src/github.com-1ecc6299db9ec823/cstr_core-0.2.5/src/lib.rs", directory: "", checksumkind: CSK_MD5, checksum: "3a4727b3481b2bcf3c156ce21ae07237")
!947 = !DICompositeType(tag: DW_TAG_structure_type, name: "CStr", scope: !45, file: !10, align: 8, elements: !948, templateParams: !28, identifier: "24bbd375d8ef8895a356feb6cae0c1a6")
!948 = !{!949}
!949 = !DIDerivedType(tag: DW_TAG_member, name: "inner", scope: !947, file: !10, baseType: !950, align: 8)
!950 = !DICompositeType(tag: DW_TAG_array_type, baseType: !34, align: 8, elements: !951)
!951 = !{!952}
!952 = !DISubrange(count: -1)
!953 = !DISubroutineType(types: !954)
!954 = !{!955, !956}
!955 = !DIDerivedType(tag: DW_TAG_pointer_type, name: "&cstr_core::CStr", baseType: !947, size: 128, align: 64, dwarfAddressSpace: 0)
!956 = !DICompositeType(tag: DW_TAG_structure_type, name: "&[u8]", file: !10, size: 128, align: 64, elements: !957, templateParams: !28, identifier: "585202bcfc7dfd1dd72e8befe2491ee4")
!957 = !{!958, !959}
!958 = !DIDerivedType(tag: DW_TAG_member, name: "data_ptr", scope: !956, file: !10, baseType: !145, size: 64, align: 64)
!959 = !DIDerivedType(tag: DW_TAG_member, name: "length", scope: !956, file: !10, baseType: !53, size: 64, align: 64, offset: 64)
!960 = !{!961}
!961 = !DILocalVariable(name: "bytes", arg: 1, scope: !945, file: !946, line: 1162, type: !956)
!962 = !DILocation(line: 1162, column: 49, scope: !945)
!963 = !DILocation(line: 1163, column: 11, scope: !945)
!964 = !DILocation(line: 1164, column: 6, scope: !945)
!965 = distinct !DISubprogram(name: "as_ptr", linkageName: "_ZN9cstr_core4CStr6as_ptr17hbd2976e9ba5ef15eE", scope: !947, file: !946, line: 1214, type: !966, scopeLine: 1214, flags: DIFlagPrototyped, spFlags: DISPFlagLocalToUnit | DISPFlagDefinition, unit: !6, templateParams: !28, retainedNodes: !969)
!966 = !DISubroutineType(types: !967)
!967 = !{!968, !955}
!968 = !DIDerivedType(tag: DW_TAG_pointer_type, name: "*const i8", baseType: !34, size: 64, align: 64, dwarfAddressSpace: 0)
!969 = !{!970}
!970 = !DILocalVariable(name: "self", arg: 1, scope: !965, file: !946, line: 1214, type: !955)
!971 = !DILocation(line: 1214, column: 25, scope: !965)
!972 = !DILocation(line: 1215, column: 9, scope: !965)
!973 = !DILocation(line: 1216, column: 6, scope: !965)
!974 = distinct !DISubprogram(name: "fact_rec", linkageName: "_ZN4fact8fact_rec17ha139d49a18ae97a3E", scope: !976, file: !975, line: 8, type: !977, scopeLine: 8, flags: DIFlagPrototyped, spFlags: DISPFlagLocalToUnit | DISPFlagDefinition, unit: !6, templateParams: !28, retainedNodes: !979)
!975 = !DIFile(filename: "src/main.rs", directory: "/home/ubuntu/container-data/fact", checksumkind: CSK_MD5, checksum: "2aeb3e6fa33e23abca17c53d31d3b126")
!976 = !DINamespace(name: "fact", scope: null)
!977 = !DISubroutineType(types: !978)
!978 = !{!400, !400}
!979 = !{!980}
!980 = !DILocalVariable(name: "n", arg: 1, scope: !974, file: !975, line: 8, type: !400)
!981 = !DILocation(line: 8, column: 13, scope: !974)
!982 = !DILocation(line: 9, column: 8, scope: !974)
!983 = !DILocation(line: 9, column: 5, scope: !974)
!984 = !DILocation(line: 10, column: 16, scope: !974)
!985 = !DILocation(line: 14, column: 2, scope: !974)
!986 = !DILocation(line: 12, column: 22, scope: !974)
!987 = !DILocation(line: 12, column: 13, scope: !974)
!988 = !DILocation(line: 12, column: 9, scope: !974)
!989 = distinct !DISubprogram(name: "fact_iter", linkageName: "_ZN4fact9fact_iter17h9eb64fbc52d6cbf0E", scope: !976, file: !975, line: 16, type: !977, scopeLine: 16, flags: DIFlagPrototyped, spFlags: DISPFlagLocalToUnit | DISPFlagDefinition, unit: !6, templateParams: !28, retainedNodes: !990)
!990 = !{!991, !992, !994, !996, !998, !1000}
!991 = !DILocalVariable(name: "n", arg: 1, scope: !989, file: !975, line: 16, type: !400)
!992 = !DILocalVariable(name: "prod", scope: !993, file: !975, line: 17, type: !400, align: 4)
!993 = distinct !DILexicalBlock(scope: !989, file: !975, line: 17, column: 5)
!994 = !DILocalVariable(name: "iter", scope: !995, file: !975, line: 22, type: !893, align: 4)
!995 = distinct !DILexicalBlock(scope: !993, file: !975, line: 22, column: 9)
!996 = !DILocalVariable(name: "__next", scope: !997, file: !975, line: 22, type: !400, align: 4)
!997 = distinct !DILexicalBlock(scope: !995, file: !975, line: 22, column: 18)
!998 = !DILocalVariable(name: "val", scope: !999, file: !975, line: 22, type: !400, align: 4)
!999 = distinct !DILexicalBlock(scope: !997, file: !975, line: 22, column: 13)
!1000 = !DILocalVariable(name: "x", scope: !1001, file: !975, line: 22, type: !400, align: 4)
!1001 = distinct !DILexicalBlock(scope: !997, file: !975, line: 22, column: 18)
!1002 = !DILocation(line: 16, column: 14, scope: !989)
!1003 = !DILocation(line: 17, column: 9, scope: !993)
!1004 = !DILocation(line: 22, column: 18, scope: !995)
!1005 = !DILocation(line: 17, column: 20, scope: !989)
!1006 = !DILocation(line: 19, column: 8, scope: !993)
!1007 = !DILocation(line: 19, column: 5, scope: !993)
!1008 = !DILocation(line: 20, column: 16, scope: !993)
!1009 = !DILocation(line: 1, column: 1, scope: !993)
!1010 = !DILocation(line: 22, column: 18, scope: !993)
!1011 = !DILocation(line: 22, column: 9, scope: !995)
!1012 = !DILocation(line: 22, column: 18, scope: !997)
!1013 = !DILocation(line: 22, column: 13, scope: !997)
!1014 = !DILocation(line: 26, column: 12, scope: !993)
!1015 = !DILocation(line: 26, column: 5, scope: !993)
!1016 = !DILocation(line: 22, column: 13, scope: !999)
!1017 = !DILocation(line: 22, column: 13, scope: !1001)
!1018 = !DILocation(line: 23, column: 13, scope: !1001)
!1019 = !DILocation(line: 27, column: 2, scope: !989)
!1020 = distinct !DISubprogram(name: "fact_test", linkageName: "_ZN4fact9fact_test17h3b0d301d1e2f7b1fE", scope: !976, file: !975, line: 29, type: !1021, scopeLine: 29, flags: DIFlagPrototyped, spFlags: DISPFlagLocalToUnit | DISPFlagDefinition, unit: !6, templateParams: !28, retainedNodes: !1023)
!1021 = !DISubroutineType(types: !1022)
!1022 = !{null, !400}
!1023 = !{!1024, !1025, !1029, !1030, !1034}
!1024 = !DILocalVariable(name: "n", arg: 1, scope: !1020, file: !975, line: 29, type: !400)
!1025 = !DILocalVariable(name: "left_val", scope: !1026, file: !975, line: 31, type: !399, align: 8)
!1026 = !DILexicalBlockFile(scope: !1027, file: !975, discriminator: 0)
!1027 = distinct !DILexicalBlock(scope: !1020, file: !1028, line: 59, column: 13)
!1028 = !DIFile(filename: "/rustc/2fd73fabe469357a12c2c974c140f67e7cdd76d0/library/core/src/macros/mod.rs", directory: "", checksumkind: CSK_MD5, checksum: "8dc86145dd8e4ae659181a1e81cd58e2")
!1029 = !DILocalVariable(name: "right_val", scope: !1026, file: !975, line: 31, type: !399, align: 8)
!1030 = !DILocalVariable(name: "arg0", scope: !1031, file: !975, line: 31, type: !398, align: 8)
!1031 = !DILexicalBlockFile(scope: !1032, file: !975, discriminator: 0)
!1032 = distinct !DILexicalBlock(scope: !1027, file: !1033, line: 24, column: 38)
!1033 = !DIFile(filename: "/rustc/2fd73fabe469357a12c2c974c140f67e7cdd76d0/library/core/src/panic.rs", directory: "", checksumkind: CSK_MD5, checksum: "4b2dd965887c76cebc0a34a2a83ddd98")
!1034 = !DILocalVariable(name: "arg1", scope: !1031, file: !975, line: 31, type: !398, align: 8)
!1035 = !DILocation(line: 29, column: 14, scope: !1020)
!1036 = !DILocation(line: 31, column: 16, scope: !1020)
!1037 = !DILocation(line: 31, column: 29, scope: !1020)
!1038 = !DILocation(line: 31, column: 5, scope: !1020)
!1039 = !DILocation(line: 31, column: 5, scope: !1026)
!1040 = !DILocation(line: 31, column: 5, scope: !1031)
!1041 = !DILocation(line: 32, column: 2, scope: !1020)
!1042 = distinct !DISubprogram(name: "main", scope: !976, file: !975, line: 35, type: !1043, scopeLine: 35, flags: DIFlagPrototyped, spFlags: DISPFlagDefinition, unit: !6, templateParams: !28, retainedNodes: !1045)
!1043 = !DISubroutineType(types: !1044)
!1044 = !{null}
!1045 = !{!1046}
!1046 = !DILocalVariable(name: "n", scope: !1047, file: !975, line: 36, type: !400, align: 4)
!1047 = distinct !DILexicalBlock(scope: !1042, file: !975, line: 36, column: 5)
!1048 = !DILocation(line: 36, column: 9, scope: !1047)
!1049 = !DILocation(line: 36, column: 22, scope: !1042)
!1050 = !{!1051}
!1051 = distinct !{!1051, !1052, !"_ZN4core3str21_$LT$impl$u20$str$GT$8as_bytes17hd4a894810077290dE: %self.0"}
!1052 = distinct !{!1052, !"_ZN4core3str21_$LT$impl$u20$str$GT$8as_bytes17hd4a894810077290dE"}
!1053 = !DILocalVariable(name: "self", arg: 1, scope: !1054, file: !1055, line: 224, type: !538)
!1054 = distinct !DISubprogram(name: "as_bytes", linkageName: "_ZN4core3str21_$LT$impl$u20$str$GT$8as_bytes17hd4a894810077290dE", scope: !1056, file: !1055, line: 224, type: !1058, scopeLine: 224, flags: DIFlagPrototyped, spFlags: DISPFlagLocalToUnit | DISPFlagDefinition, unit: !6, templateParams: !28, retainedNodes: !1060)
!1055 = !DIFile(filename: "/rustc/2fd73fabe469357a12c2c974c140f67e7cdd76d0/library/core/src/str/mod.rs", directory: "", checksumkind: CSK_MD5, checksum: "288711a6cf0e0d8143d78b5fe87cac66")
!1056 = !DINamespace(name: "{{impl}}", scope: !1057)
!1057 = !DINamespace(name: "str", scope: !12)
!1058 = !DISubroutineType(types: !1059)
!1059 = !{!956, !538}
!1060 = !{!1053}
!1061 = !DILocation(line: 224, column: 27, scope: !1054, inlinedAt: !1062)
!1062 = distinct !DILocation(line: 37, column: 5, scope: !1047)
!1063 = !DILocation(line: 226, column: 18, scope: !1054, inlinedAt: !1062)
!1064 = !DILocation(line: 227, column: 6, scope: !1054, inlinedAt: !1062)
!1065 = !DILocation(line: 37, column: 5, scope: !1047)
!1066 = !{!1067}
!1067 = distinct !{!1067, !1068, !"_ZN8klee_sys17lib_klee_analysis18klee_make_symbolic17h17cf586e8654d317E: %name.0"}
!1068 = distinct !{!1068, !"_ZN8klee_sys17lib_klee_analysis18klee_make_symbolic17h17cf586e8654d317E"}
!1069 = !DILocalVariable(name: "t", arg: 1, scope: !1070, file: !1071, line: 17, type: !608)
!1070 = distinct !DISubprogram(name: "klee_make_symbolic<i32>", linkageName: "_ZN8klee_sys17lib_klee_analysis18klee_make_symbolic17h17cf586e8654d317E", scope: !1072, file: !1071, line: 17, type: !1074, scopeLine: 17, flags: DIFlagPrototyped, spFlags: DISPFlagLocalToUnit | DISPFlagDefinition, unit: !6, templateParams: !433, retainedNodes: !1076)
!1071 = !DIFile(filename: "/home/ubuntu/.cargo/git/checkouts/klee-sys-7ee2aa8a1a6bbc46/9f462cc/src/lib_klee_analysis.rs", directory: "", checksumkind: CSK_MD5, checksum: "e3bdc37403934781364daca8b62851bf")
!1072 = !DINamespace(name: "lib_klee_analysis", scope: !1073)
!1073 = !DINamespace(name: "klee_sys", scope: null)
!1074 = !DISubroutineType(types: !1075)
!1075 = !{null, !608, !955}
!1076 = !{!1069, !1077}
!1077 = !DILocalVariable(name: "name", arg: 2, scope: !1070, file: !1071, line: 17, type: !955)
!1078 = !DILocation(line: 17, column: 30, scope: !1070, inlinedAt: !1079)
!1079 = distinct !DILocation(line: 37, column: 5, scope: !1047)
!1080 = !DILocation(line: 17, column: 41, scope: !1070, inlinedAt: !1079)
!1081 = !DILocation(line: 20, column: 13, scope: !1070, inlinedAt: !1079)
!1082 = !DILocation(line: 22, column: 13, scope: !1070, inlinedAt: !1079)
!1083 = !DILocation(line: 19, column: 9, scope: !1070, inlinedAt: !1079)
!1084 = !DILocation(line: 38, column: 15, scope: !1047)
!1085 = !DILocation(line: 38, column: 5, scope: !1047)
!1086 = !DILocation(line: 39, column: 2, scope: !1042)
!1087 = distinct !DISubprogram(name: "panic", linkageName: "_ZN4core9panicking5panic17h07405d6be4bce887E", scope: !1089, file: !1088, line: 39, type: !1090, scopeLine: 39, flags: DIFlagPrototyped | DIFlagNoReturn, spFlags: DISPFlagDefinition | DISPFlagOptimized, unit: !26, templateParams: !28, retainedNodes: !28)
!1088 = !DIFile(filename: "library/core/src/panicking.rs", directory: "/rustc/2fd73fabe469357a12c2c974c140f67e7cdd76d0/", checksumkind: CSK_MD5, checksum: "10dfc2feb63a9eaaccae13649da4c2f4")
!1089 = !DINamespace(name: "panicking", scope: !12)
!1090 = !DISubroutineType(types: !28)
!1091 = !DILocation(line: 50, column: 15, scope: !1087)
!1092 = !DILocation(line: 50, column: 39, scope: !1087)
!1093 = !DILocation(line: 314, column: 9, scope: !1094, inlinedAt: !1097)
!1094 = distinct !DISubprogram(name: "new_v1", linkageName: "_ZN4core3fmt9Arguments6new_v117hb7d5c859a9eeb48fE", scope: !1096, file: !1095, line: 313, type: !1090, scopeLine: 313, flags: DIFlagPrototyped, spFlags: DISPFlagLocalToUnit | DISPFlagDefinition | DISPFlagOptimized, unit: !26, templateParams: !28, retainedNodes: !28)
!1095 = !DIFile(filename: "library/core/src/fmt/mod.rs", directory: "/rustc/2fd73fabe469357a12c2c974c140f67e7cdd76d0/", checksumkind: CSK_MD5, checksum: "9c2303bc954c30225b64b2e88dce24d2")
!1096 = !DINamespace(name: "Arguments", scope: !20)
!1097 = distinct !DILocation(line: 50, column: 15, scope: !1087)
!1098 = !{!1099}
!1099 = distinct !{!1099, !1100, !"_ZN4core3fmt9Arguments6new_v117hb7d5c859a9eeb48fE: argument 0"}
!1100 = distinct !{!1100, !"_ZN4core3fmt9Arguments6new_v117hb7d5c859a9eeb48fE"}
!1101 = !{!1102, !1103}
!1102 = distinct !{!1102, !1100, !"_ZN4core3fmt9Arguments6new_v117hb7d5c859a9eeb48fE: argument 1"}
!1103 = distinct !{!1103, !1100, !"_ZN4core3fmt9Arguments6new_v117hb7d5c859a9eeb48fE: argument 2"}
!1104 = !DILocation(line: 50, column: 5, scope: !1087)
!1105 = distinct !DISubprogram(name: "fmt", linkageName: "_ZN4core3fmt3num3imp52_$LT$impl$u20$core..fmt..Display$u20$for$u20$u64$GT$3fmt17h48d894a52c575073E", scope: !1107, file: !1106, line: 279, type: !1090, scopeLine: 279, flags: DIFlagPrototyped, spFlags: DISPFlagDefinition | DISPFlagOptimized, unit: !26, templateParams: !28, retainedNodes: !28)
!1106 = !DIFile(filename: "library/core/src/fmt/num.rs", directory: "/rustc/2fd73fabe469357a12c2c974c140f67e7cdd76d0/", checksumkind: CSK_MD5, checksum: "9015781b6b0707b2f9013dc3bf8db592")
!1107 = !DINamespace(name: "{{impl}}", scope: !1108)
!1108 = !DINamespace(name: "imp", scope: !513)
!1109 = !DILocation(line: 45, column: 37, scope: !1110, inlinedAt: !1111)
!1110 = distinct !DISubprogram(name: "to_u64", linkageName: "_ZN50_$LT$u64$u20$as$u20$core..fmt..num..DisplayInt$GT$6to_u6417hb7939d125f1434faE", scope: !512, file: !1106, line: 45, type: !1090, scopeLine: 45, flags: DIFlagPrototyped, spFlags: DISPFlagDefinition | DISPFlagOptimized, unit: !26, templateParams: !28, retainedNodes: !28)
!1111 = distinct !DILocation(line: 0, scope: !1105)
!1112 = !{!1113}
!1113 = distinct !{!1113, !1114, !"_ZN50_$LT$u64$u20$as$u20$core..fmt..num..DisplayInt$GT$6to_u6417hb7939d125f1434faE: argument 0"}
!1114 = distinct !{!1114, !"_ZN50_$LT$u64$u20$as$u20$core..fmt..num..DisplayInt$GT$6to_u6417hb7939d125f1434faE"}
!1115 = !DILocation(line: 213, column: 17, scope: !1116, inlinedAt: !1117)
!1116 = distinct !DISubprogram(name: "fmt_u64", linkageName: "_ZN4core3fmt3num3imp7fmt_u6417hfe0084196fb8e906E", scope: !1108, file: !1106, line: 211, type: !1090, scopeLine: 211, flags: DIFlagPrototyped, spFlags: DISPFlagLocalToUnit | DISPFlagDefinition | DISPFlagOptimized, unit: !26, templateParams: !28, retainedNodes: !28)
!1117 = distinct !DILocation(line: 287, column: 17, scope: !1105)
!1118 = !DILocation(line: 213, column: 27, scope: !1116, inlinedAt: !1117)
!1119 = !DILocation(line: 230, column: 23, scope: !1116, inlinedAt: !1117)
!1120 = !DILocation(line: 230, column: 17, scope: !1116, inlinedAt: !1117)
!1121 = !DILocation(line: 0, scope: !1116, inlinedAt: !1117)
!1122 = !DILocation(line: 249, column: 20, scope: !1116, inlinedAt: !1117)
!1123 = !DILocation(line: 249, column: 17, scope: !1116, inlinedAt: !1117)
!1124 = !DILocation(line: 231, column: 31, scope: !1116, inlinedAt: !1117)
!1125 = !DILocation(line: 232, column: 21, scope: !1116, inlinedAt: !1117)
!1126 = !DILocation(line: 234, column: 30, scope: !1116, inlinedAt: !1117)
!1127 = !DILocation(line: 235, column: 30, scope: !1116, inlinedAt: !1117)
!1128 = !DILocation(line: 236, column: 21, scope: !1116, inlinedAt: !1117)
!1129 = !DILocation(line: 225, column: 18, scope: !1130, inlinedAt: !1134)
!1130 = distinct !DISubprogram(name: "offset<u8>", linkageName: "_ZN4core3ptr9const_ptr33_$LT$impl$u20$$BP$const$u20$T$GT$6offset17h1c1dd0a334f9f4bbE", scope: !1132, file: !1131, line: 220, type: !1090, scopeLine: 220, flags: DIFlagPrototyped, spFlags: DISPFlagLocalToUnit | DISPFlagDefinition | DISPFlagOptimized, unit: !26, templateParams: !28, retainedNodes: !28)
!1131 = !DIFile(filename: "library/core/src/ptr/const_ptr.rs", directory: "/rustc/2fd73fabe469357a12c2c974c140f67e7cdd76d0/", checksumkind: CSK_MD5, checksum: "d71a4e6613312479d99761d4ddd6f5e6")
!1132 = !DINamespace(name: "{{impl}}", scope: !1133)
!1133 = !DINamespace(name: "const_ptr", scope: !642)
!1134 = distinct !DILocation(line: 241, column: 46, scope: !1116, inlinedAt: !1117)
!1135 = !DILocation(line: 232, column: 18, scope: !1136, inlinedAt: !1140)
!1136 = distinct !DISubprogram(name: "offset<u8>", linkageName: "_ZN4core3ptr7mut_ptr31_$LT$impl$u20$$BP$mut$u20$T$GT$6offset17h05836a60a0e6540cE", scope: !1138, file: !1137, line: 225, type: !1090, scopeLine: 225, flags: DIFlagPrototyped, spFlags: DISPFlagLocalToUnit | DISPFlagDefinition | DISPFlagOptimized, unit: !26, templateParams: !28, retainedNodes: !28)
!1137 = !DIFile(filename: "library/core/src/ptr/mut_ptr.rs", directory: "/rustc/2fd73fabe469357a12c2c974c140f67e7cdd76d0/", checksumkind: CSK_MD5, checksum: "22ecfe91f60034415df864f724ba4d3c")
!1138 = !DINamespace(name: "{{impl}}", scope: !1139)
!1139 = !DINamespace(name: "mut_ptr", scope: !642)
!1140 = distinct !DILocation(line: 241, column: 66, scope: !1116, inlinedAt: !1117)
!1141 = !DILocation(line: 1861, column: 14, scope: !1142, inlinedAt: !1144)
!1142 = distinct !DISubprogram(name: "copy_nonoverlapping<u8>", linkageName: "_ZN4core10intrinsics19copy_nonoverlapping17hfea80e97d011d098E", scope: !457, file: !1143, line: 1843, type: !1090, scopeLine: 1843, flags: DIFlagPrototyped, spFlags: DISPFlagLocalToUnit | DISPFlagDefinition | DISPFlagOptimized, unit: !26, templateParams: !28, retainedNodes: !28)
!1143 = !DIFile(filename: "library/core/src/intrinsics.rs", directory: "/rustc/2fd73fabe469357a12c2c974c140f67e7cdd76d0/", checksumkind: CSK_MD5, checksum: "0e207eea7b158eb9610137138c6779c4")
!1144 = distinct !DILocation(line: 241, column: 21, scope: !1116, inlinedAt: !1117)
!1145 = !DILocation(line: 225, column: 18, scope: !1130, inlinedAt: !1146)
!1146 = distinct !DILocation(line: 242, column: 46, scope: !1116, inlinedAt: !1117)
!1147 = !DILocation(line: 242, column: 81, scope: !1116, inlinedAt: !1117)
!1148 = !DILocation(line: 232, column: 18, scope: !1136, inlinedAt: !1149)
!1149 = distinct !DILocation(line: 242, column: 66, scope: !1116, inlinedAt: !1117)
!1150 = !DILocation(line: 1861, column: 14, scope: !1142, inlinedAt: !1151)
!1151 = distinct !DILocation(line: 242, column: 21, scope: !1116, inlinedAt: !1117)
!1152 = !DILocation(line: 250, column: 30, scope: !1116, inlinedAt: !1117)
!1153 = !DILocation(line: 251, column: 21, scope: !1116, inlinedAt: !1117)
!1154 = !DILocation(line: 252, column: 21, scope: !1116, inlinedAt: !1117)
!1155 = !DILocation(line: 225, column: 18, scope: !1130, inlinedAt: !1156)
!1156 = distinct !DILocation(line: 253, column: 46, scope: !1116, inlinedAt: !1117)
!1157 = !DILocation(line: 232, column: 18, scope: !1136, inlinedAt: !1158)
!1158 = distinct !DILocation(line: 253, column: 66, scope: !1116, inlinedAt: !1117)
!1159 = !DILocation(line: 1861, column: 14, scope: !1142, inlinedAt: !1160)
!1160 = distinct !DILocation(line: 253, column: 21, scope: !1116, inlinedAt: !1117)
!1161 = !DILocation(line: 257, column: 20, scope: !1116, inlinedAt: !1117)
!1162 = !DILocation(line: 257, column: 17, scope: !1116, inlinedAt: !1117)
!1163 = !DILocation(line: 258, column: 21, scope: !1116, inlinedAt: !1117)
!1164 = !DILocation(line: 259, column: 45, scope: !1116, inlinedAt: !1117)
!1165 = !DILocation(line: 232, column: 18, scope: !1136, inlinedAt: !1166)
!1166 = distinct !DILocation(line: 259, column: 22, scope: !1116, inlinedAt: !1117)
!1167 = !DILocation(line: 259, column: 21, scope: !1116, inlinedAt: !1117)
!1168 = !DILocation(line: 261, column: 30, scope: !1116, inlinedAt: !1117)
!1169 = !DILocation(line: 262, column: 21, scope: !1116, inlinedAt: !1117)
!1170 = !DILocation(line: 225, column: 18, scope: !1130, inlinedAt: !1171)
!1171 = distinct !DILocation(line: 263, column: 46, scope: !1116, inlinedAt: !1117)
!1172 = !DILocation(line: 232, column: 18, scope: !1136, inlinedAt: !1173)
!1173 = distinct !DILocation(line: 263, column: 66, scope: !1116, inlinedAt: !1117)
!1174 = !DILocation(line: 1861, column: 14, scope: !1142, inlinedAt: !1175)
!1175 = distinct !DILocation(line: 263, column: 21, scope: !1116, inlinedAt: !1117)
!1176 = !DILocation(line: 232, column: 18, scope: !1136, inlinedAt: !1177)
!1177 = distinct !DILocation(line: 271, column: 43, scope: !1116, inlinedAt: !1117)
!1178 = !DILocation(line: 271, column: 65, scope: !1116, inlinedAt: !1117)
!1179 = !DILocation(line: 273, column: 14, scope: !1180, inlinedAt: !1182)
!1180 = distinct !DISubprogram(name: "slice_from_raw_parts<u8>", linkageName: "_ZN4core3ptr20slice_from_raw_parts17hf53b1cd0d570e425E", scope: !642, file: !1181, line: 269, type: !1090, scopeLine: 269, flags: DIFlagPrototyped, spFlags: DISPFlagLocalToUnit | DISPFlagDefinition | DISPFlagOptimized, unit: !26, templateParams: !28, retainedNodes: !28)
!1181 = !DIFile(filename: "library/core/src/ptr/mod.rs", directory: "/rustc/2fd73fabe469357a12c2c974c140f67e7cdd76d0/", checksumkind: CSK_MD5, checksum: "a4f2d8ba04981bbf92ef9174cf1f1763")
!1182 = distinct !DILocation(line: 96, column: 16, scope: !1183, inlinedAt: !1187)
!1183 = distinct !DISubprogram(name: "from_raw_parts<u8>", linkageName: "_ZN4core5slice3raw14from_raw_parts17h0cb7ca39e9c1a94cE", scope: !1185, file: !1184, line: 89, type: !1090, scopeLine: 89, flags: DIFlagPrototyped, spFlags: DISPFlagLocalToUnit | DISPFlagDefinition | DISPFlagOptimized, unit: !26, templateParams: !28, retainedNodes: !28)
!1184 = !DIFile(filename: "library/core/src/slice/raw.rs", directory: "/rustc/2fd73fabe469357a12c2c974c140f67e7cdd76d0/", checksumkind: CSK_MD5, checksum: "8828542cdef73bc092bc2feeda684133")
!1185 = !DINamespace(name: "raw", scope: !1186)
!1186 = !DINamespace(name: "slice", scope: !12)
!1187 = distinct !DILocation(line: 271, column: 21, scope: !1116, inlinedAt: !1117)
!1188 = !DILocation(line: 273, column: 13, scope: !1116, inlinedAt: !1117)
!1189 = !DILocation(line: 288, column: 14, scope: !1105)
!1190 = distinct !DISubprogram(name: "panic_fmt", linkageName: "_ZN4core9panicking9panic_fmt17hcd56f7f635f62c74E", scope: !1089, file: !1088, line: 77, type: !1090, scopeLine: 77, flags: DIFlagPrototyped | DIFlagNoReturn, spFlags: DISPFlagDefinition | DISPFlagOptimized, unit: !26, templateParams: !28, retainedNodes: !28)
!1191 = !DILocation(line: 89, column: 9, scope: !1190)
!1192 = !DILocation(line: 89, column: 46, scope: !1190)
!1193 = !DILocation(line: 86, column: 9, scope: !1194, inlinedAt: !1198)
!1194 = distinct !DISubprogram(name: "internal_constructor", linkageName: "_ZN4core5panic9PanicInfo20internal_constructor17hdae4be701f994da1E", scope: !1196, file: !1195, line: 81, type: !1090, scopeLine: 81, flags: DIFlagPrototyped, spFlags: DISPFlagLocalToUnit | DISPFlagDefinition | DISPFlagOptimized, unit: !26, templateParams: !28, retainedNodes: !28)
!1195 = !DIFile(filename: "library/core/src/panic.rs", directory: "/rustc/2fd73fabe469357a12c2c974c140f67e7cdd76d0/", checksumkind: CSK_MD5, checksum: "4b2dd965887c76cebc0a34a2a83ddd98")
!1196 = !DINamespace(name: "PanicInfo", scope: !1197)
!1197 = !DINamespace(name: "panic", scope: !12)
!1198 = distinct !DILocation(line: 89, column: 14, scope: !1190)
!1199 = !{!1200}
!1200 = distinct !{!1200, !1201, !"_ZN4core5panic9PanicInfo20internal_constructor17hdae4be701f994da1E: argument 0"}
!1201 = distinct !{!1201, !"_ZN4core5panic9PanicInfo20internal_constructor17hdae4be701f994da1E"}
!1202 = !{!1203, !1204}
!1203 = distinct !{!1203, !1201, !"_ZN4core5panic9PanicInfo20internal_constructor17hdae4be701f994da1E: argument 1"}
!1204 = distinct !{!1204, !1201, !"_ZN4core5panic9PanicInfo20internal_constructor17hdae4be701f994da1E: argument 2"}
!1205 = !DILocation(line: 92, column: 14, scope: !1190)
!1206 = distinct !DISubprogram(name: "drop_in_place<&core::iter::adapters::copied::Copied<core::slice::iter::Iter<u8>>>", linkageName: "_ZN4core3ptr102drop_in_place$LT$$RF$core..iter..adapters..copied..Copied$LT$core..slice..iter..Iter$LT$u8$GT$$GT$$GT$17h5913dccf4681891cE", scope: !642, file: !1181, line: 179, type: !1090, scopeLine: 179, flags: DIFlagPrototyped, spFlags: DISPFlagLocalToUnit | DISPFlagDefinition | DISPFlagOptimized, unit: !26, templateParams: !28, retainedNodes: !28)
!1207 = !DILocation(line: 179, column: 1, scope: !1206)
!1208 = distinct !DISubprogram(name: "type_id<core::panic::{{impl}}::internal_constructor::NoPayload>", linkageName: "_ZN36_$LT$T$u20$as$u20$core..any..Any$GT$7type_id17h108f63b8120e9c9cE", scope: !1210, file: !1209, line: 132, type: !1090, scopeLine: 132, flags: DIFlagPrototyped, spFlags: DISPFlagLocalToUnit | DISPFlagDefinition | DISPFlagOptimized, unit: !26, templateParams: !28, retainedNodes: !28)
!1209 = !DIFile(filename: "library/core/src/any.rs", directory: "/rustc/2fd73fabe469357a12c2c974c140f67e7cdd76d0/", checksumkind: CSK_MD5, checksum: "32c34b48413f866c45095b7ff538e0e3")
!1210 = !DINamespace(name: "{{impl}}", scope: !1211)
!1211 = !DINamespace(name: "any", scope: !12)
!1212 = !DILocation(line: 134, column: 6, scope: !1208)
!1213 = distinct !DISubprogram(name: "pad_integral", linkageName: "_ZN4core3fmt9Formatter12pad_integral17h0f9951fc9f2b13b4E", scope: !1214, file: !1095, line: 1242, type: !1090, scopeLine: 1242, flags: DIFlagPrototyped, spFlags: DISPFlagDefinition | DISPFlagOptimized, unit: !26, templateParams: !28, retainedNodes: !28)
!1214 = !DINamespace(name: "Formatter", scope: !20)
!1215 = !DILocation(line: 1246, column: 9, scope: !1213)
!1216 = !DILocation(line: 1248, column: 13, scope: !1213)
!1217 = !DILocation(line: 0, scope: !1218, inlinedAt: !1219)
!1218 = distinct !DISubprogram(name: "alternate", linkageName: "_ZN4core3fmt9Formatter9alternate17hf76beaf39e40cc25E", scope: !1214, file: !1095, line: 1766, type: !1090, scopeLine: 1766, flags: DIFlagPrototyped, spFlags: DISPFlagDefinition | DISPFlagOptimized, unit: !26, templateParams: !28, retainedNodes: !28)
!1219 = distinct !DILocation(line: 1254, column: 25, scope: !1213)
!1220 = !DILocation(line: 1767, column: 9, scope: !1218, inlinedAt: !1219)
!1221 = !{!1222}
!1222 = distinct !{!1222, !1223, !"_ZN4core3fmt9Formatter9alternate17hf76beaf39e40cc25E: argument 0"}
!1223 = distinct !{!1223, !"_ZN4core3fmt9Formatter9alternate17hf76beaf39e40cc25E"}
!1224 = !DILocation(line: 1712, column: 9, scope: !1225, inlinedAt: !1226)
!1225 = distinct !DISubprogram(name: "sign_plus", linkageName: "_ZN4core3fmt9Formatter9sign_plus17h2767eae8549a0627E", scope: !1214, file: !1095, line: 1711, type: !1090, scopeLine: 1711, flags: DIFlagPrototyped, spFlags: DISPFlagDefinition | DISPFlagOptimized, unit: !26, templateParams: !28, retainedNodes: !28)
!1226 = distinct !DILocation(line: 1249, column: 19, scope: !1213)
!1227 = !{!1228}
!1228 = distinct !{!1228, !1229, !"_ZN4core3fmt9Formatter9sign_plus17h2767eae8549a0627E: argument 0"}
!1229 = distinct !{!1229, !"_ZN4core3fmt9Formatter9sign_plus17h2767eae8549a0627E"}
!1230 = !DILocation(line: 1249, column: 16, scope: !1213)
!1231 = !DILocation(line: 0, scope: !1213)
!1232 = !DILocation(line: 1254, column: 22, scope: !1213)
!1233 = !DILocation(line: 413, column: 9, scope: !1234, inlinedAt: !1237)
!1234 = distinct !DISubprogram(name: "as_ptr<u8>", linkageName: "_ZN4core5slice29_$LT$impl$u20$$u5b$T$u5d$$GT$6as_ptr17hec043657827772c1E", scope: !1236, file: !1235, line: 412, type: !1090, scopeLine: 412, flags: DIFlagPrototyped, spFlags: DISPFlagLocalToUnit | DISPFlagDefinition | DISPFlagOptimized, unit: !26, templateParams: !28, retainedNodes: !28)
!1235 = !DIFile(filename: "library/core/src/slice/mod.rs", directory: "/rustc/2fd73fabe469357a12c2c974c140f67e7cdd76d0/", checksumkind: CSK_MD5, checksum: "ea4e5ca9ae063a46c5941966a2eac2e5")
!1236 = !DINamespace(name: "{{impl}}", scope: !1186)
!1237 = distinct !DILocation(line: 89, column: 19, scope: !1238, inlinedAt: !1242)
!1238 = distinct !DISubprogram(name: "new<u8>", linkageName: "_ZN4core5slice4iter13Iter$LT$T$GT$3new17h81db886277cc9ce3E", scope: !1240, file: !1239, line: 88, type: !1090, scopeLine: 88, flags: DIFlagPrototyped, spFlags: DISPFlagLocalToUnit | DISPFlagDefinition | DISPFlagOptimized, unit: !26, templateParams: !28, retainedNodes: !28)
!1239 = !DIFile(filename: "library/core/src/slice/iter.rs", directory: "/rustc/2fd73fabe469357a12c2c974c140f67e7cdd76d0/", checksumkind: CSK_MD5, checksum: "08d4f6baf81bbaa357b07dc76bcb47a5")
!1240 = !DINamespace(name: "Iter", scope: !1241)
!1241 = !DINamespace(name: "iter", scope: !1186)
!1242 = distinct !DILocation(line: 686, column: 9, scope: !1243, inlinedAt: !1244)
!1243 = distinct !DISubprogram(name: "iter<u8>", linkageName: "_ZN4core5slice29_$LT$impl$u20$$u5b$T$u5d$$GT$4iter17hb75c712129b76290E", scope: !1236, file: !1235, line: 685, type: !1090, scopeLine: 685, flags: DIFlagPrototyped, spFlags: DISPFlagLocalToUnit | DISPFlagDefinition | DISPFlagOptimized, unit: !26, templateParams: !28, retainedNodes: !28)
!1244 = distinct !DILocation(line: 669, column: 23, scope: !1245, inlinedAt: !1247)
!1245 = distinct !DISubprogram(name: "chars", linkageName: "_ZN4core3str21_$LT$impl$u20$str$GT$5chars17h4b1313cdffaddab1E", scope: !1056, file: !1246, line: 668, type: !1090, scopeLine: 668, flags: DIFlagPrototyped, spFlags: DISPFlagLocalToUnit | DISPFlagDefinition | DISPFlagOptimized, unit: !26, templateParams: !28, retainedNodes: !28)
!1246 = !DIFile(filename: "library/core/src/str/mod.rs", directory: "/rustc/2fd73fabe469357a12c2c974c140f67e7cdd76d0/", checksumkind: CSK_MD5, checksum: "288711a6cf0e0d8143d78b5fe87cac66")
!1247 = distinct !DILocation(line: 1255, column: 22, scope: !1213)
!1248 = !DILocation(line: 225, column: 18, scope: !1130, inlinedAt: !1249)
!1249 = distinct !DILocation(line: 503, column: 18, scope: !1250, inlinedAt: !1251)
!1250 = distinct !DISubprogram(name: "add<u8>", linkageName: "_ZN4core3ptr9const_ptr33_$LT$impl$u20$$BP$const$u20$T$GT$3add17he5b49f08637a9fcdE", scope: !1132, file: !1131, line: 498, type: !1090, scopeLine: 498, flags: DIFlagPrototyped, spFlags: DISPFlagLocalToUnit | DISPFlagDefinition | DISPFlagOptimized, unit: !26, templateParams: !28, retainedNodes: !28)
!1251 = distinct !DILocation(line: 97, column: 17, scope: !1238, inlinedAt: !1242)
!1252 = !DILocation(line: 146, column: 24, scope: !1253, inlinedAt: !1256)
!1253 = distinct !DISubprogram(name: "next<u8>", linkageName: "_ZN91_$LT$core..slice..iter..Iter$LT$T$GT$$u20$as$u20$core..iter..traits..iterator..Iterator$GT$4next17hbda8889c62ad52a6E", scope: !1255, file: !1254, line: 134, type: !1090, scopeLine: 134, flags: DIFlagPrototyped, spFlags: DISPFlagLocalToUnit | DISPFlagDefinition | DISPFlagOptimized, unit: !26, templateParams: !28, retainedNodes: !28)
!1254 = !DIFile(filename: "library/core/src/slice/iter/macros.rs", directory: "/rustc/2fd73fabe469357a12c2c974c140f67e7cdd76d0/", checksumkind: CSK_MD5, checksum: "266ebb44ab377576d1a98b8489d2e376")
!1255 = !DINamespace(name: "{{impl}}", scope: !1241)
!1256 = distinct !DILocation(line: 2123, column: 29, scope: !1257, inlinedAt: !1261)
!1257 = distinct !DISubprogram(name: "fold<core::slice::iter::Iter<u8>,usize,closure-0>", linkageName: "_ZN4core4iter6traits8iterator8Iterator4fold17h904537b71d58414aE", scope: !1259, file: !1258, line: 2117, type: !1090, scopeLine: 2117, flags: DIFlagPrototyped, spFlags: DISPFlagLocalToUnit | DISPFlagDefinition | DISPFlagOptimized, unit: !26, templateParams: !28, retainedNodes: !28)
!1258 = !DIFile(filename: "library/core/src/iter/traits/iterator.rs", directory: "/rustc/2fd73fabe469357a12c2c974c140f67e7cdd76d0/", checksumkind: CSK_MD5, checksum: "57122a61091a960b8f938b9d755eb152")
!1259 = !DINamespace(name: "Iterator", scope: !1260)
!1260 = !DINamespace(name: "iterator", scope: !936)
!1261 = distinct !DILocation(line: 120, column: 9, scope: !1262, inlinedAt: !1267)
!1262 = distinct !DISubprogram(name: "fold<usize,core::slice::iter::Iter<u8>,closure-0,usize,fn(usize, usize) -> usize>", linkageName: "_ZN102_$LT$core..iter..adapters..map..Map$LT$I$C$F$GT$$u20$as$u20$core..iter..traits..iterator..Iterator$GT$4fold17h89da0f292d288effE", scope: !1264, file: !1263, line: 116, type: !1090, scopeLine: 116, flags: DIFlagPrototyped, spFlags: DISPFlagLocalToUnit | DISPFlagDefinition | DISPFlagOptimized, unit: !26, templateParams: !28, retainedNodes: !28)
!1263 = !DIFile(filename: "library/core/src/iter/adapters/map.rs", directory: "/rustc/2fd73fabe469357a12c2c974c140f67e7cdd76d0/", checksumkind: CSK_MD5, checksum: "921a8c57f1859f00379dcd09753faa36")
!1264 = !DINamespace(name: "{{impl}}", scope: !1265)
!1265 = !DINamespace(name: "map", scope: !1266)
!1266 = !DINamespace(name: "adapters", scope: !444)
!1267 = distinct !DILocation(line: 46, column: 17, scope: !1268, inlinedAt: !1272)
!1268 = distinct !DISubprogram(name: "sum<core::iter::adapters::map::Map<core::slice::iter::Iter<u8>, closure-0>>", linkageName: "_ZN56_$LT$usize$u20$as$u20$core..iter..traits..accum..Sum$GT$3sum17hc8e167b5aab06543E", scope: !1270, file: !1269, line: 45, type: !1090, scopeLine: 45, flags: DIFlagPrototyped, spFlags: DISPFlagLocalToUnit | DISPFlagDefinition | DISPFlagOptimized, unit: !26, templateParams: !28, retainedNodes: !28)
!1269 = !DIFile(filename: "library/core/src/iter/traits/accum.rs", directory: "/rustc/2fd73fabe469357a12c2c974c140f67e7cdd76d0/", checksumkind: CSK_MD5, checksum: "8d6d3359cea4f565271413105db5b30c")
!1270 = !DINamespace(name: "{{impl}}", scope: !1271)
!1271 = !DINamespace(name: "accum", scope: !936)
!1272 = distinct !DILocation(line: 2925, column: 9, scope: !1273, inlinedAt: !1274)
!1273 = distinct !DISubprogram(name: "sum<core::iter::adapters::map::Map<core::slice::iter::Iter<u8>, closure-0>,usize>", linkageName: "_ZN4core4iter6traits8iterator8Iterator3sum17h9f5cd94ec647ad83E", scope: !1259, file: !1258, line: 2920, type: !1090, scopeLine: 2920, flags: DIFlagPrototyped, spFlags: DISPFlagLocalToUnit | DISPFlagDefinition | DISPFlagOptimized, unit: !26, templateParams: !28, retainedNodes: !28)
!1274 = distinct !DILocation(line: 82, column: 9, scope: !1275, inlinedAt: !1279)
!1275 = distinct !DISubprogram(name: "count<core::slice::iter::Iter<u8>,closure-0>", linkageName: "_ZN108_$LT$core..iter..adapters..filter..Filter$LT$I$C$P$GT$$u20$as$u20$core..iter..traits..iterator..Iterator$GT$5count17h5e029c89f8909584E", scope: !1277, file: !1276, line: 76, type: !1090, scopeLine: 76, flags: DIFlagPrototyped, spFlags: DISPFlagLocalToUnit | DISPFlagDefinition | DISPFlagOptimized, unit: !26, templateParams: !28, retainedNodes: !28)
!1276 = !DIFile(filename: "library/core/src/iter/adapters/filter.rs", directory: "/rustc/2fd73fabe469357a12c2c974c140f67e7cdd76d0/", checksumkind: CSK_MD5, checksum: "d55d0da99bad480830e232c131e69d67")
!1277 = !DINamespace(name: "{{impl}}", scope: !1278)
!1278 = !DINamespace(name: "filter", scope: !1266)
!1279 = distinct !DILocation(line: 50, column: 9, scope: !1280, inlinedAt: !1284)
!1280 = distinct !DISubprogram(name: "count", linkageName: "_ZN81_$LT$core..str..iter..Chars$u20$as$u20$core..iter..traits..iterator..Iterator$GT$5count17h2707b79bd5bf8b2bE", scope: !1282, file: !1281, line: 48, type: !1090, scopeLine: 48, flags: DIFlagPrototyped, spFlags: DISPFlagLocalToUnit | DISPFlagDefinition | DISPFlagOptimized, unit: !26, templateParams: !28, retainedNodes: !28)
!1281 = !DIFile(filename: "library/core/src/str/iter.rs", directory: "/rustc/2fd73fabe469357a12c2c974c140f67e7cdd76d0/", checksumkind: CSK_MD5, checksum: "8055b616800f57c518f5f60619f42e9e")
!1282 = !DINamespace(name: "{{impl}}", scope: !1283)
!1283 = !DINamespace(name: "iter", scope: !1057)
