; ModuleID = 'mult.4wm9v65z-cgu.0'
source_filename = "mult.4wm9v65z-cgu.0"
target datalayout = "e-m:e-p270:32:32-p271:32:32-p272:64:64-i64:64-f80:128-n8:16:32:64-S128"
target triple = "x86_64-unknown-linux-gnu"

%"klee_sys::CStr" = type { [0 x i8], [0 x i8] }
%"core::panic::Location" = type { [0 x i64], { [0 x i8]*, i64 }, [0 x i32], i32, [0 x i32], i32, [0 x i32] }
%"fmt::Arguments" = type { [0 x i64], { [0 x { [0 x i8]*, i64 }]*, i64 }, [0 x i64], { i64*, i64 }, [0 x i64], { [0 x { i8*, i64* }]*, i64 }, [0 x i64] }
%"panic::PanicInfo" = type { [0 x i64], { {}*, [3 x i64]* }, [0 x i64], i64*, [0 x i64], %"core::panic::Location"*, [0 x i64] }

@alloc8 = private unnamed_addr constant <{ [11 x i8] }> <{ [11 x i8] c"src/main.rs" }>, align 1
@alloc6 = private unnamed_addr constant <{ i8*, [16 x i8] }> <{ i8* getelementptr inbounds (<{ [11 x i8] }>, <{ [11 x i8] }>* @alloc8, i32 0, i32 0, i32 0), [16 x i8] c"\0B\00\00\00\00\00\00\00\0A\00\00\00\13\00\00\00" }>, align 8
@str.0 = internal constant [33 x i8] c"attempt to multiply with overflow"
@alloc7 = private unnamed_addr constant <{ [39 x i8] }> <{ [39 x i8] c"assertion failed: 1 <= r && r < 1000000" }>, align 1
@alloc9 = private unnamed_addr constant <{ i8*, [16 x i8] }> <{ i8* getelementptr inbounds (<{ [11 x i8] }>, <{ [11 x i8] }>* @alloc8, i32 0, i32 0, i32 0), [16 x i8] c"\0B\00\00\00\00\00\00\00\0B\00\00\00\11\00\00\00" }>, align 8
@alloc10 = private unnamed_addr constant <{ [2 x i8] }> <{ [2 x i8] c"a\00" }>, align 1
@alloc11 = private unnamed_addr constant <{ [2 x i8] }> <{ [2 x i8] c"b\00" }>, align 1
@anon.965c706604096d42e5b155eaa3c30edf.12 = private unnamed_addr constant <{ [0 x i8] }> zeroinitializer, align 8
@anon.965c706604096d42e5b155eaa3c30edf.177 = private unnamed_addr constant { void ({}*)*, i64, i64, i64 ({}*)* } { void ({}*)* bitcast (void ({ i8*, i8* }**)* @"_ZN4core3ptr102drop_in_place$LT$$RF$core..iter..adapters..copied..Copied$LT$core..slice..iter..Iter$LT$u8$GT$$GT$$GT$17h5913dccf4681891cE" to void ({}*)*), i64 0, i64 1, i64 ({}*)* @"_ZN36_$LT$T$u20$as$u20$core..any..Any$GT$7type_id17h108f63b8120e9c9cE" }, align 8

; cstr_core::CStr::from_bytes_with_nul_unchecked
; Function Attrs: inlinehint norecurse nounwind nonlazybind readnone
define internal { %"klee_sys::CStr"*, i64 } @_ZN9cstr_core4CStr29from_bytes_with_nul_unchecked17h11198e158455988cE([0 x i8]* noalias nonnull readonly align 1 %bytes.0, i64 %bytes.1) unnamed_addr #0 !dbg !385 {
start:
  %bytes.dbg.spill = alloca { [0 x i8]*, i64 }, align 8
  %0 = getelementptr inbounds { [0 x i8]*, i64 }, { [0 x i8]*, i64 }* %bytes.dbg.spill, i32 0, i32 0
  store [0 x i8]* %bytes.0, [0 x i8]** %0, align 8
  %1 = getelementptr inbounds { [0 x i8]*, i64 }, { [0 x i8]*, i64 }* %bytes.dbg.spill, i32 0, i32 1
  store i64 %bytes.1, i64* %1, align 8
  call void @llvm.dbg.declare(metadata { [0 x i8]*, i64 }* %bytes.dbg.spill, metadata !401, metadata !DIExpression()), !dbg !402
  %_2.0 = bitcast [0 x i8]* %bytes.0 to %"klee_sys::CStr"*, !dbg !403
  %2 = insertvalue { %"klee_sys::CStr"*, i64 } undef, %"klee_sys::CStr"* %_2.0, 0, !dbg !404
  %3 = insertvalue { %"klee_sys::CStr"*, i64 } %2, i64 %bytes.1, 1, !dbg !404
  ret { %"klee_sys::CStr"*, i64 } %3, !dbg !404
}

; cstr_core::CStr::as_ptr
; Function Attrs: inlinehint norecurse nounwind nonlazybind readnone
define internal nonnull i8* @_ZN9cstr_core4CStr6as_ptr17he630c7e19197799cE(%"klee_sys::CStr"* noalias nonnull readonly align 1 %self.0, i64 %self.1) unnamed_addr #0 !dbg !405 {
start:
  %self.dbg.spill = alloca { %"klee_sys::CStr"*, i64 }, align 8
  %0 = getelementptr inbounds { %"klee_sys::CStr"*, i64 }, { %"klee_sys::CStr"*, i64 }* %self.dbg.spill, i32 0, i32 0
  store %"klee_sys::CStr"* %self.0, %"klee_sys::CStr"** %0, align 8
  %1 = getelementptr inbounds { %"klee_sys::CStr"*, i64 }, { %"klee_sys::CStr"*, i64 }* %self.dbg.spill, i32 0, i32 1
  store i64 %self.1, i64* %1, align 8
  call void @llvm.dbg.declare(metadata { %"klee_sys::CStr"*, i64 }* %self.dbg.spill, metadata !410, metadata !DIExpression()), !dbg !411
  %_2.0 = bitcast %"klee_sys::CStr"* %self.0 to [0 x i8]*, !dbg !412
; call core::slice::<impl [T]>::as_ptr
  %2 = call i8* @"_ZN4core5slice29_$LT$impl$u20$$u5b$T$u5d$$GT$6as_ptr17h3e32bddb1561f66bE"([0 x i8]* noalias nonnull readonly align 1 %_2.0, i64 %self.1), !dbg !412
  ret i8* %2, !dbg !413
}

; mult::multiply
; Function Attrs: nounwind nonlazybind
define internal void @_ZN4mult8multiply17h2aa65e21c8a60be6E(i32 %a, i32 %b) unnamed_addr #1 !dbg !414 {
start:
  %r.dbg.spill = alloca i32, align 4
  %b.dbg.spill = alloca i32, align 4
  %a.dbg.spill = alloca i32, align 4
  %_19 = alloca i8, align 1
  %_9 = alloca i8, align 1
  %_4 = alloca i8, align 1
  %_3 = alloca i8, align 1
  %0 = alloca {}, align 1
  store i32 %a, i32* %a.dbg.spill, align 4
  call void @llvm.dbg.declare(metadata i32* %a.dbg.spill, metadata !420, metadata !DIExpression()), !dbg !424
  store i32 %b, i32* %b.dbg.spill, align 4
  call void @llvm.dbg.declare(metadata i32* %b.dbg.spill, metadata !421, metadata !DIExpression()), !dbg !425
  %_5 = icmp uge i32 %a, 1, !dbg !426
  %_7 = icmp ule i32 %a, 1000
  %or.cond = and i1 %_5, %_7, !dbg !427
  br i1 %or.cond, label %bb5, label %bb6, !dbg !427

bb1:                                              ; preds = %bb12
  store i8 1, i8* %_3, align 1, !dbg !427
  br label %bb4, !dbg !427

bb2:                                              ; preds = %bb12, %bb8
  store i8 0, i8* %_3, align 1, !dbg !427
  br label %bb4, !dbg !427

bb3:                                              ; preds = %bb8
  %_10 = icmp uge i32 %b, 1, !dbg !428
  %_12 = icmp ule i32 %b, 1000
  %or.cond1 = and i1 %_10, %_12, !dbg !429
  br i1 %or.cond1, label %bb9, label %bb10, !dbg !429

bb4:                                              ; preds = %bb2, %bb1
  %1 = load i8, i8* %_3, align 1, !dbg !430, !range !431
  %2 = trunc i8 %1 to i1, !dbg !430
  br i1 %2, label %bb13, label %bb22, !dbg !430

bb5:                                              ; preds = %start
  store i8 1, i8* %_4, align 1, !dbg !427
  br label %bb8, !dbg !427

bb6:                                              ; preds = %start
  store i8 0, i8* %_4, align 1, !dbg !427
  br label %bb8, !dbg !427

bb8:                                              ; preds = %bb6, %bb5
  %3 = load i8, i8* %_4, align 1, !dbg !427, !range !431
  %4 = trunc i8 %3 to i1, !dbg !427
  br i1 %4, label %bb3, label %bb2, !dbg !427

bb9:                                              ; preds = %bb3
  store i8 1, i8* %_9, align 1, !dbg !429
  br label %bb12, !dbg !429

bb10:                                             ; preds = %bb3
  store i8 0, i8* %_9, align 1, !dbg !429
  br label %bb12, !dbg !429

bb12:                                             ; preds = %bb10, %bb9
  %5 = load i8, i8* %_9, align 1, !dbg !427, !range !431
  %6 = trunc i8 %5 to i1, !dbg !427
  br i1 %6, label %bb1, label %bb2, !dbg !427

bb13:                                             ; preds = %bb4
  %7 = call { i32, i1 } @llvm.umul.with.overflow.i32(i32 %a, i32 %b), !dbg !432
  %_17.0 = extractvalue { i32, i1 } %7, 0, !dbg !432
  %_17.1 = extractvalue { i32, i1 } %7, 1, !dbg !432
  %8 = call i1 @llvm.expect.i1(i1 %_17.1, i1 false), !dbg !432
  br i1 %8, label %panic, label %bb15, !dbg !432

bb15:                                             ; preds = %bb13
  store i32 %_17.0, i32* %r.dbg.spill, align 4, !dbg !432
  call void @llvm.dbg.declare(metadata i32* %r.dbg.spill, metadata !422, metadata !DIExpression()), !dbg !433
  %_20 = icmp ule i32 1, %_17.0, !dbg !434
  %_22 = icmp ult i32 %_17.0, 1000000
  %or.cond2 = and i1 %_20, %_22, !dbg !434
  br i1 %or.cond2, label %bb16, label %bb17, !dbg !434

bb16:                                             ; preds = %bb15
  store i8 1, i8* %_19, align 1, !dbg !434
  br label %bb19, !dbg !434

bb17:                                             ; preds = %bb15
  store i8 0, i8* %_19, align 1, !dbg !434
  br label %bb19, !dbg !434

bb19:                                             ; preds = %bb17, %bb16
  %9 = load i8, i8* %_19, align 1, !dbg !435, !range !431
  %10 = trunc i8 %9 to i1, !dbg !435
  %_18 = xor i1 %10, true, !dbg !435
  br i1 %_18, label %bb20, label %bb22, !dbg !435

bb20:                                             ; preds = %bb19
; call core::panicking::panic
  call void @_ZN4core9panicking5panic17h07405d6be4bce887E([0 x i8]* noalias nonnull readonly align 1 bitcast (<{ [39 x i8] }>* @alloc7 to [0 x i8]*), i64 39, %"core::panic::Location"* noalias readonly align 8 dereferenceable(24) bitcast (<{ i8*, [16 x i8] }>* @alloc9 to %"core::panic::Location"*)), !dbg !435
  unreachable, !dbg !435

bb22:                                             ; preds = %bb19, %bb4
  ret void, !dbg !436

panic:                                            ; preds = %bb13
; call core::panicking::panic
  call void @_ZN4core9panicking5panic17h07405d6be4bce887E([0 x i8]* noalias nonnull readonly align 1 bitcast ([33 x i8]* @str.0 to [0 x i8]*), i64 33, %"core::panic::Location"* noalias readonly align 8 dereferenceable(24) bitcast (<{ i8*, [16 x i8] }>* @alloc6 to %"core::panic::Location"*)), !dbg !432
  unreachable, !dbg !432
}

; Function Attrs: nounwind nonlazybind
define void @main() unnamed_addr #1 !dbg !437 {
start:
  %name.dbg.spill.i2 = alloca { %"klee_sys::CStr"*, i64 }, align 8
  %t.dbg.spill.i3 = alloca i32*, align 8
  %0 = alloca { [0 x i8]*, i64 }, align 8
  %self.dbg.spill.i1 = alloca { [0 x i8]*, i64 }, align 8
  %name.dbg.spill.i = alloca { %"klee_sys::CStr"*, i64 }, align 8
  %t.dbg.spill.i = alloca i32*, align 8
  %1 = alloca { [0 x i8]*, i64 }, align 8
  %self.dbg.spill.i = alloca { [0 x i8]*, i64 }, align 8
  %b = alloca i32, align 4
  %a = alloca i32, align 4
  call void @llvm.dbg.declare(metadata i32* %a, metadata !441, metadata !DIExpression()), !dbg !445
  call void @llvm.dbg.declare(metadata i32* %b, metadata !443, metadata !DIExpression()), !dbg !446
  store i32 1, i32* %a, align 4, !dbg !447
  store i32 1, i32* %b, align 4, !dbg !448
  %2 = getelementptr inbounds { [0 x i8]*, i64 }, { [0 x i8]*, i64 }* %self.dbg.spill.i, i32 0, i32 0
  store [0 x i8]* bitcast (<{ [2 x i8] }>* @alloc10 to [0 x i8]*), [0 x i8]** %2, align 8, !noalias !449
  %3 = getelementptr inbounds { [0 x i8]*, i64 }, { [0 x i8]*, i64 }* %self.dbg.spill.i, i32 0, i32 1
  store i64 2, i64* %3, align 8, !noalias !449
  call void @llvm.dbg.declare(metadata { [0 x i8]*, i64 }* %self.dbg.spill.i, metadata !452, metadata !DIExpression()), !dbg !464
  %4 = getelementptr inbounds { [0 x i8]*, i64 }, { [0 x i8]*, i64 }* %1, i32 0, i32 0, !dbg !466
  store [0 x i8]* bitcast (<{ [2 x i8] }>* @alloc10 to [0 x i8]*), [0 x i8]** %4, align 8, !dbg !466, !noalias !449
  %5 = getelementptr inbounds { [0 x i8]*, i64 }, { [0 x i8]*, i64 }* %1, i32 0, i32 1, !dbg !466
  store i64 2, i64* %5, align 8, !dbg !466, !noalias !449
  %6 = getelementptr inbounds { [0 x i8]*, i64 }, { [0 x i8]*, i64 }* %1, i32 0, i32 0, !dbg !466
  %7 = load [0 x i8]*, [0 x i8]** %6, align 8, !dbg !466, !noalias !449, !nonnull !6
  %8 = getelementptr inbounds { [0 x i8]*, i64 }, { [0 x i8]*, i64 }* %1, i32 0, i32 1, !dbg !466
  %9 = load i64, i64* %8, align 8, !dbg !466, !noalias !449
  %10 = insertvalue { [0 x i8]*, i64 } undef, [0 x i8]* %7, 0, !dbg !467
  %11 = insertvalue { [0 x i8]*, i64 } %10, i64 %9, 1, !dbg !467
  %_10.0 = extractvalue { [0 x i8]*, i64 } %11, 0, !dbg !468
  %_10.1 = extractvalue { [0 x i8]*, i64 } %11, 1, !dbg !468
; call cstr_core::CStr::from_bytes_with_nul_unchecked
  %12 = call { %"klee_sys::CStr"*, i64 } @_ZN9cstr_core4CStr29from_bytes_with_nul_unchecked17h11198e158455988cE([0 x i8]* noalias nonnull readonly align 1 %_10.0, i64 %_10.1), !dbg !468
  %_8.0 = extractvalue { %"klee_sys::CStr"*, i64 } %12, 0, !dbg !468
  %_8.1 = extractvalue { %"klee_sys::CStr"*, i64 } %12, 1, !dbg !468
  store i32* %a, i32** %t.dbg.spill.i, align 8, !noalias !469
  call void @llvm.dbg.declare(metadata i32** %t.dbg.spill.i, metadata !472, metadata !DIExpression()) #10, !dbg !484
  %13 = getelementptr inbounds { %"klee_sys::CStr"*, i64 }, { %"klee_sys::CStr"*, i64 }* %name.dbg.spill.i, i32 0, i32 0
  store %"klee_sys::CStr"* %_8.0, %"klee_sys::CStr"** %13, align 8, !noalias !469
  %14 = getelementptr inbounds { %"klee_sys::CStr"*, i64 }, { %"klee_sys::CStr"*, i64 }* %name.dbg.spill.i, i32 0, i32 1
  store i64 %_8.1, i64* %14, align 8, !noalias !469
  call void @llvm.dbg.declare(metadata { %"klee_sys::CStr"*, i64 }* %name.dbg.spill.i, metadata !481, metadata !DIExpression()) #10, !dbg !486
  %_3.i = bitcast i32* %a to i8*, !dbg !487
; call cstr_core::CStr::as_ptr
  %_6.i = call i8* @_ZN9cstr_core4CStr6as_ptr17he630c7e19197799cE(%"klee_sys::CStr"* noalias nonnull readonly align 1 %_8.0, i64 %_8.1) #10, !dbg !488
  call void @klee_make_symbolic(i8* %_3.i, i64 4, i8* %_6.i) #10, !dbg !489
  %15 = getelementptr inbounds { [0 x i8]*, i64 }, { [0 x i8]*, i64 }* %self.dbg.spill.i1, i32 0, i32 0
  store [0 x i8]* bitcast (<{ [2 x i8] }>* @alloc11 to [0 x i8]*), [0 x i8]** %15, align 8, !noalias !490
  %16 = getelementptr inbounds { [0 x i8]*, i64 }, { [0 x i8]*, i64 }* %self.dbg.spill.i1, i32 0, i32 1
  store i64 2, i64* %16, align 8, !noalias !490
  call void @llvm.dbg.declare(metadata { [0 x i8]*, i64 }* %self.dbg.spill.i1, metadata !452, metadata !DIExpression()), !dbg !493
  %17 = getelementptr inbounds { [0 x i8]*, i64 }, { [0 x i8]*, i64 }* %0, i32 0, i32 0, !dbg !495
  store [0 x i8]* bitcast (<{ [2 x i8] }>* @alloc11 to [0 x i8]*), [0 x i8]** %17, align 8, !dbg !495, !noalias !490
  %18 = getelementptr inbounds { [0 x i8]*, i64 }, { [0 x i8]*, i64 }* %0, i32 0, i32 1, !dbg !495
  store i64 2, i64* %18, align 8, !dbg !495, !noalias !490
  %19 = getelementptr inbounds { [0 x i8]*, i64 }, { [0 x i8]*, i64 }* %0, i32 0, i32 0, !dbg !495
  %20 = load [0 x i8]*, [0 x i8]** %19, align 8, !dbg !495, !noalias !490, !nonnull !6
  %21 = getelementptr inbounds { [0 x i8]*, i64 }, { [0 x i8]*, i64 }* %0, i32 0, i32 1, !dbg !495
  %22 = load i64, i64* %21, align 8, !dbg !495, !noalias !490
  %23 = insertvalue { [0 x i8]*, i64 } undef, [0 x i8]* %20, 0, !dbg !496
  %24 = insertvalue { [0 x i8]*, i64 } %23, i64 %22, 1, !dbg !496
  %_20.0 = extractvalue { [0 x i8]*, i64 } %24, 0, !dbg !497
  %_20.1 = extractvalue { [0 x i8]*, i64 } %24, 1, !dbg !497
; call cstr_core::CStr::from_bytes_with_nul_unchecked
  %25 = call { %"klee_sys::CStr"*, i64 } @_ZN9cstr_core4CStr29from_bytes_with_nul_unchecked17h11198e158455988cE([0 x i8]* noalias nonnull readonly align 1 %_20.0, i64 %_20.1), !dbg !497
  %_18.0 = extractvalue { %"klee_sys::CStr"*, i64 } %25, 0, !dbg !497
  %_18.1 = extractvalue { %"klee_sys::CStr"*, i64 } %25, 1, !dbg !497
  store i32* %b, i32** %t.dbg.spill.i3, align 8, !noalias !498
  call void @llvm.dbg.declare(metadata i32** %t.dbg.spill.i3, metadata !472, metadata !DIExpression()) #10, !dbg !501
  %26 = getelementptr inbounds { %"klee_sys::CStr"*, i64 }, { %"klee_sys::CStr"*, i64 }* %name.dbg.spill.i2, i32 0, i32 0
  store %"klee_sys::CStr"* %_18.0, %"klee_sys::CStr"** %26, align 8, !noalias !498
  %27 = getelementptr inbounds { %"klee_sys::CStr"*, i64 }, { %"klee_sys::CStr"*, i64 }* %name.dbg.spill.i2, i32 0, i32 1
  store i64 %_18.1, i64* %27, align 8, !noalias !498
  call void @llvm.dbg.declare(metadata { %"klee_sys::CStr"*, i64 }* %name.dbg.spill.i2, metadata !481, metadata !DIExpression()) #10, !dbg !503
  %_3.i4 = bitcast i32* %b to i8*, !dbg !504
; call cstr_core::CStr::as_ptr
  %_6.i5 = call i8* @_ZN9cstr_core4CStr6as_ptr17he630c7e19197799cE(%"klee_sys::CStr"* noalias nonnull readonly align 1 %_18.0, i64 %_18.1) #10, !dbg !505
  call void @klee_make_symbolic(i8* %_3.i4, i64 4, i8* %_6.i5) #10, !dbg !506
  %_24 = load i32, i32* %a, align 4, !dbg !507
  %_25 = load i32, i32* %b, align 4, !dbg !508
; call mult::multiply
  call void @_ZN4mult8multiply17h2aa65e21c8a60be6E(i32 %_24, i32 %_25), !dbg !509
  ret void, !dbg !510
}

; Function Attrs: nounwind readnone speculatable willreturn
declare void @llvm.dbg.declare(metadata, metadata, metadata) #2

; Function Attrs: nounwind nonlazybind
declare void @klee_make_symbolic(i8*, i64, i8*) unnamed_addr #1

; Function Attrs: nounwind readnone speculatable willreturn
declare { i32, i1 } @llvm.umul.with.overflow.i32(i32, i32) #2

; Function Attrs: nounwind readnone willreturn
declare i1 @llvm.expect.i1(i1, i1) #3

; core::panicking::panic
; Function Attrs: cold noinline noreturn nounwind nonlazybind uwtable
define internal void @_ZN4core9panicking5panic17h07405d6be4bce887E([0 x i8]* noalias nonnull readonly align 1 %0, i64 %1, %"core::panic::Location"* noalias readonly align 8 dereferenceable(24) %2) unnamed_addr #4 !dbg !511 {
  %4 = alloca [1 x { [0 x i8]*, i64 }], align 8
  %5 = alloca %"fmt::Arguments", align 8
  %6 = bitcast %"fmt::Arguments"* %5 to i8*, !dbg !515
  call void @llvm.lifetime.start.p0i8(i64 48, i8* nonnull %6), !dbg !515
  %7 = bitcast [1 x { [0 x i8]*, i64 }]* %4 to i8*, !dbg !516
  call void @llvm.lifetime.start.p0i8(i64 16, i8* nonnull %7), !dbg !516
  %8 = getelementptr inbounds [1 x { [0 x i8]*, i64 }], [1 x { [0 x i8]*, i64 }]* %4, i64 0, i64 0, i32 0, !dbg !516
  store [0 x i8]* %0, [0 x i8]** %8, align 8, !dbg !516
  %9 = getelementptr inbounds [1 x { [0 x i8]*, i64 }], [1 x { [0 x i8]*, i64 }]* %4, i64 0, i64 0, i32 1, !dbg !516
  store i64 %1, i64* %9, align 8, !dbg !516
  %10 = bitcast %"fmt::Arguments"* %5 to [1 x { [0 x i8]*, i64 }]**, !dbg !517
  store [1 x { [0 x i8]*, i64 }]* %4, [1 x { [0 x i8]*, i64 }]** %10, align 8, !dbg !517, !alias.scope !522, !noalias !525
  %11 = getelementptr inbounds %"fmt::Arguments", %"fmt::Arguments"* %5, i64 0, i32 1, i32 1, !dbg !517
  store i64 1, i64* %11, align 8, !dbg !517, !alias.scope !522, !noalias !525
  %12 = getelementptr inbounds %"fmt::Arguments", %"fmt::Arguments"* %5, i64 0, i32 3, i32 0, !dbg !517
  store i64* null, i64** %12, align 8, !dbg !517, !alias.scope !522, !noalias !525
  %13 = getelementptr inbounds %"fmt::Arguments", %"fmt::Arguments"* %5, i64 0, i32 5, i32 0, !dbg !517
  store [0 x { i8*, i64* }]* bitcast (<{ [0 x i8] }>* @anon.965c706604096d42e5b155eaa3c30edf.12 to [0 x { i8*, i64* }]*), [0 x { i8*, i64* }]** %13, align 8, !dbg !517, !alias.scope !522, !noalias !525
  %14 = getelementptr inbounds %"fmt::Arguments", %"fmt::Arguments"* %5, i64 0, i32 5, i32 1, !dbg !517
  store i64 0, i64* %14, align 8, !dbg !517, !alias.scope !522, !noalias !525
; call core::panicking::panic_fmt
  call void @_ZN4core9panicking9panic_fmt17hcd56f7f635f62c74E(%"fmt::Arguments"* noalias nocapture nonnull dereferenceable(48) %5, %"core::panic::Location"* noalias nonnull readonly align 8 dereferenceable(24) %2), !dbg !528
  unreachable, !dbg !528
}

; Function Attrs: argmemonly nounwind willreturn
declare void @llvm.lifetime.start.p0i8(i64 immarg, i8* nocapture) #5

; core::panicking::panic_fmt
; Function Attrs: cold noinline noreturn nounwind nonlazybind uwtable
define internal void @_ZN4core9panicking9panic_fmt17hcd56f7f635f62c74E(%"fmt::Arguments"* noalias nocapture dereferenceable(48) %0, %"core::panic::Location"* noalias readonly align 8 dereferenceable(24) %1) unnamed_addr #4 !dbg !529 {
  %3 = alloca %"panic::PanicInfo", align 8
  %4 = bitcast %"panic::PanicInfo"* %3 to i8*, !dbg !530
  call void @llvm.lifetime.start.p0i8(i64 32, i8* nonnull %4), !dbg !530
  %5 = getelementptr inbounds %"fmt::Arguments", %"fmt::Arguments"* %0, i64 0, i32 0, i64 0, !dbg !531
  %6 = bitcast %"panic::PanicInfo"* %3 to {}**, !dbg !532
  store {}* bitcast (<{ [0 x i8] }>* @anon.965c706604096d42e5b155eaa3c30edf.12 to {}*), {}** %6, align 8, !dbg !532, !alias.scope !538, !noalias !541
  %7 = getelementptr inbounds %"panic::PanicInfo", %"panic::PanicInfo"* %3, i64 0, i32 1, i32 1, !dbg !532
  store [3 x i64]* bitcast ({ void ({}*)*, i64, i64, i64 ({}*)* }* @anon.965c706604096d42e5b155eaa3c30edf.177 to [3 x i64]*), [3 x i64]** %7, align 8, !dbg !532, !alias.scope !538, !noalias !541
  %8 = getelementptr inbounds %"panic::PanicInfo", %"panic::PanicInfo"* %3, i64 0, i32 3, !dbg !532
  store i64* %5, i64** %8, align 8, !dbg !532, !alias.scope !538, !noalias !541
  %9 = getelementptr inbounds %"panic::PanicInfo", %"panic::PanicInfo"* %3, i64 0, i32 5, !dbg !532
  store %"core::panic::Location"* %1, %"core::panic::Location"** %9, align 8, !dbg !532, !alias.scope !538, !noalias !541
  call void @rust_begin_unwind(%"panic::PanicInfo"* noalias nonnull readonly align 8 dereferenceable(32) %3), !dbg !544
  unreachable, !dbg !544
}

; core::ptr::drop_in_place<&core::iter::adapters::copied::Copied<core::slice::iter::Iter<u8>>>
; Function Attrs: inlinehint norecurse nounwind nonlazybind readnone uwtable
define internal void @"_ZN4core3ptr102drop_in_place$LT$$RF$core..iter..adapters..copied..Copied$LT$core..slice..iter..Iter$LT$u8$GT$$GT$$GT$17h5913dccf4681891cE"({ i8*, i8* }** nocapture %0) unnamed_addr #6 !dbg !545 {
  ret void, !dbg !548
}

; <T as core::any::Any>::type_id
; Function Attrs: norecurse nounwind nonlazybind readnone uwtable
define internal i64 @"_ZN36_$LT$T$u20$as$u20$core..any..Any$GT$7type_id17h108f63b8120e9c9cE"({}* noalias nocapture nonnull readonly align 1 %0) unnamed_addr #7 !dbg !549 {
  ret i64 6876091270197435960, !dbg !553
}

; core::slice::<impl [T]>::as_ptr
; Function Attrs: inlinehint norecurse nounwind nonlazybind readnone
define internal nonnull i8* @"_ZN4core5slice29_$LT$impl$u20$$u5b$T$u5d$$GT$6as_ptr17h3e32bddb1561f66bE"([0 x i8]* noalias nonnull readonly align 1 %0, i64 %1) unnamed_addr #0 !dbg !554 {
  %3 = alloca { [0 x i8]*, i64 }, align 8
  %4 = getelementptr inbounds { [0 x i8]*, i64 }, { [0 x i8]*, i64 }* %3, i32 0, i32 0
  store [0 x i8]* %0, [0 x i8]** %4, align 8
  %5 = getelementptr inbounds { [0 x i8]*, i64 }, { [0 x i8]*, i64 }* %3, i32 0, i32 1
  store i64 %1, i64* %5, align 8
  call void @llvm.dbg.declare(metadata { [0 x i8]*, i64 }* %3, metadata !565, metadata !DIExpression()), !dbg !568
  %6 = bitcast [0 x i8]* %0 to i8*, !dbg !569
  ret i8* %6, !dbg !570
}

; Function Attrs: noinline noreturn nounwind nonlazybind
define internal void @rust_begin_unwind(%"panic::PanicInfo"* noalias readonly align 8 dereferenceable(32) %0) unnamed_addr #8 !dbg !571 {
  %2 = alloca %"panic::PanicInfo"*, align 8
  store %"panic::PanicInfo"* %0, %"panic::PanicInfo"** %2, align 8
  call void @llvm.dbg.declare(metadata %"panic::PanicInfo"** %2, metadata !706, metadata !DIExpression()), !dbg !707
  call void @abort(), !dbg !708
  unreachable, !dbg !708
}

; Function Attrs: alwaysinline noreturn nounwind nonlazybind
declare void @abort() unnamed_addr #9

attributes #0 = { inlinehint norecurse nounwind nonlazybind readnone "probe-stack"="__rust_probestack" "target-cpu"="x86-64" }
attributes #1 = { nounwind nonlazybind "probe-stack"="__rust_probestack" "target-cpu"="x86-64" }
attributes #2 = { nounwind readnone speculatable willreturn }
attributes #3 = { nounwind readnone willreturn }
attributes #4 = { cold noinline noreturn nounwind nonlazybind uwtable "probe-stack"="__rust_probestack" "target-cpu"="x86-64" }
attributes #5 = { argmemonly nounwind willreturn }
attributes #6 = { inlinehint norecurse nounwind nonlazybind readnone uwtable "probe-stack"="__rust_probestack" "target-cpu"="x86-64" }
attributes #7 = { norecurse nounwind nonlazybind readnone uwtable "probe-stack"="__rust_probestack" "target-cpu"="x86-64" }
attributes #8 = { noinline noreturn nounwind nonlazybind "probe-stack"="__rust_probestack" "target-cpu"="x86-64" }
attributes #9 = { alwaysinline noreturn nounwind nonlazybind "probe-stack"="__rust_probestack" "target-cpu"="x86-64" }
attributes #10 = { nounwind }

!llvm.module.flags = !{!0, !1, !2, !3}
!llvm.dbg.cu = !{!4, !7, !9, !59, !61, !63, !380, !383}

!0 = !{i32 7, !"PIC Level", i32 2}
!1 = !{i32 7, !"PIE Level", i32 2}
!2 = !{i32 2, !"RtLibUseGOT", i32 1}
!3 = !{i32 2, !"Debug Info Version", i32 3}
!4 = distinct !DICompileUnit(language: DW_LANG_Rust, file: !5, producer: "clang LLVM (rustc version 1.51.0 (2fd73fabe 2021-03-23))", isOptimized: false, runtimeVersion: 0, emissionKind: FullDebug, enums: !6)
!5 = !DIFile(filename: "src/main.rs", directory: "/home/ubuntu/container-data/mult/target/debug/deps")
!6 = !{}
!7 = distinct !DICompileUnit(language: DW_LANG_Rust, file: !8, producer: "clang LLVM (rustc version 1.51.0 (2fd73fabe 2021-03-23))", isOptimized: true, runtimeVersion: 0, emissionKind: FullDebug, enums: !6)
!8 = !DIFile(filename: "library/core/src/lib.rs", directory: "/checkout/obj/build/x86_64-unknown-linux-gnu/stage1-std/x86_64-unknown-linux-gnu/release/deps")
!9 = distinct !DICompileUnit(language: DW_LANG_Rust, file: !10, producer: "clang LLVM (rustc version 1.51.0 (2fd73fabe 2021-03-23))", isOptimized: false, runtimeVersion: 0, emissionKind: FullDebug, enums: !11, globals: !36)
!10 = !DIFile(filename: "/home/ubuntu/.cargo/registry/src/github.com-1ecc6299db9ec823/cstr_core-0.2.5/src/lib.rs", directory: "/home/ubuntu/container-data/mult/target/debug/deps")
!11 = !{!12, !20, !29}
!12 = !DICompositeType(tag: DW_TAG_enumeration_type, name: "Result", scope: !14, file: !13, baseType: !16, size: 8, align: 8, flags: DIFlagEnumClass, elements: !17)
!13 = !DIFile(filename: "<unknown>", directory: "")
!14 = !DINamespace(name: "result", scope: !15)
!15 = !DINamespace(name: "core", scope: null)
!16 = !DIBasicType(name: "u8", size: 8, encoding: DW_ATE_unsigned)
!17 = !{!18, !19}
!18 = !DIEnumerator(name: "Ok", value: 0)
!19 = !DIEnumerator(name: "Err", value: 1)
!20 = !DICompositeType(tag: DW_TAG_enumeration_type, name: "Alignment", scope: !21, file: !13, baseType: !16, size: 8, align: 8, flags: DIFlagEnumClass, elements: !24)
!21 = !DINamespace(name: "v1", scope: !22)
!22 = !DINamespace(name: "rt", scope: !23)
!23 = !DINamespace(name: "fmt", scope: !15)
!24 = !{!25, !26, !27, !28}
!25 = !DIEnumerator(name: "Left", value: 0)
!26 = !DIEnumerator(name: "Right", value: 1)
!27 = !DIEnumerator(name: "Center", value: 2)
!28 = !DIEnumerator(name: "Unknown", value: 3)
!29 = !DICompositeType(tag: DW_TAG_enumeration_type, name: "Ordering", scope: !30, file: !13, baseType: !31, size: 8, align: 8, flags: DIFlagEnumClass, elements: !32)
!30 = !DINamespace(name: "cmp", scope: !15)
!31 = !DIBasicType(name: "i8", size: 8, encoding: DW_ATE_signed)
!32 = !{!33, !34, !35}
!33 = !DIEnumerator(name: "Less", value: -1)
!34 = !DIEnumerator(name: "Equal", value: 0)
!35 = !DIEnumerator(name: "Greater", value: 1)
!36 = !{!37, !55}
!37 = !DIGlobalVariableExpression(var: !38, expr: !DIExpression())
!38 = distinct !DIGlobalVariable(name: "vtable", scope: null, file: !13, type: !39, isLocal: true, isDefinition: true)
!39 = !DICompositeType(tag: DW_TAG_structure_type, name: "vtable", file: !13, align: 64, flags: DIFlagArtificial, elements: !6, vtableHolder: !40, identifier: "vtable")
!40 = !DIDerivedType(tag: DW_TAG_pointer_type, name: "&cstr_core::FromBytesWithNulErrorKind", baseType: !41, size: 64, align: 64, dwarfAddressSpace: 0)
!41 = !DICompositeType(tag: DW_TAG_structure_type, name: "FromBytesWithNulErrorKind", scope: !42, file: !13, size: 128, align: 64, elements: !43, identifier: "b3a593a4f6620af0228c5feb909fb0a2")
!42 = !DINamespace(name: "cstr_core", scope: null)
!43 = !{!44}
!44 = !DICompositeType(tag: DW_TAG_variant_part, scope: !42, file: !13, size: 128, align: 64, elements: !45, templateParams: !6, identifier: "b3a593a4f6620af0228c5feb909fb0a2_variant_part", discriminator: !53)
!45 = !{!46, !51}
!46 = !DIDerivedType(tag: DW_TAG_member, name: "InteriorNul", scope: !44, file: !13, baseType: !47, size: 128, align: 64, extraData: i64 0)
!47 = !DICompositeType(tag: DW_TAG_structure_type, name: "InteriorNul", scope: !41, file: !13, size: 128, align: 64, elements: !48, templateParams: !6, identifier: "b3a593a4f6620af0228c5feb909fb0a2::InteriorNul")
!48 = !{!49}
!49 = !DIDerivedType(tag: DW_TAG_member, name: "__0", scope: !47, file: !13, baseType: !50, size: 64, align: 64, offset: 64)
!50 = !DIBasicType(name: "usize", size: 64, encoding: DW_ATE_unsigned)
!51 = !DIDerivedType(tag: DW_TAG_member, name: "NotNulTerminated", scope: !44, file: !13, baseType: !52, size: 128, align: 64, extraData: i64 1)
!52 = !DICompositeType(tag: DW_TAG_structure_type, name: "NotNulTerminated", scope: !41, file: !13, size: 128, align: 64, elements: !6, templateParams: !6, identifier: "b3a593a4f6620af0228c5feb909fb0a2::NotNulTerminated")
!53 = !DIDerivedType(tag: DW_TAG_member, scope: !42, file: !13, baseType: !54, size: 64, align: 64, flags: DIFlagArtificial)
!54 = !DIBasicType(name: "u64", size: 64, encoding: DW_ATE_unsigned)
!55 = !DIGlobalVariableExpression(var: !56, expr: !DIExpression())
!56 = distinct !DIGlobalVariable(name: "vtable", scope: null, file: !13, type: !57, isLocal: true, isDefinition: true)
!57 = !DICompositeType(tag: DW_TAG_structure_type, name: "vtable", file: !13, align: 64, flags: DIFlagArtificial, elements: !6, vtableHolder: !58, identifier: "vtable")
!58 = !DIDerivedType(tag: DW_TAG_pointer_type, name: "&usize", baseType: !50, size: 64, align: 64, dwarfAddressSpace: 0)
!59 = distinct !DICompileUnit(language: DW_LANG_Rust, file: !60, producer: "clang LLVM (rustc version 1.51.0 (2fd73fabe 2021-03-23))", isOptimized: false, runtimeVersion: 0, emissionKind: FullDebug, enums: !6)
!60 = !DIFile(filename: "/home/ubuntu/.cargo/registry/src/github.com-1ecc6299db9ec823/cty-0.2.2/src/lib.rs", directory: "/home/ubuntu/container-data/mult/target/debug/deps")
!61 = distinct !DICompileUnit(language: DW_LANG_Rust, file: !62, producer: "clang LLVM (rustc version 1.51.0 (2fd73fabe 2021-03-23))", isOptimized: false, runtimeVersion: 0, emissionKind: FullDebug, enums: !6)
!62 = !DIFile(filename: "/home/ubuntu/.cargo/git/checkouts/klee-sys-7ee2aa8a1a6bbc46/9f462cc/src/lib.rs", directory: "/home/ubuntu/container-data/mult/target/debug/deps")
!63 = distinct !DICompileUnit(language: DW_LANG_Rust, file: !64, producer: "clang LLVM (rustc version 1.51.0 (2fd73fabe 2021-03-23))", isOptimized: false, runtimeVersion: 0, emissionKind: FullDebug, enums: !65, globals: !87)
!64 = !DIFile(filename: "/home/ubuntu/.cargo/registry/src/github.com-1ecc6299db9ec823/memchr-2.4.1/src/lib.rs", directory: "/home/ubuntu/container-data/mult/target/debug/deps")
!65 = !{!12, !20, !66, !29, !73, !78, !83}
!66 = !DICompositeType(tag: DW_TAG_enumeration_type, name: "Prefilter", scope: !67, file: !13, baseType: !16, size: 8, align: 8, flags: DIFlagEnumClass, elements: !70)
!67 = !DINamespace(name: "prefilter", scope: !68)
!68 = !DINamespace(name: "memmem", scope: !69)
!69 = !DINamespace(name: "memchr", scope: null)
!70 = !{!71, !72}
!71 = !DIEnumerator(name: "None", value: 0)
!72 = !DIEnumerator(name: "Auto", value: 1)
!73 = !DICompositeType(tag: DW_TAG_enumeration_type, name: "SuffixKind", scope: !74, file: !13, baseType: !16, size: 8, align: 8, flags: DIFlagEnumClass, elements: !75)
!74 = !DINamespace(name: "twoway", scope: !68)
!75 = !{!76, !77}
!76 = !DIEnumerator(name: "Minimal", value: 0)
!77 = !DIEnumerator(name: "Maximal", value: 1)
!78 = !DICompositeType(tag: DW_TAG_enumeration_type, name: "SuffixOrdering", scope: !74, file: !13, baseType: !16, size: 8, align: 8, flags: DIFlagEnumClass, elements: !79)
!79 = !{!80, !81, !82}
!80 = !DIEnumerator(name: "Accept", value: 0)
!81 = !DIEnumerator(name: "Skip", value: 1)
!82 = !DIEnumerator(name: "Push", value: 2)
!83 = !DICompositeType(tag: DW_TAG_enumeration_type, name: "Option", scope: !84, file: !13, baseType: !16, size: 8, align: 8, flags: DIFlagEnumClass, elements: !85)
!84 = !DINamespace(name: "option", scope: !15)
!85 = !{!71, !86}
!86 = !DIEnumerator(name: "Some", value: 1)
!87 = !{!88, !92, !144, !146, !154, !158, !162, !166, !191, !195, !199, !203, !208, !217, !221, !285, !314, !318, !322, !326, !333, !337, !340, !344, !348, !352, !356, !360, !364, !368, !372, !376}
!88 = !DIGlobalVariableExpression(var: !89, expr: !DIExpression())
!89 = distinct !DIGlobalVariable(name: "vtable", scope: null, file: !13, type: !90, isLocal: true, isDefinition: true)
!90 = !DICompositeType(tag: DW_TAG_structure_type, name: "vtable", file: !13, align: 64, flags: DIFlagArtificial, elements: !6, vtableHolder: !91, identifier: "vtable")
!91 = !DIDerivedType(tag: DW_TAG_pointer_type, name: "&u8", baseType: !16, size: 64, align: 64, dwarfAddressSpace: 0)
!92 = !DIGlobalVariableExpression(var: !93, expr: !DIExpression())
!93 = distinct !DIGlobalVariable(name: "vtable", scope: null, file: !13, type: !94, isLocal: true, isDefinition: true)
!94 = !DICompositeType(tag: DW_TAG_structure_type, name: "vtable", file: !13, align: 64, flags: DIFlagArtificial, elements: !6, vtableHolder: !95, identifier: "vtable")
!95 = !DIDerivedType(tag: DW_TAG_pointer_type, name: "&memchr::memmem::prefilter::PrefilterFn", baseType: !96, size: 64, align: 64, dwarfAddressSpace: 0)
!96 = !DICompositeType(tag: DW_TAG_structure_type, name: "PrefilterFn", scope: !67, file: !13, size: 64, align: 64, elements: !97, templateParams: !6, identifier: "35291da01e698d492305dbcfddd3ab55")
!97 = !{!98}
!98 = !DIDerivedType(tag: DW_TAG_member, name: "__0", scope: !96, file: !13, baseType: !99, size: 64, align: 64)
!99 = !DIDerivedType(tag: DW_TAG_pointer_type, name: "unsafe fn(&mut memchr::memmem::prefilter::PrefilterState, &memchr::memmem::NeedleInfo, &[u8], &[u8]) -> core::option::Option<usize>", baseType: !100, size: 64, align: 64, dwarfAddressSpace: 0)
!100 = !DISubroutineType(types: !101)
!101 = !{!102, !115, !121, !139, !139}
!102 = !DICompositeType(tag: DW_TAG_structure_type, name: "Option<usize>", scope: !84, file: !13, size: 128, align: 64, elements: !103, identifier: "9332858134cb740a2a89b17fc22aeac2")
!103 = !{!104}
!104 = !DICompositeType(tag: DW_TAG_variant_part, scope: !84, file: !13, size: 128, align: 64, elements: !105, templateParams: !108, identifier: "9332858134cb740a2a89b17fc22aeac2_variant_part", discriminator: !114)
!105 = !{!106, !110}
!106 = !DIDerivedType(tag: DW_TAG_member, name: "None", scope: !104, file: !13, baseType: !107, size: 128, align: 64, extraData: i64 0)
!107 = !DICompositeType(tag: DW_TAG_structure_type, name: "None", scope: !102, file: !13, size: 128, align: 64, elements: !6, templateParams: !108, identifier: "9332858134cb740a2a89b17fc22aeac2::None")
!108 = !{!109}
!109 = !DITemplateTypeParameter(name: "T", type: !50)
!110 = !DIDerivedType(tag: DW_TAG_member, name: "Some", scope: !104, file: !13, baseType: !111, size: 128, align: 64, extraData: i64 1)
!111 = !DICompositeType(tag: DW_TAG_structure_type, name: "Some", scope: !102, file: !13, size: 128, align: 64, elements: !112, templateParams: !108, identifier: "9332858134cb740a2a89b17fc22aeac2::Some")
!112 = !{!113}
!113 = !DIDerivedType(tag: DW_TAG_member, name: "__0", scope: !111, file: !13, baseType: !50, size: 64, align: 64, offset: 64)
!114 = !DIDerivedType(tag: DW_TAG_member, scope: !84, file: !13, baseType: !54, size: 64, align: 64, flags: DIFlagArtificial)
!115 = !DIDerivedType(tag: DW_TAG_pointer_type, name: "&mut memchr::memmem::prefilter::PrefilterState", baseType: !116, size: 64, align: 64, dwarfAddressSpace: 0)
!116 = !DICompositeType(tag: DW_TAG_structure_type, name: "PrefilterState", scope: !67, file: !13, size: 64, align: 32, elements: !117, templateParams: !6, identifier: "7a46a0786f77c6ca31cca041edaa39c9")
!117 = !{!118, !120}
!118 = !DIDerivedType(tag: DW_TAG_member, name: "skips", scope: !116, file: !13, baseType: !119, size: 32, align: 32)
!119 = !DIBasicType(name: "u32", size: 32, encoding: DW_ATE_unsigned)
!120 = !DIDerivedType(tag: DW_TAG_member, name: "skipped", scope: !116, file: !13, baseType: !119, size: 32, align: 32, offset: 32)
!121 = !DIDerivedType(tag: DW_TAG_pointer_type, name: "&memchr::memmem::NeedleInfo", baseType: !122, size: 64, align: 64, dwarfAddressSpace: 0)
!122 = !DICompositeType(tag: DW_TAG_structure_type, name: "NeedleInfo", scope: !68, file: !13, size: 96, align: 32, elements: !123, templateParams: !6, identifier: "2794df66e254547a3ecf72eeb3adc1a3")
!123 = !{!124, !130}
!124 = !DIDerivedType(tag: DW_TAG_member, name: "rarebytes", scope: !122, file: !13, baseType: !125, size: 16, align: 8, offset: 64)
!125 = !DICompositeType(tag: DW_TAG_structure_type, name: "RareNeedleBytes", scope: !126, file: !13, size: 16, align: 8, elements: !127, templateParams: !6, identifier: "3e9d1cf68222a25e737f836c18ac5f61")
!126 = !DINamespace(name: "rarebytes", scope: !68)
!127 = !{!128, !129}
!128 = !DIDerivedType(tag: DW_TAG_member, name: "rare1i", scope: !125, file: !13, baseType: !16, size: 8, align: 8)
!129 = !DIDerivedType(tag: DW_TAG_member, name: "rare2i", scope: !125, file: !13, baseType: !16, size: 8, align: 8, offset: 8)
!130 = !DIDerivedType(tag: DW_TAG_member, name: "nhash", scope: !122, file: !13, baseType: !131, size: 64, align: 32)
!131 = !DICompositeType(tag: DW_TAG_structure_type, name: "NeedleHash", scope: !132, file: !13, size: 64, align: 32, elements: !133, templateParams: !6, identifier: "e8c3308ce7df1aecf4010206fad4c524")
!132 = !DINamespace(name: "rabinkarp", scope: !68)
!133 = !{!134, !138}
!134 = !DIDerivedType(tag: DW_TAG_member, name: "hash", scope: !131, file: !13, baseType: !135, size: 32, align: 32)
!135 = !DICompositeType(tag: DW_TAG_structure_type, name: "Hash", scope: !132, file: !13, size: 32, align: 32, elements: !136, templateParams: !6, identifier: "80d527764142fef851d43e22a89497af")
!136 = !{!137}
!137 = !DIDerivedType(tag: DW_TAG_member, name: "__0", scope: !135, file: !13, baseType: !119, size: 32, align: 32)
!138 = !DIDerivedType(tag: DW_TAG_member, name: "hash_2pow", scope: !131, file: !13, baseType: !119, size: 32, align: 32, offset: 32)
!139 = !DICompositeType(tag: DW_TAG_structure_type, name: "&[u8]", file: !13, size: 128, align: 64, elements: !140, templateParams: !6, identifier: "585202bcfc7dfd1dd72e8befe2491ee4")
!140 = !{!141, !143}
!141 = !DIDerivedType(tag: DW_TAG_member, name: "data_ptr", scope: !139, file: !13, baseType: !142, size: 64, align: 64)
!142 = !DIDerivedType(tag: DW_TAG_pointer_type, name: "*const u8", baseType: !16, size: 64, align: 64, dwarfAddressSpace: 0)
!143 = !DIDerivedType(tag: DW_TAG_member, name: "length", scope: !139, file: !13, baseType: !50, size: 64, align: 64, offset: 64)
!144 = !DIGlobalVariableExpression(var: !145, expr: !DIExpression())
!145 = distinct !DIGlobalVariable(name: "vtable", scope: null, file: !13, type: !57, isLocal: true, isDefinition: true)
!146 = !DIGlobalVariableExpression(var: !147, expr: !DIExpression())
!147 = distinct !DIGlobalVariable(name: "vtable", scope: null, file: !13, type: !148, isLocal: true, isDefinition: true)
!148 = !DICompositeType(tag: DW_TAG_structure_type, name: "vtable", file: !13, align: 64, flags: DIFlagArtificial, elements: !6, vtableHolder: !149, identifier: "vtable")
!149 = !DIDerivedType(tag: DW_TAG_pointer_type, name: "&memchr::cow::Imp", baseType: !150, size: 64, align: 64, dwarfAddressSpace: 0)
!150 = !DICompositeType(tag: DW_TAG_structure_type, name: "Imp", scope: !151, file: !13, size: 128, align: 64, elements: !152, templateParams: !6, identifier: "82936cfed83eede2831bcad32e146c5e")
!151 = !DINamespace(name: "cow", scope: !69)
!152 = !{!153}
!153 = !DIDerivedType(tag: DW_TAG_member, name: "__0", scope: !150, file: !13, baseType: !139, size: 128, align: 64)
!154 = !DIGlobalVariableExpression(var: !155, expr: !DIExpression())
!155 = distinct !DIGlobalVariable(name: "vtable", scope: null, file: !13, type: !156, isLocal: true, isDefinition: true)
!156 = !DICompositeType(tag: DW_TAG_structure_type, name: "vtable", file: !13, align: 64, flags: DIFlagArtificial, elements: !6, vtableHolder: !157, identifier: "vtable")
!157 = !DIDerivedType(tag: DW_TAG_pointer_type, name: "&&[u8]", baseType: !139, size: 64, align: 64, dwarfAddressSpace: 0)
!158 = !DIGlobalVariableExpression(var: !159, expr: !DIExpression())
!159 = distinct !DIGlobalVariable(name: "vtable", scope: null, file: !13, type: !160, isLocal: true, isDefinition: true)
!160 = !DICompositeType(tag: DW_TAG_structure_type, name: "vtable", file: !13, align: 64, flags: DIFlagArtificial, elements: !6, vtableHolder: !161, identifier: "vtable")
!161 = !DIDerivedType(tag: DW_TAG_pointer_type, name: "&u32", baseType: !119, size: 64, align: 64, dwarfAddressSpace: 0)
!162 = !DIGlobalVariableExpression(var: !163, expr: !DIExpression())
!163 = distinct !DIGlobalVariable(name: "vtable", scope: null, file: !13, type: !164, isLocal: true, isDefinition: true)
!164 = !DICompositeType(tag: DW_TAG_structure_type, name: "vtable", file: !13, align: 64, flags: DIFlagArtificial, elements: !6, vtableHolder: !165, identifier: "vtable")
!165 = !DIDerivedType(tag: DW_TAG_pointer_type, name: "&memchr::memmem::rabinkarp::Hash", baseType: !135, size: 64, align: 64, dwarfAddressSpace: 0)
!166 = !DIGlobalVariableExpression(var: !167, expr: !DIExpression())
!167 = distinct !DIGlobalVariable(name: "vtable", scope: null, file: !13, type: !168, isLocal: true, isDefinition: true)
!168 = !DICompositeType(tag: DW_TAG_structure_type, name: "vtable", file: !13, align: 64, flags: DIFlagArtificial, elements: !6, vtableHolder: !169, identifier: "vtable")
!169 = !DIDerivedType(tag: DW_TAG_pointer_type, name: "&memchr::memmem::twoway::TwoWay", baseType: !170, size: 64, align: 64, dwarfAddressSpace: 0)
!170 = !DICompositeType(tag: DW_TAG_structure_type, name: "TwoWay", scope: !74, file: !13, size: 256, align: 64, elements: !171, templateParams: !6, identifier: "8da270f3fa0f9425736f249045cf222")
!171 = !{!172, !176, !177}
!172 = !DIDerivedType(tag: DW_TAG_member, name: "byteset", scope: !170, file: !13, baseType: !173, size: 64, align: 64)
!173 = !DICompositeType(tag: DW_TAG_structure_type, name: "ApproximateByteSet", scope: !74, file: !13, size: 64, align: 64, elements: !174, templateParams: !6, identifier: "2e5c071fde4e3272719a0504dc91855d")
!174 = !{!175}
!175 = !DIDerivedType(tag: DW_TAG_member, name: "__0", scope: !173, file: !13, baseType: !54, size: 64, align: 64)
!176 = !DIDerivedType(tag: DW_TAG_member, name: "critical_pos", scope: !170, file: !13, baseType: !50, size: 64, align: 64, offset: 64)
!177 = !DIDerivedType(tag: DW_TAG_member, name: "shift", scope: !170, file: !13, baseType: !178, size: 128, align: 64, offset: 128)
!178 = !DICompositeType(tag: DW_TAG_structure_type, name: "Shift", scope: !74, file: !13, size: 128, align: 64, elements: !179, identifier: "72ac1a9bec6a6334575ccf9a301579cc")
!179 = !{!180}
!180 = !DICompositeType(tag: DW_TAG_variant_part, scope: !74, file: !13, size: 128, align: 64, elements: !181, templateParams: !6, identifier: "72ac1a9bec6a6334575ccf9a301579cc_variant_part", discriminator: !190)
!181 = !{!182, !186}
!182 = !DIDerivedType(tag: DW_TAG_member, name: "Small", scope: !180, file: !13, baseType: !183, size: 128, align: 64, extraData: i64 0)
!183 = !DICompositeType(tag: DW_TAG_structure_type, name: "Small", scope: !178, file: !13, size: 128, align: 64, elements: !184, templateParams: !6, identifier: "72ac1a9bec6a6334575ccf9a301579cc::Small")
!184 = !{!185}
!185 = !DIDerivedType(tag: DW_TAG_member, name: "period", scope: !183, file: !13, baseType: !50, size: 64, align: 64, offset: 64)
!186 = !DIDerivedType(tag: DW_TAG_member, name: "Large", scope: !180, file: !13, baseType: !187, size: 128, align: 64, extraData: i64 1)
!187 = !DICompositeType(tag: DW_TAG_structure_type, name: "Large", scope: !178, file: !13, size: 128, align: 64, elements: !188, templateParams: !6, identifier: "72ac1a9bec6a6334575ccf9a301579cc::Large")
!188 = !{!189}
!189 = !DIDerivedType(tag: DW_TAG_member, name: "shift", scope: !187, file: !13, baseType: !50, size: 64, align: 64, offset: 64)
!190 = !DIDerivedType(tag: DW_TAG_member, scope: !74, file: !13, baseType: !54, size: 64, align: 64, flags: DIFlagArtificial)
!191 = !DIGlobalVariableExpression(var: !192, expr: !DIExpression())
!192 = distinct !DIGlobalVariable(name: "vtable", scope: null, file: !13, type: !193, isLocal: true, isDefinition: true)
!193 = !DICompositeType(tag: DW_TAG_structure_type, name: "vtable", file: !13, align: 64, flags: DIFlagArtificial, elements: !6, vtableHolder: !194, identifier: "vtable")
!194 = !DIDerivedType(tag: DW_TAG_pointer_type, name: "&memchr::memmem::twoway::ApproximateByteSet", baseType: !173, size: 64, align: 64, dwarfAddressSpace: 0)
!195 = !DIGlobalVariableExpression(var: !196, expr: !DIExpression())
!196 = distinct !DIGlobalVariable(name: "vtable", scope: null, file: !13, type: !197, isLocal: true, isDefinition: true)
!197 = !DICompositeType(tag: DW_TAG_structure_type, name: "vtable", file: !13, align: 64, flags: DIFlagArtificial, elements: !6, vtableHolder: !198, identifier: "vtable")
!198 = !DIDerivedType(tag: DW_TAG_pointer_type, name: "&memchr::memmem::twoway::Shift", baseType: !178, size: 64, align: 64, dwarfAddressSpace: 0)
!199 = !DIGlobalVariableExpression(var: !200, expr: !DIExpression())
!200 = distinct !DIGlobalVariable(name: "vtable", scope: null, file: !13, type: !201, isLocal: true, isDefinition: true)
!201 = !DICompositeType(tag: DW_TAG_structure_type, name: "vtable", file: !13, align: 64, flags: DIFlagArtificial, elements: !6, vtableHolder: !202, identifier: "vtable")
!202 = !DIDerivedType(tag: DW_TAG_pointer_type, name: "&u64", baseType: !54, size: 64, align: 64, dwarfAddressSpace: 0)
!203 = !DIGlobalVariableExpression(var: !204, expr: !DIExpression())
!204 = distinct !DIGlobalVariable(name: "vtable", scope: null, file: !13, type: !205, isLocal: true, isDefinition: true)
!205 = !DICompositeType(tag: DW_TAG_structure_type, name: "vtable", file: !13, align: 64, flags: DIFlagArtificial, elements: !6, vtableHolder: !206, identifier: "vtable")
!206 = !DIDerivedType(tag: DW_TAG_pointer_type, name: "&()", baseType: !207, size: 64, align: 64, dwarfAddressSpace: 0)
!207 = !DIBasicType(name: "()", encoding: DW_ATE_unsigned)
!208 = !DIGlobalVariableExpression(var: !209, expr: !DIExpression())
!209 = distinct !DIGlobalVariable(name: "vtable", scope: null, file: !13, type: !210, isLocal: true, isDefinition: true)
!210 = !DICompositeType(tag: DW_TAG_structure_type, name: "vtable", file: !13, align: 64, flags: DIFlagArtificial, elements: !6, vtableHolder: !211, identifier: "vtable")
!211 = !DIDerivedType(tag: DW_TAG_pointer_type, name: "&memchr::memmem::genericsimd::Forward", baseType: !212, size: 64, align: 64, dwarfAddressSpace: 0)
!212 = !DICompositeType(tag: DW_TAG_structure_type, name: "Forward", scope: !213, file: !13, size: 16, align: 8, elements: !214, templateParams: !6, identifier: "613971f51ad51364c73d494c2f0c2f6c")
!213 = !DINamespace(name: "genericsimd", scope: !68)
!214 = !{!215, !216}
!215 = !DIDerivedType(tag: DW_TAG_member, name: "rare1i", scope: !212, file: !13, baseType: !16, size: 8, align: 8)
!216 = !DIDerivedType(tag: DW_TAG_member, name: "rare2i", scope: !212, file: !13, baseType: !16, size: 8, align: 8, offset: 8)
!217 = !DIGlobalVariableExpression(var: !218, expr: !DIExpression())
!218 = distinct !DIGlobalVariable(name: "vtable", scope: null, file: !13, type: !219, isLocal: true, isDefinition: true)
!219 = !DICompositeType(tag: DW_TAG_structure_type, name: "vtable", file: !13, align: 64, flags: DIFlagArtificial, elements: !6, vtableHolder: !220, identifier: "vtable")
!220 = !DIDerivedType(tag: DW_TAG_pointer_type, name: "&memchr::memmem::prefilter::PrefilterState", baseType: !116, size: 64, align: 64, dwarfAddressSpace: 0)
!221 = !DIGlobalVariableExpression(var: !222, expr: !DIExpression())
!222 = distinct !DIGlobalVariable(name: "vtable", scope: null, file: !13, type: !223, isLocal: true, isDefinition: true)
!223 = !DICompositeType(tag: DW_TAG_structure_type, name: "vtable", file: !13, align: 64, flags: DIFlagArtificial, elements: !6, vtableHolder: !224, identifier: "vtable")
!224 = !DIDerivedType(tag: DW_TAG_pointer_type, name: "&memchr::memmem::Finder", baseType: !225, size: 64, align: 64, dwarfAddressSpace: 0)
!225 = !DICompositeType(tag: DW_TAG_structure_type, name: "Finder", scope: !68, file: !13, size: 640, align: 64, elements: !226, templateParams: !6, identifier: "6d66587fd4fcd5493286ad0718939c55")
!226 = !{!227}
!227 = !DIDerivedType(tag: DW_TAG_member, name: "searcher", scope: !225, file: !13, baseType: !228, size: 640, align: 64)
!228 = !DICompositeType(tag: DW_TAG_structure_type, name: "Searcher", scope: !68, file: !13, size: 640, align: 64, elements: !229, templateParams: !6, identifier: "bf5be8d361b42a4e9f381b04ec4677f0")
!229 = !{!230, !234, !235, !248}
!230 = !DIDerivedType(tag: DW_TAG_member, name: "needle", scope: !228, file: !13, baseType: !231, size: 128, align: 64)
!231 = !DICompositeType(tag: DW_TAG_structure_type, name: "CowBytes", scope: !151, file: !13, size: 128, align: 64, elements: !232, templateParams: !6, identifier: "9e544ec536d86404659011a29422101c")
!232 = !{!233}
!233 = !DIDerivedType(tag: DW_TAG_member, name: "__0", scope: !231, file: !13, baseType: !150, size: 128, align: 64)
!234 = !DIDerivedType(tag: DW_TAG_member, name: "ninfo", scope: !228, file: !13, baseType: !122, size: 96, align: 32, offset: 512)
!235 = !DIDerivedType(tag: DW_TAG_member, name: "prefn", scope: !228, file: !13, baseType: !236, size: 64, align: 64, offset: 128)
!236 = !DICompositeType(tag: DW_TAG_structure_type, name: "Option<memchr::memmem::prefilter::PrefilterFn>", scope: !84, file: !13, size: 64, align: 64, elements: !237, identifier: "c167e9489f4b9d2dc0e0d55d893d86f4")
!237 = !{!238}
!238 = !DICompositeType(tag: DW_TAG_variant_part, scope: !84, file: !13, size: 64, align: 64, elements: !239, templateParams: !242, identifier: "c167e9489f4b9d2dc0e0d55d893d86f4_variant_part", discriminator: !114)
!239 = !{!240, !244}
!240 = !DIDerivedType(tag: DW_TAG_member, name: "None", scope: !238, file: !13, baseType: !241, size: 64, align: 64, extraData: i64 0)
!241 = !DICompositeType(tag: DW_TAG_structure_type, name: "None", scope: !236, file: !13, size: 64, align: 64, elements: !6, templateParams: !242, identifier: "c167e9489f4b9d2dc0e0d55d893d86f4::None")
!242 = !{!243}
!243 = !DITemplateTypeParameter(name: "T", type: !96)
!244 = !DIDerivedType(tag: DW_TAG_member, name: "Some", scope: !238, file: !13, baseType: !245, size: 64, align: 64)
!245 = !DICompositeType(tag: DW_TAG_structure_type, name: "Some", scope: !236, file: !13, size: 64, align: 64, elements: !246, templateParams: !242, identifier: "c167e9489f4b9d2dc0e0d55d893d86f4::Some")
!246 = !{!247}
!247 = !DIDerivedType(tag: DW_TAG_member, name: "__0", scope: !245, file: !13, baseType: !96, size: 64, align: 64)
!248 = !DIDerivedType(tag: DW_TAG_member, name: "kind", scope: !228, file: !13, baseType: !249, size: 320, align: 64, offset: 192)
!249 = !DICompositeType(tag: DW_TAG_structure_type, name: "SearcherKind", scope: !68, file: !13, size: 320, align: 64, elements: !250, identifier: "3e968070321709718bacc1737eaef715")
!250 = !{!251}
!251 = !DICompositeType(tag: DW_TAG_variant_part, scope: !68, file: !13, size: 320, align: 64, elements: !252, templateParams: !6, identifier: "3e968070321709718bacc1737eaef715_variant_part", discriminator: !284)
!252 = !{!253, !255, !259, !266, !275}
!253 = !DIDerivedType(tag: DW_TAG_member, name: "Empty", scope: !251, file: !13, baseType: !254, size: 320, align: 64, extraData: i64 0)
!254 = !DICompositeType(tag: DW_TAG_structure_type, name: "Empty", scope: !249, file: !13, size: 320, align: 64, elements: !6, templateParams: !6, identifier: "3e968070321709718bacc1737eaef715::Empty")
!255 = !DIDerivedType(tag: DW_TAG_member, name: "OneByte", scope: !251, file: !13, baseType: !256, size: 320, align: 64, extraData: i64 1)
!256 = !DICompositeType(tag: DW_TAG_structure_type, name: "OneByte", scope: !249, file: !13, size: 320, align: 64, elements: !257, templateParams: !6, identifier: "3e968070321709718bacc1737eaef715::OneByte")
!257 = !{!258}
!258 = !DIDerivedType(tag: DW_TAG_member, name: "__0", scope: !256, file: !13, baseType: !16, size: 8, align: 8, offset: 8)
!259 = !DIDerivedType(tag: DW_TAG_member, name: "TwoWay", scope: !251, file: !13, baseType: !260, size: 320, align: 64, extraData: i64 2)
!260 = !DICompositeType(tag: DW_TAG_structure_type, name: "TwoWay", scope: !249, file: !13, size: 320, align: 64, elements: !261, templateParams: !6, identifier: "3e968070321709718bacc1737eaef715::TwoWay")
!261 = !{!262}
!262 = !DIDerivedType(tag: DW_TAG_member, name: "__0", scope: !260, file: !13, baseType: !263, size: 256, align: 64, offset: 64)
!263 = !DICompositeType(tag: DW_TAG_structure_type, name: "Forward", scope: !74, file: !13, size: 256, align: 64, elements: !264, templateParams: !6, identifier: "6c5a601d73dc84c9adb765b7491c65b9")
!264 = !{!265}
!265 = !DIDerivedType(tag: DW_TAG_member, name: "__0", scope: !263, file: !13, baseType: !170, size: 256, align: 64)
!266 = !DIDerivedType(tag: DW_TAG_member, name: "GenericSIMD128", scope: !251, file: !13, baseType: !267, size: 320, align: 64, extraData: i64 3)
!267 = !DICompositeType(tag: DW_TAG_structure_type, name: "GenericSIMD128", scope: !249, file: !13, size: 320, align: 64, elements: !268, templateParams: !6, identifier: "3e968070321709718bacc1737eaef715::GenericSIMD128")
!268 = !{!269}
!269 = !DIDerivedType(tag: DW_TAG_member, name: "__0", scope: !267, file: !13, baseType: !270, size: 16, align: 8, offset: 8)
!270 = !DICompositeType(tag: DW_TAG_structure_type, name: "Forward", scope: !271, file: !13, size: 16, align: 8, elements: !273, templateParams: !6, identifier: "4b683479de2780e97f83ccfd54539cd4")
!271 = !DINamespace(name: "sse", scope: !272)
!272 = !DINamespace(name: "x86", scope: !68)
!273 = !{!274}
!274 = !DIDerivedType(tag: DW_TAG_member, name: "__0", scope: !270, file: !13, baseType: !212, size: 16, align: 8)
!275 = !DIDerivedType(tag: DW_TAG_member, name: "GenericSIMD256", scope: !251, file: !13, baseType: !276, size: 320, align: 64, extraData: i64 4)
!276 = !DICompositeType(tag: DW_TAG_structure_type, name: "GenericSIMD256", scope: !249, file: !13, size: 320, align: 64, elements: !277, templateParams: !6, identifier: "3e968070321709718bacc1737eaef715::GenericSIMD256")
!277 = !{!278}
!278 = !DIDerivedType(tag: DW_TAG_member, name: "__0", scope: !276, file: !13, baseType: !279, align: 8, offset: 8)
!279 = !DICompositeType(tag: DW_TAG_structure_type, name: "Forward", scope: !280, file: !13, align: 8, elements: !282, templateParams: !6, identifier: "4a53c111fc3b6332cd69d8efc713ddcf")
!280 = !DINamespace(name: "nostd", scope: !281)
!281 = !DINamespace(name: "avx", scope: !272)
!282 = !{!283}
!283 = !DIDerivedType(tag: DW_TAG_member, name: "__0", scope: !279, file: !13, baseType: !207, align: 8)
!284 = !DIDerivedType(tag: DW_TAG_member, scope: !68, file: !13, baseType: !16, size: 8, align: 8, flags: DIFlagArtificial)
!285 = !DIGlobalVariableExpression(var: !286, expr: !DIExpression())
!286 = distinct !DIGlobalVariable(name: "vtable", scope: null, file: !13, type: !287, isLocal: true, isDefinition: true)
!287 = !DICompositeType(tag: DW_TAG_structure_type, name: "vtable", file: !13, align: 64, flags: DIFlagArtificial, elements: !6, vtableHolder: !288, identifier: "vtable")
!288 = !DIDerivedType(tag: DW_TAG_pointer_type, name: "&memchr::memmem::FinderRev", baseType: !289, size: 64, align: 64, dwarfAddressSpace: 0)
!289 = !DICompositeType(tag: DW_TAG_structure_type, name: "FinderRev", scope: !68, file: !13, size: 512, align: 64, elements: !290, templateParams: !6, identifier: "a2f650c078523eb6bc676f98e334e71")
!290 = !{!291}
!291 = !DIDerivedType(tag: DW_TAG_member, name: "searcher", scope: !289, file: !13, baseType: !292, size: 512, align: 64)
!292 = !DICompositeType(tag: DW_TAG_structure_type, name: "SearcherRev", scope: !68, file: !13, size: 512, align: 64, elements: !293, templateParams: !6, identifier: "60391049e81f8c95916c2438e5b4f022")
!293 = !{!294, !295, !296}
!294 = !DIDerivedType(tag: DW_TAG_member, name: "needle", scope: !292, file: !13, baseType: !231, size: 128, align: 64)
!295 = !DIDerivedType(tag: DW_TAG_member, name: "nhash", scope: !292, file: !13, baseType: !131, size: 64, align: 32, offset: 448)
!296 = !DIDerivedType(tag: DW_TAG_member, name: "kind", scope: !292, file: !13, baseType: !297, size: 320, align: 64, offset: 128)
!297 = !DICompositeType(tag: DW_TAG_structure_type, name: "SearcherRevKind", scope: !68, file: !13, size: 320, align: 64, elements: !298, identifier: "aabf02e456a42bfba7be951cc9f592ce")
!298 = !{!299}
!299 = !DICompositeType(tag: DW_TAG_variant_part, scope: !68, file: !13, size: 320, align: 64, elements: !300, templateParams: !6, identifier: "aabf02e456a42bfba7be951cc9f592ce_variant_part", discriminator: !284)
!300 = !{!301, !303, !307}
!301 = !DIDerivedType(tag: DW_TAG_member, name: "Empty", scope: !299, file: !13, baseType: !302, size: 320, align: 64, extraData: i64 0)
!302 = !DICompositeType(tag: DW_TAG_structure_type, name: "Empty", scope: !297, file: !13, size: 320, align: 64, elements: !6, templateParams: !6, identifier: "aabf02e456a42bfba7be951cc9f592ce::Empty")
!303 = !DIDerivedType(tag: DW_TAG_member, name: "OneByte", scope: !299, file: !13, baseType: !304, size: 320, align: 64, extraData: i64 1)
!304 = !DICompositeType(tag: DW_TAG_structure_type, name: "OneByte", scope: !297, file: !13, size: 320, align: 64, elements: !305, templateParams: !6, identifier: "aabf02e456a42bfba7be951cc9f592ce::OneByte")
!305 = !{!306}
!306 = !DIDerivedType(tag: DW_TAG_member, name: "__0", scope: !304, file: !13, baseType: !16, size: 8, align: 8, offset: 8)
!307 = !DIDerivedType(tag: DW_TAG_member, name: "TwoWay", scope: !299, file: !13, baseType: !308, size: 320, align: 64, extraData: i64 2)
!308 = !DICompositeType(tag: DW_TAG_structure_type, name: "TwoWay", scope: !297, file: !13, size: 320, align: 64, elements: !309, templateParams: !6, identifier: "aabf02e456a42bfba7be951cc9f592ce::TwoWay")
!309 = !{!310}
!310 = !DIDerivedType(tag: DW_TAG_member, name: "__0", scope: !308, file: !13, baseType: !311, size: 256, align: 64, offset: 64)
!311 = !DICompositeType(tag: DW_TAG_structure_type, name: "Reverse", scope: !74, file: !13, size: 256, align: 64, elements: !312, templateParams: !6, identifier: "349db6a4601594aaf42433e65ead4607")
!312 = !{!313}
!313 = !DIDerivedType(tag: DW_TAG_member, name: "__0", scope: !311, file: !13, baseType: !170, size: 256, align: 64)
!314 = !DIGlobalVariableExpression(var: !315, expr: !DIExpression())
!315 = distinct !DIGlobalVariable(name: "vtable", scope: null, file: !13, type: !316, isLocal: true, isDefinition: true)
!316 = !DICompositeType(tag: DW_TAG_structure_type, name: "vtable", file: !13, align: 64, flags: DIFlagArtificial, elements: !6, vtableHolder: !317, identifier: "vtable")
!317 = !DIDerivedType(tag: DW_TAG_pointer_type, name: "&core::option::Option<usize>", baseType: !102, size: 64, align: 64, dwarfAddressSpace: 0)
!318 = !DIGlobalVariableExpression(var: !319, expr: !DIExpression())
!319 = distinct !DIGlobalVariable(name: "vtable", scope: null, file: !13, type: !320, isLocal: true, isDefinition: true)
!320 = !DICompositeType(tag: DW_TAG_structure_type, name: "vtable", file: !13, align: 64, flags: DIFlagArtificial, elements: !6, vtableHolder: !321, identifier: "vtable")
!321 = !DIDerivedType(tag: DW_TAG_pointer_type, name: "&memchr::memmem::Searcher", baseType: !228, size: 64, align: 64, dwarfAddressSpace: 0)
!322 = !DIGlobalVariableExpression(var: !323, expr: !DIExpression())
!323 = distinct !DIGlobalVariable(name: "vtable", scope: null, file: !13, type: !324, isLocal: true, isDefinition: true)
!324 = !DICompositeType(tag: DW_TAG_structure_type, name: "vtable", file: !13, align: 64, flags: DIFlagArtificial, elements: !6, vtableHolder: !325, identifier: "vtable")
!325 = !DIDerivedType(tag: DW_TAG_pointer_type, name: "&memchr::memmem::SearcherRev", baseType: !292, size: 64, align: 64, dwarfAddressSpace: 0)
!326 = !DIGlobalVariableExpression(var: !327, expr: !DIExpression())
!327 = distinct !DIGlobalVariable(name: "vtable", scope: null, file: !13, type: !328, isLocal: true, isDefinition: true)
!328 = !DICompositeType(tag: DW_TAG_structure_type, name: "vtable", file: !13, align: 64, flags: DIFlagArtificial, elements: !6, vtableHolder: !329, identifier: "vtable")
!329 = !DIDerivedType(tag: DW_TAG_pointer_type, name: "&memchr::memmem::SearcherConfig", baseType: !330, size: 64, align: 64, dwarfAddressSpace: 0)
!330 = !DICompositeType(tag: DW_TAG_structure_type, name: "SearcherConfig", scope: !68, file: !13, size: 8, align: 8, elements: !331, templateParams: !6, identifier: "708d31c0c262cdcdbdf9157f077dcb2a")
!331 = !{!332}
!332 = !DIDerivedType(tag: DW_TAG_member, name: "prefilter", scope: !330, file: !13, baseType: !66, size: 8, align: 8)
!333 = !DIGlobalVariableExpression(var: !334, expr: !DIExpression())
!334 = distinct !DIGlobalVariable(name: "vtable", scope: null, file: !13, type: !335, isLocal: true, isDefinition: true)
!335 = !DICompositeType(tag: DW_TAG_structure_type, name: "vtable", file: !13, align: 64, flags: DIFlagArtificial, elements: !6, vtableHolder: !336, identifier: "vtable")
!336 = !DIDerivedType(tag: DW_TAG_pointer_type, name: "&memchr::cow::CowBytes", baseType: !231, size: 64, align: 64, dwarfAddressSpace: 0)
!337 = !DIGlobalVariableExpression(var: !338, expr: !DIExpression())
!338 = distinct !DIGlobalVariable(name: "vtable", scope: null, file: !13, type: !339, isLocal: true, isDefinition: true)
!339 = !DICompositeType(tag: DW_TAG_structure_type, name: "vtable", file: !13, align: 64, flags: DIFlagArtificial, elements: !6, vtableHolder: !121, identifier: "vtable")
!340 = !DIGlobalVariableExpression(var: !341, expr: !DIExpression())
!341 = distinct !DIGlobalVariable(name: "vtable", scope: null, file: !13, type: !342, isLocal: true, isDefinition: true)
!342 = !DICompositeType(tag: DW_TAG_structure_type, name: "vtable", file: !13, align: 64, flags: DIFlagArtificial, elements: !6, vtableHolder: !343, identifier: "vtable")
!343 = !DIDerivedType(tag: DW_TAG_pointer_type, name: "&core::option::Option<memchr::memmem::prefilter::PrefilterFn>", baseType: !236, size: 64, align: 64, dwarfAddressSpace: 0)
!344 = !DIGlobalVariableExpression(var: !345, expr: !DIExpression())
!345 = distinct !DIGlobalVariable(name: "vtable", scope: null, file: !13, type: !346, isLocal: true, isDefinition: true)
!346 = !DICompositeType(tag: DW_TAG_structure_type, name: "vtable", file: !13, align: 64, flags: DIFlagArtificial, elements: !6, vtableHolder: !347, identifier: "vtable")
!347 = !DIDerivedType(tag: DW_TAG_pointer_type, name: "&memchr::memmem::SearcherKind", baseType: !249, size: 64, align: 64, dwarfAddressSpace: 0)
!348 = !DIGlobalVariableExpression(var: !349, expr: !DIExpression())
!349 = distinct !DIGlobalVariable(name: "vtable", scope: null, file: !13, type: !350, isLocal: true, isDefinition: true)
!350 = !DICompositeType(tag: DW_TAG_structure_type, name: "vtable", file: !13, align: 64, flags: DIFlagArtificial, elements: !6, vtableHolder: !351, identifier: "vtable")
!351 = !DIDerivedType(tag: DW_TAG_pointer_type, name: "&memchr::memmem::rarebytes::RareNeedleBytes", baseType: !125, size: 64, align: 64, dwarfAddressSpace: 0)
!352 = !DIGlobalVariableExpression(var: !353, expr: !DIExpression())
!353 = distinct !DIGlobalVariable(name: "vtable", scope: null, file: !13, type: !354, isLocal: true, isDefinition: true)
!354 = !DICompositeType(tag: DW_TAG_structure_type, name: "vtable", file: !13, align: 64, flags: DIFlagArtificial, elements: !6, vtableHolder: !355, identifier: "vtable")
!355 = !DIDerivedType(tag: DW_TAG_pointer_type, name: "&memchr::memmem::rabinkarp::NeedleHash", baseType: !131, size: 64, align: 64, dwarfAddressSpace: 0)
!356 = !DIGlobalVariableExpression(var: !357, expr: !DIExpression())
!357 = distinct !DIGlobalVariable(name: "vtable", scope: null, file: !13, type: !358, isLocal: true, isDefinition: true)
!358 = !DICompositeType(tag: DW_TAG_structure_type, name: "vtable", file: !13, align: 64, flags: DIFlagArtificial, elements: !6, vtableHolder: !359, identifier: "vtable")
!359 = !DIDerivedType(tag: DW_TAG_pointer_type, name: "&memchr::memmem::prefilter::Prefilter", baseType: !66, size: 64, align: 64, dwarfAddressSpace: 0)
!360 = !DIGlobalVariableExpression(var: !361, expr: !DIExpression())
!361 = distinct !DIGlobalVariable(name: "vtable", scope: null, file: !13, type: !362, isLocal: true, isDefinition: true)
!362 = !DICompositeType(tag: DW_TAG_structure_type, name: "vtable", file: !13, align: 64, flags: DIFlagArtificial, elements: !6, vtableHolder: !363, identifier: "vtable")
!363 = !DIDerivedType(tag: DW_TAG_pointer_type, name: "&memchr::memmem::x86::avx::nostd::Forward", baseType: !279, size: 64, align: 64, dwarfAddressSpace: 0)
!364 = !DIGlobalVariableExpression(var: !365, expr: !DIExpression())
!365 = distinct !DIGlobalVariable(name: "vtable", scope: null, file: !13, type: !366, isLocal: true, isDefinition: true)
!366 = !DICompositeType(tag: DW_TAG_structure_type, name: "vtable", file: !13, align: 64, flags: DIFlagArtificial, elements: !6, vtableHolder: !367, identifier: "vtable")
!367 = !DIDerivedType(tag: DW_TAG_pointer_type, name: "&memchr::memmem::x86::sse::Forward", baseType: !270, size: 64, align: 64, dwarfAddressSpace: 0)
!368 = !DIGlobalVariableExpression(var: !369, expr: !DIExpression())
!369 = distinct !DIGlobalVariable(name: "vtable", scope: null, file: !13, type: !370, isLocal: true, isDefinition: true)
!370 = !DICompositeType(tag: DW_TAG_structure_type, name: "vtable", file: !13, align: 64, flags: DIFlagArtificial, elements: !6, vtableHolder: !371, identifier: "vtable")
!371 = !DIDerivedType(tag: DW_TAG_pointer_type, name: "&memchr::memmem::twoway::Forward", baseType: !263, size: 64, align: 64, dwarfAddressSpace: 0)
!372 = !DIGlobalVariableExpression(var: !373, expr: !DIExpression())
!373 = distinct !DIGlobalVariable(name: "vtable", scope: null, file: !13, type: !374, isLocal: true, isDefinition: true)
!374 = !DICompositeType(tag: DW_TAG_structure_type, name: "vtable", file: !13, align: 64, flags: DIFlagArtificial, elements: !6, vtableHolder: !375, identifier: "vtable")
!375 = !DIDerivedType(tag: DW_TAG_pointer_type, name: "&memchr::memmem::SearcherRevKind", baseType: !297, size: 64, align: 64, dwarfAddressSpace: 0)
!376 = !DIGlobalVariableExpression(var: !377, expr: !DIExpression())
!377 = distinct !DIGlobalVariable(name: "vtable", scope: null, file: !13, type: !378, isLocal: true, isDefinition: true)
!378 = !DICompositeType(tag: DW_TAG_structure_type, name: "vtable", file: !13, align: 64, flags: DIFlagArtificial, elements: !6, vtableHolder: !379, identifier: "vtable")
!379 = !DIDerivedType(tag: DW_TAG_pointer_type, name: "&memchr::memmem::twoway::Reverse", baseType: !311, size: 64, align: 64, dwarfAddressSpace: 0)
!380 = distinct !DICompileUnit(language: DW_LANG_Rust, file: !381, producer: "clang LLVM (rustc version 1.51.0 (2fd73fabe 2021-03-23))", isOptimized: false, runtimeVersion: 0, emissionKind: FullDebug, enums: !382)
!381 = !DIFile(filename: "/home/ubuntu/.cargo/git/checkouts/panic-klee-aa8d015442188497/3b0c897/src/lib.rs", directory: "/home/ubuntu/container-data/mult/target/debug/deps")
!382 = !{!20, !12}
!383 = distinct !DICompileUnit(language: DW_LANG_Rust, file: !384, producer: "clang LLVM (rustc version 1.51.0 (2fd73fabe 2021-03-23))", isOptimized: true, runtimeVersion: 0, emissionKind: FullDebug, enums: !6)
!384 = !DIFile(filename: "library/rustc-std-workspace-core/lib.rs", directory: "/checkout/obj/build/x86_64-unknown-linux-gnu/stage1-std/x86_64-unknown-linux-gnu/release/deps")
!385 = distinct !DISubprogram(name: "from_bytes_with_nul_unchecked", linkageName: "_ZN9cstr_core4CStr29from_bytes_with_nul_unchecked17h11198e158455988cE", scope: !387, file: !386, line: 1162, type: !393, scopeLine: 1162, flags: DIFlagPrototyped, spFlags: DISPFlagLocalToUnit | DISPFlagDefinition, unit: !4, templateParams: !6, retainedNodes: !400)
!386 = !DIFile(filename: "/home/ubuntu/.cargo/registry/src/github.com-1ecc6299db9ec823/cstr_core-0.2.5/src/lib.rs", directory: "", checksumkind: CSK_MD5, checksum: "3a4727b3481b2bcf3c156ce21ae07237")
!387 = !DICompositeType(tag: DW_TAG_structure_type, name: "CStr", scope: !42, file: !13, align: 8, elements: !388, templateParams: !6, identifier: "816043fef5ec2c8f99a3ea64db77b1b6")
!388 = !{!389}
!389 = !DIDerivedType(tag: DW_TAG_member, name: "inner", scope: !387, file: !13, baseType: !390, align: 8)
!390 = !DICompositeType(tag: DW_TAG_array_type, baseType: !31, align: 8, elements: !391)
!391 = !{!392}
!392 = !DISubrange(count: -1, lowerBound: 0)
!393 = !DISubroutineType(types: !394)
!394 = !{!395, !396}
!395 = !DIDerivedType(tag: DW_TAG_pointer_type, name: "&cstr_core::CStr", baseType: !387, size: 128, align: 64, dwarfAddressSpace: 0)
!396 = !DICompositeType(tag: DW_TAG_structure_type, name: "&[u8]", file: !13, size: 128, align: 64, elements: !397, templateParams: !6, identifier: "585202bcfc7dfd1dd72e8befe2491ee4")
!397 = !{!398, !399}
!398 = !DIDerivedType(tag: DW_TAG_member, name: "data_ptr", scope: !396, file: !13, baseType: !142, size: 64, align: 64)
!399 = !DIDerivedType(tag: DW_TAG_member, name: "length", scope: !396, file: !13, baseType: !50, size: 64, align: 64, offset: 64)
!400 = !{!401}
!401 = !DILocalVariable(name: "bytes", arg: 1, scope: !385, file: !386, line: 1162, type: !396)
!402 = !DILocation(line: 1162, column: 49, scope: !385)
!403 = !DILocation(line: 1163, column: 11, scope: !385)
!404 = !DILocation(line: 1164, column: 6, scope: !385)
!405 = distinct !DISubprogram(name: "as_ptr", linkageName: "_ZN9cstr_core4CStr6as_ptr17he630c7e19197799cE", scope: !387, file: !386, line: 1214, type: !406, scopeLine: 1214, flags: DIFlagPrototyped, spFlags: DISPFlagLocalToUnit | DISPFlagDefinition, unit: !4, templateParams: !6, retainedNodes: !409)
!406 = !DISubroutineType(types: !407)
!407 = !{!408, !395}
!408 = !DIDerivedType(tag: DW_TAG_pointer_type, name: "*const i8", baseType: !31, size: 64, align: 64, dwarfAddressSpace: 0)
!409 = !{!410}
!410 = !DILocalVariable(name: "self", arg: 1, scope: !405, file: !386, line: 1214, type: !395)
!411 = !DILocation(line: 1214, column: 25, scope: !405)
!412 = !DILocation(line: 1215, column: 9, scope: !405)
!413 = !DILocation(line: 1216, column: 6, scope: !405)
!414 = distinct !DISubprogram(name: "multiply", linkageName: "_ZN4mult8multiply17h2aa65e21c8a60be6E", scope: !416, file: !415, line: 8, type: !417, scopeLine: 8, flags: DIFlagPrototyped, spFlags: DISPFlagLocalToUnit | DISPFlagDefinition, unit: !4, templateParams: !6, retainedNodes: !419)
!415 = !DIFile(filename: "src/main.rs", directory: "/home/ubuntu/container-data/mult", checksumkind: CSK_MD5, checksum: "558913ac041b63e28c166f4cd775784d")
!416 = !DINamespace(name: "mult", scope: null)
!417 = !DISubroutineType(types: !418)
!418 = !{null, !119, !119}
!419 = !{!420, !421, !422}
!420 = !DILocalVariable(name: "a", arg: 1, scope: !414, file: !415, line: 8, type: !119)
!421 = !DILocalVariable(name: "b", arg: 2, scope: !414, file: !415, line: 8, type: !119)
!422 = !DILocalVariable(name: "r", scope: !423, file: !415, line: 10, type: !119, align: 4)
!423 = distinct !DILexicalBlock(scope: !414, file: !415, line: 10, column: 8)
!424 = !DILocation(line: 8, column: 13, scope: !414)
!425 = !DILocation(line: 8, column: 21, scope: !414)
!426 = !DILocation(line: 9, column: 11, scope: !414)
!427 = !DILocation(line: 9, column: 10, scope: !414)
!428 = !DILocation(line: 9, column: 36, scope: !414)
!429 = !DILocation(line: 9, column: 35, scope: !414)
!430 = !DILocation(line: 9, column: 7, scope: !414)
!431 = !{i8 0, i8 2}
!432 = !DILocation(line: 10, column: 16, scope: !414)
!433 = !DILocation(line: 10, column: 12, scope: !423)
!434 = !DILocation(line: 11, column: 22, scope: !423)
!435 = !DILocation(line: 11, column: 14, scope: !423)
!436 = !DILocation(line: 13, column: 2, scope: !414)
!437 = distinct !DISubprogram(name: "main", scope: !416, file: !415, line: 16, type: !438, scopeLine: 16, flags: DIFlagPrototyped, spFlags: DISPFlagDefinition, unit: !4, templateParams: !6, retainedNodes: !440)
!438 = !DISubroutineType(types: !439)
!439 = !{null}
!440 = !{!441, !443}
!441 = !DILocalVariable(name: "a", scope: !442, file: !415, line: 17, type: !119, align: 4)
!442 = distinct !DILexicalBlock(scope: !437, file: !415, line: 17, column: 5)
!443 = !DILocalVariable(name: "b", scope: !444, file: !415, line: 18, type: !119, align: 4)
!444 = distinct !DILexicalBlock(scope: !442, file: !415, line: 18, column: 5)
!445 = !DILocation(line: 17, column: 9, scope: !442)
!446 = !DILocation(line: 18, column: 9, scope: !444)
!447 = !DILocation(line: 17, column: 22, scope: !437)
!448 = !DILocation(line: 18, column: 22, scope: !442)
!449 = !{!450}
!450 = distinct !{!450, !451, !"_ZN4core3str21_$LT$impl$u20$str$GT$8as_bytes17hd4a894810077290dE: %self.0"}
!451 = distinct !{!451, !"_ZN4core3str21_$LT$impl$u20$str$GT$8as_bytes17hd4a894810077290dE"}
!452 = !DILocalVariable(name: "self", arg: 1, scope: !453, file: !454, line: 224, type: !459)
!453 = distinct !DISubprogram(name: "as_bytes", linkageName: "_ZN4core3str21_$LT$impl$u20$str$GT$8as_bytes17hd4a894810077290dE", scope: !455, file: !454, line: 224, type: !457, scopeLine: 224, flags: DIFlagPrototyped, spFlags: DISPFlagLocalToUnit | DISPFlagDefinition, unit: !4, templateParams: !6, retainedNodes: !463)
!454 = !DIFile(filename: "/rustc/2fd73fabe469357a12c2c974c140f67e7cdd76d0/library/core/src/str/mod.rs", directory: "", checksumkind: CSK_MD5, checksum: "288711a6cf0e0d8143d78b5fe87cac66")
!455 = !DINamespace(name: "{{impl}}", scope: !456)
!456 = !DINamespace(name: "str", scope: !15)
!457 = !DISubroutineType(types: !458)
!458 = !{!396, !459}
!459 = !DICompositeType(tag: DW_TAG_structure_type, name: "&str", file: !13, size: 128, align: 64, elements: !460, templateParams: !6, identifier: "7ef2a91eecc7bcf4b4aaea2dbce79437")
!460 = !{!461, !462}
!461 = !DIDerivedType(tag: DW_TAG_member, name: "data_ptr", scope: !459, file: !13, baseType: !142, size: 64, align: 64)
!462 = !DIDerivedType(tag: DW_TAG_member, name: "length", scope: !459, file: !13, baseType: !50, size: 64, align: 64, offset: 64)
!463 = !{!452}
!464 = !DILocation(line: 224, column: 27, scope: !453, inlinedAt: !465)
!465 = distinct !DILocation(line: 19, column: 5, scope: !444)
!466 = !DILocation(line: 226, column: 18, scope: !453, inlinedAt: !465)
!467 = !DILocation(line: 227, column: 6, scope: !453, inlinedAt: !465)
!468 = !DILocation(line: 19, column: 5, scope: !444)
!469 = !{!470}
!470 = distinct !{!470, !471, !"_ZN8klee_sys17lib_klee_analysis18klee_make_symbolic17h418a78283bcd1ac0E: %name.0"}
!471 = distinct !{!471, !"_ZN8klee_sys17lib_klee_analysis18klee_make_symbolic17h418a78283bcd1ac0E"}
!472 = !DILocalVariable(name: "t", arg: 1, scope: !473, file: !474, line: 17, type: !479)
!473 = distinct !DISubprogram(name: "klee_make_symbolic<u32>", linkageName: "_ZN8klee_sys17lib_klee_analysis18klee_make_symbolic17h418a78283bcd1ac0E", scope: !475, file: !474, line: 17, type: !477, scopeLine: 17, flags: DIFlagPrototyped, spFlags: DISPFlagLocalToUnit | DISPFlagDefinition, unit: !4, templateParams: !482, retainedNodes: !480)
!474 = !DIFile(filename: "/home/ubuntu/.cargo/git/checkouts/klee-sys-7ee2aa8a1a6bbc46/9f462cc/src/lib_klee_analysis.rs", directory: "", checksumkind: CSK_MD5, checksum: "e3bdc37403934781364daca8b62851bf")
!475 = !DINamespace(name: "lib_klee_analysis", scope: !476)
!476 = !DINamespace(name: "klee_sys", scope: null)
!477 = !DISubroutineType(types: !478)
!478 = !{null, !479, !395}
!479 = !DIDerivedType(tag: DW_TAG_pointer_type, name: "&mut u32", baseType: !119, size: 64, align: 64, dwarfAddressSpace: 0)
!480 = !{!472, !481}
!481 = !DILocalVariable(name: "name", arg: 2, scope: !473, file: !474, line: 17, type: !395)
!482 = !{!483}
!483 = !DITemplateTypeParameter(name: "T", type: !119)
!484 = !DILocation(line: 17, column: 30, scope: !473, inlinedAt: !485)
!485 = distinct !DILocation(line: 19, column: 5, scope: !444)
!486 = !DILocation(line: 17, column: 41, scope: !473, inlinedAt: !485)
!487 = !DILocation(line: 20, column: 13, scope: !473, inlinedAt: !485)
!488 = !DILocation(line: 22, column: 13, scope: !473, inlinedAt: !485)
!489 = !DILocation(line: 19, column: 9, scope: !473, inlinedAt: !485)
!490 = !{!491}
!491 = distinct !{!491, !492, !"_ZN4core3str21_$LT$impl$u20$str$GT$8as_bytes17hd4a894810077290dE: %self.0"}
!492 = distinct !{!492, !"_ZN4core3str21_$LT$impl$u20$str$GT$8as_bytes17hd4a894810077290dE"}
!493 = !DILocation(line: 224, column: 27, scope: !453, inlinedAt: !494)
!494 = distinct !DILocation(line: 20, column: 5, scope: !444)
!495 = !DILocation(line: 226, column: 18, scope: !453, inlinedAt: !494)
!496 = !DILocation(line: 227, column: 6, scope: !453, inlinedAt: !494)
!497 = !DILocation(line: 20, column: 5, scope: !444)
!498 = !{!499}
!499 = distinct !{!499, !500, !"_ZN8klee_sys17lib_klee_analysis18klee_make_symbolic17h418a78283bcd1ac0E: %name.0"}
!500 = distinct !{!500, !"_ZN8klee_sys17lib_klee_analysis18klee_make_symbolic17h418a78283bcd1ac0E"}
!501 = !DILocation(line: 17, column: 30, scope: !473, inlinedAt: !502)
!502 = distinct !DILocation(line: 20, column: 5, scope: !444)
!503 = !DILocation(line: 17, column: 41, scope: !473, inlinedAt: !502)
!504 = !DILocation(line: 20, column: 13, scope: !473, inlinedAt: !502)
!505 = !DILocation(line: 22, column: 13, scope: !473, inlinedAt: !502)
!506 = !DILocation(line: 19, column: 9, scope: !473, inlinedAt: !502)
!507 = !DILocation(line: 21, column: 14, scope: !444)
!508 = !DILocation(line: 21, column: 17, scope: !444)
!509 = !DILocation(line: 21, column: 5, scope: !444)
!510 = !DILocation(line: 22, column: 2, scope: !437)
!511 = distinct !DISubprogram(name: "panic", linkageName: "_ZN4core9panicking5panic17h07405d6be4bce887E", scope: !513, file: !512, line: 39, type: !514, scopeLine: 39, flags: DIFlagPrototyped | DIFlagNoReturn, spFlags: DISPFlagDefinition | DISPFlagOptimized, unit: !7, templateParams: !6, retainedNodes: !6)
!512 = !DIFile(filename: "library/core/src/panicking.rs", directory: "/rustc/2fd73fabe469357a12c2c974c140f67e7cdd76d0/", checksumkind: CSK_MD5, checksum: "10dfc2feb63a9eaaccae13649da4c2f4")
!513 = !DINamespace(name: "panicking", scope: !15)
!514 = !DISubroutineType(types: !6)
!515 = !DILocation(line: 50, column: 15, scope: !511)
!516 = !DILocation(line: 50, column: 39, scope: !511)
!517 = !DILocation(line: 314, column: 9, scope: !518, inlinedAt: !521)
!518 = distinct !DISubprogram(name: "new_v1", linkageName: "_ZN4core3fmt9Arguments6new_v117hb7d5c859a9eeb48fE", scope: !520, file: !519, line: 313, type: !514, scopeLine: 313, flags: DIFlagPrototyped, spFlags: DISPFlagLocalToUnit | DISPFlagDefinition | DISPFlagOptimized, unit: !7, templateParams: !6, retainedNodes: !6)
!519 = !DIFile(filename: "library/core/src/fmt/mod.rs", directory: "/rustc/2fd73fabe469357a12c2c974c140f67e7cdd76d0/", checksumkind: CSK_MD5, checksum: "9c2303bc954c30225b64b2e88dce24d2")
!520 = !DINamespace(name: "Arguments", scope: !23)
!521 = distinct !DILocation(line: 50, column: 15, scope: !511)
!522 = !{!523}
!523 = distinct !{!523, !524, !"_ZN4core3fmt9Arguments6new_v117hb7d5c859a9eeb48fE: argument 0"}
!524 = distinct !{!524, !"_ZN4core3fmt9Arguments6new_v117hb7d5c859a9eeb48fE"}
!525 = !{!526, !527}
!526 = distinct !{!526, !524, !"_ZN4core3fmt9Arguments6new_v117hb7d5c859a9eeb48fE: argument 1"}
!527 = distinct !{!527, !524, !"_ZN4core3fmt9Arguments6new_v117hb7d5c859a9eeb48fE: argument 2"}
!528 = !DILocation(line: 50, column: 5, scope: !511)
!529 = distinct !DISubprogram(name: "panic_fmt", linkageName: "_ZN4core9panicking9panic_fmt17hcd56f7f635f62c74E", scope: !513, file: !512, line: 77, type: !514, scopeLine: 77, flags: DIFlagPrototyped | DIFlagNoReturn, spFlags: DISPFlagDefinition | DISPFlagOptimized, unit: !7, templateParams: !6, retainedNodes: !6)
!530 = !DILocation(line: 89, column: 9, scope: !529)
!531 = !DILocation(line: 89, column: 46, scope: !529)
!532 = !DILocation(line: 86, column: 9, scope: !533, inlinedAt: !537)
!533 = distinct !DISubprogram(name: "internal_constructor", linkageName: "_ZN4core5panic9PanicInfo20internal_constructor17hdae4be701f994da1E", scope: !535, file: !534, line: 81, type: !514, scopeLine: 81, flags: DIFlagPrototyped, spFlags: DISPFlagLocalToUnit | DISPFlagDefinition | DISPFlagOptimized, unit: !7, templateParams: !6, retainedNodes: !6)
!534 = !DIFile(filename: "library/core/src/panic.rs", directory: "/rustc/2fd73fabe469357a12c2c974c140f67e7cdd76d0/", checksumkind: CSK_MD5, checksum: "4b2dd965887c76cebc0a34a2a83ddd98")
!535 = !DINamespace(name: "PanicInfo", scope: !536)
!536 = !DINamespace(name: "panic", scope: !15)
!537 = distinct !DILocation(line: 89, column: 14, scope: !529)
!538 = !{!539}
!539 = distinct !{!539, !540, !"_ZN4core5panic9PanicInfo20internal_constructor17hdae4be701f994da1E: argument 0"}
!540 = distinct !{!540, !"_ZN4core5panic9PanicInfo20internal_constructor17hdae4be701f994da1E"}
!541 = !{!542, !543}
!542 = distinct !{!542, !540, !"_ZN4core5panic9PanicInfo20internal_constructor17hdae4be701f994da1E: argument 1"}
!543 = distinct !{!543, !540, !"_ZN4core5panic9PanicInfo20internal_constructor17hdae4be701f994da1E: argument 2"}
!544 = !DILocation(line: 92, column: 14, scope: !529)
!545 = distinct !DISubprogram(name: "drop_in_place<&core::iter::adapters::copied::Copied<core::slice::iter::Iter<u8>>>", linkageName: "_ZN4core3ptr102drop_in_place$LT$$RF$core..iter..adapters..copied..Copied$LT$core..slice..iter..Iter$LT$u8$GT$$GT$$GT$17h5913dccf4681891cE", scope: !547, file: !546, line: 179, type: !514, scopeLine: 179, flags: DIFlagPrototyped, spFlags: DISPFlagLocalToUnit | DISPFlagDefinition | DISPFlagOptimized, unit: !7, templateParams: !6, retainedNodes: !6)
!546 = !DIFile(filename: "library/core/src/ptr/mod.rs", directory: "/rustc/2fd73fabe469357a12c2c974c140f67e7cdd76d0/", checksumkind: CSK_MD5, checksum: "a4f2d8ba04981bbf92ef9174cf1f1763")
!547 = !DINamespace(name: "ptr", scope: !15)
!548 = !DILocation(line: 179, column: 1, scope: !545)
!549 = distinct !DISubprogram(name: "type_id<core::panic::{{impl}}::internal_constructor::NoPayload>", linkageName: "_ZN36_$LT$T$u20$as$u20$core..any..Any$GT$7type_id17h108f63b8120e9c9cE", scope: !551, file: !550, line: 132, type: !514, scopeLine: 132, flags: DIFlagPrototyped, spFlags: DISPFlagLocalToUnit | DISPFlagDefinition | DISPFlagOptimized, unit: !7, templateParams: !6, retainedNodes: !6)
!550 = !DIFile(filename: "library/core/src/any.rs", directory: "/rustc/2fd73fabe469357a12c2c974c140f67e7cdd76d0/", checksumkind: CSK_MD5, checksum: "32c34b48413f866c45095b7ff538e0e3")
!551 = !DINamespace(name: "{{impl}}", scope: !552)
!552 = !DINamespace(name: "any", scope: !15)
!553 = !DILocation(line: 134, column: 6, scope: !549)
!554 = distinct !DISubprogram(name: "as_ptr<i8>", linkageName: "_ZN4core5slice29_$LT$impl$u20$$u5b$T$u5d$$GT$6as_ptr17h3e32bddb1561f66bE", scope: !556, file: !555, line: 412, type: !558, scopeLine: 412, flags: DIFlagPrototyped, spFlags: DISPFlagLocalToUnit | DISPFlagDefinition, unit: !9, templateParams: !566, retainedNodes: !564)
!555 = !DIFile(filename: "/rustc/2fd73fabe469357a12c2c974c140f67e7cdd76d0/library/core/src/slice/mod.rs", directory: "", checksumkind: CSK_MD5, checksum: "ea4e5ca9ae063a46c5941966a2eac2e5")
!556 = !DINamespace(name: "{{impl}}", scope: !557)
!557 = !DINamespace(name: "slice", scope: !15)
!558 = !DISubroutineType(types: !559)
!559 = !{!408, !560}
!560 = !DICompositeType(tag: DW_TAG_structure_type, name: "&[i8]", file: !13, size: 128, align: 64, elements: !561, templateParams: !6, identifier: "ff2d3342965f88c921150103b65d8d80")
!561 = !{!562, !563}
!562 = !DIDerivedType(tag: DW_TAG_member, name: "data_ptr", scope: !560, file: !13, baseType: !408, size: 64, align: 64)
!563 = !DIDerivedType(tag: DW_TAG_member, name: "length", scope: !560, file: !13, baseType: !50, size: 64, align: 64, offset: 64)
!564 = !{!565}
!565 = !DILocalVariable(name: "self", arg: 1, scope: !554, file: !555, line: 412, type: !560)
!566 = !{!567}
!567 = !DITemplateTypeParameter(name: "T", type: !31)
!568 = !DILocation(line: 412, column: 25, scope: !554)
!569 = !DILocation(line: 413, column: 9, scope: !554)
!570 = !DILocation(line: 414, column: 6, scope: !554)
!571 = distinct !DISubprogram(name: "panic", linkageName: "rust_begin_unwind", scope: !573, file: !572, line: 6, type: !574, scopeLine: 6, flags: DIFlagPrototyped | DIFlagNoReturn, spFlags: DISPFlagDefinition, unit: !380, templateParams: !6, retainedNodes: !705)
!572 = !DIFile(filename: "/home/ubuntu/.cargo/git/checkouts/panic-klee-aa8d015442188497/3b0c897/src/lib.rs", directory: "/home/ubuntu/.cargo/git/checkouts/panic-klee-aa8d015442188497/3b0c897", checksumkind: CSK_MD5, checksum: "679d388356417fae6fea835aa77aa0fa")
!573 = !DINamespace(name: "panic_klee", scope: null)
!574 = !DISubroutineType(types: !575)
!575 = !{null, !576}
!576 = !DIDerivedType(tag: DW_TAG_pointer_type, name: "&core::panic::PanicInfo", baseType: !577, size: 64, align: 64, dwarfAddressSpace: 0)
!577 = !DICompositeType(tag: DW_TAG_structure_type, name: "PanicInfo", scope: !536, file: !13, size: 256, align: 64, elements: !578, templateParams: !6, identifier: "23073a3e1c3066e8dd151ebb635ec7a")
!578 = !{!579, !589, !698}
!579 = !DIDerivedType(tag: DW_TAG_member, name: "payload", scope: !577, file: !13, baseType: !580, size: 128, align: 64)
!580 = !DICompositeType(tag: DW_TAG_structure_type, name: "&Any", scope: !552, file: !13, size: 128, align: 64, elements: !581, templateParams: !6, identifier: "e5fb504cf2ab20f61e7b2437df5533a9")
!581 = !{!582, !584}
!582 = !DIDerivedType(tag: DW_TAG_member, name: "pointer", scope: !580, file: !13, baseType: !583, size: 64, align: 64, flags: DIFlagArtificial)
!583 = !DIDerivedType(tag: DW_TAG_pointer_type, name: "*mut u8", baseType: !16, size: 64, align: 64, dwarfAddressSpace: 0)
!584 = !DIDerivedType(tag: DW_TAG_member, name: "vtable", scope: !580, file: !13, baseType: !585, size: 64, align: 64, offset: 64, flags: DIFlagArtificial)
!585 = !DIDerivedType(tag: DW_TAG_pointer_type, name: "&[usize; 3]", baseType: !586, size: 64, align: 64, dwarfAddressSpace: 0)
!586 = !DICompositeType(tag: DW_TAG_array_type, baseType: !50, size: 192, align: 64, elements: !587)
!587 = !{!588}
!588 = !DISubrange(count: 3, lowerBound: 0)
!589 = !DIDerivedType(tag: DW_TAG_member, name: "message", scope: !577, file: !13, baseType: !590, size: 64, align: 64, offset: 128)
!590 = !DICompositeType(tag: DW_TAG_structure_type, name: "Option<&core::fmt::Arguments>", scope: !84, file: !13, size: 64, align: 64, elements: !591, identifier: "35d00f907d3af51c4ed332ee10d7e5c5")
!591 = !{!592}
!592 = !DICompositeType(tag: DW_TAG_variant_part, scope: !84, file: !13, size: 64, align: 64, elements: !593, templateParams: !596, identifier: "35d00f907d3af51c4ed332ee10d7e5c5_variant_part", discriminator: !114)
!593 = !{!594, !694}
!594 = !DIDerivedType(tag: DW_TAG_member, name: "None", scope: !592, file: !13, baseType: !595, size: 64, align: 64, extraData: i64 0)
!595 = !DICompositeType(tag: DW_TAG_structure_type, name: "None", scope: !590, file: !13, size: 64, align: 64, elements: !6, templateParams: !596, identifier: "35d00f907d3af51c4ed332ee10d7e5c5::None")
!596 = !{!597}
!597 = !DITemplateTypeParameter(name: "T", type: !598)
!598 = !DIDerivedType(tag: DW_TAG_pointer_type, name: "&core::fmt::Arguments", baseType: !599, size: 64, align: 64, dwarfAddressSpace: 0)
!599 = !DICompositeType(tag: DW_TAG_structure_type, name: "Arguments", scope: !23, file: !13, size: 384, align: 64, elements: !600, templateParams: !6, identifier: "1a7c27c0b75627fec59278fe321fba57")
!600 = !{!601, !611, !656}
!601 = !DIDerivedType(tag: DW_TAG_member, name: "pieces", scope: !599, file: !13, baseType: !602, size: 128, align: 64)
!602 = !DICompositeType(tag: DW_TAG_structure_type, name: "&[&str]", file: !13, size: 128, align: 64, elements: !603, templateParams: !6, identifier: "e5181a2ba73cefd2b9372dc5646453a9")
!603 = !{!604, !610}
!604 = !DIDerivedType(tag: DW_TAG_member, name: "data_ptr", scope: !602, file: !13, baseType: !605, size: 64, align: 64)
!605 = !DIDerivedType(tag: DW_TAG_pointer_type, name: "*const &str", baseType: !606, size: 64, align: 64, dwarfAddressSpace: 0)
!606 = !DICompositeType(tag: DW_TAG_structure_type, name: "&str", file: !13, size: 128, align: 64, elements: !607, templateParams: !6, identifier: "7ef2a91eecc7bcf4b4aaea2dbce79437")
!607 = !{!608, !609}
!608 = !DIDerivedType(tag: DW_TAG_member, name: "data_ptr", scope: !606, file: !13, baseType: !142, size: 64, align: 64)
!609 = !DIDerivedType(tag: DW_TAG_member, name: "length", scope: !606, file: !13, baseType: !50, size: 64, align: 64, offset: 64)
!610 = !DIDerivedType(tag: DW_TAG_member, name: "length", scope: !602, file: !13, baseType: !50, size: 64, align: 64, offset: 64)
!611 = !DIDerivedType(tag: DW_TAG_member, name: "fmt", scope: !599, file: !13, baseType: !612, size: 128, align: 64, offset: 128)
!612 = !DICompositeType(tag: DW_TAG_structure_type, name: "Option<&[core::fmt::rt::v1::Argument]>", scope: !84, file: !13, size: 128, align: 64, elements: !613, identifier: "b56d67b9b7feca2adbc2832ec8d0c46a")
!613 = !{!614}
!614 = !DICompositeType(tag: DW_TAG_variant_part, scope: !84, file: !13, size: 128, align: 64, elements: !615, templateParams: !618, identifier: "b56d67b9b7feca2adbc2832ec8d0c46a_variant_part", discriminator: !114)
!615 = !{!616, !652}
!616 = !DIDerivedType(tag: DW_TAG_member, name: "None", scope: !614, file: !13, baseType: !617, size: 128, align: 64, extraData: i64 0)
!617 = !DICompositeType(tag: DW_TAG_structure_type, name: "None", scope: !612, file: !13, size: 128, align: 64, elements: !6, templateParams: !618, identifier: "b56d67b9b7feca2adbc2832ec8d0c46a::None")
!618 = !{!619}
!619 = !DITemplateTypeParameter(name: "T", type: !620)
!620 = !DICompositeType(tag: DW_TAG_structure_type, name: "&[core::fmt::rt::v1::Argument]", file: !13, size: 128, align: 64, elements: !621, templateParams: !6, identifier: "8308f45ba37f738f58ea77e9c86e039b")
!621 = !{!622, !651}
!622 = !DIDerivedType(tag: DW_TAG_member, name: "data_ptr", scope: !620, file: !13, baseType: !623, size: 64, align: 64)
!623 = !DIDerivedType(tag: DW_TAG_pointer_type, name: "*const core::fmt::rt::v1::Argument", baseType: !624, size: 64, align: 64, dwarfAddressSpace: 0)
!624 = !DICompositeType(tag: DW_TAG_structure_type, name: "Argument", scope: !21, file: !13, size: 448, align: 64, elements: !625, templateParams: !6, identifier: "691eb57fd0c8590a95019e7601130547")
!625 = !{!626, !627}
!626 = !DIDerivedType(tag: DW_TAG_member, name: "position", scope: !624, file: !13, baseType: !50, size: 64, align: 64)
!627 = !DIDerivedType(tag: DW_TAG_member, name: "format", scope: !624, file: !13, baseType: !628, size: 384, align: 64, offset: 64)
!628 = !DICompositeType(tag: DW_TAG_structure_type, name: "FormatSpec", scope: !21, file: !13, size: 384, align: 64, elements: !629, templateParams: !6, identifier: "7d53aaf36b2d51081e1179e46fb0ab6")
!629 = !{!630, !632, !633, !634, !650}
!630 = !DIDerivedType(tag: DW_TAG_member, name: "fill", scope: !628, file: !13, baseType: !631, size: 32, align: 32, offset: 256)
!631 = !DIBasicType(name: "char", size: 32, encoding: DW_ATE_unsigned_char)
!632 = !DIDerivedType(tag: DW_TAG_member, name: "align", scope: !628, file: !13, baseType: !20, size: 8, align: 8, offset: 320)
!633 = !DIDerivedType(tag: DW_TAG_member, name: "flags", scope: !628, file: !13, baseType: !119, size: 32, align: 32, offset: 288)
!634 = !DIDerivedType(tag: DW_TAG_member, name: "precision", scope: !628, file: !13, baseType: !635, size: 128, align: 64)
!635 = !DICompositeType(tag: DW_TAG_structure_type, name: "Count", scope: !21, file: !13, size: 128, align: 64, elements: !636, identifier: "42e154d3efa76c68e7c6c9e5f44b41a2")
!636 = !{!637}
!637 = !DICompositeType(tag: DW_TAG_variant_part, scope: !21, file: !13, size: 128, align: 64, elements: !638, templateParams: !6, identifier: "42e154d3efa76c68e7c6c9e5f44b41a2_variant_part", discriminator: !649)
!638 = !{!639, !643, !647}
!639 = !DIDerivedType(tag: DW_TAG_member, name: "Is", scope: !637, file: !13, baseType: !640, size: 128, align: 64, extraData: i64 0)
!640 = !DICompositeType(tag: DW_TAG_structure_type, name: "Is", scope: !635, file: !13, size: 128, align: 64, elements: !641, templateParams: !6, identifier: "42e154d3efa76c68e7c6c9e5f44b41a2::Is")
!641 = !{!642}
!642 = !DIDerivedType(tag: DW_TAG_member, name: "__0", scope: !640, file: !13, baseType: !50, size: 64, align: 64, offset: 64)
!643 = !DIDerivedType(tag: DW_TAG_member, name: "Param", scope: !637, file: !13, baseType: !644, size: 128, align: 64, extraData: i64 1)
!644 = !DICompositeType(tag: DW_TAG_structure_type, name: "Param", scope: !635, file: !13, size: 128, align: 64, elements: !645, templateParams: !6, identifier: "42e154d3efa76c68e7c6c9e5f44b41a2::Param")
!645 = !{!646}
!646 = !DIDerivedType(tag: DW_TAG_member, name: "__0", scope: !644, file: !13, baseType: !50, size: 64, align: 64, offset: 64)
!647 = !DIDerivedType(tag: DW_TAG_member, name: "Implied", scope: !637, file: !13, baseType: !648, size: 128, align: 64, extraData: i64 2)
!648 = !DICompositeType(tag: DW_TAG_structure_type, name: "Implied", scope: !635, file: !13, size: 128, align: 64, elements: !6, templateParams: !6, identifier: "42e154d3efa76c68e7c6c9e5f44b41a2::Implied")
!649 = !DIDerivedType(tag: DW_TAG_member, scope: !21, file: !13, baseType: !54, size: 64, align: 64, flags: DIFlagArtificial)
!650 = !DIDerivedType(tag: DW_TAG_member, name: "width", scope: !628, file: !13, baseType: !635, size: 128, align: 64, offset: 128)
!651 = !DIDerivedType(tag: DW_TAG_member, name: "length", scope: !620, file: !13, baseType: !50, size: 64, align: 64, offset: 64)
!652 = !DIDerivedType(tag: DW_TAG_member, name: "Some", scope: !614, file: !13, baseType: !653, size: 128, align: 64)
!653 = !DICompositeType(tag: DW_TAG_structure_type, name: "Some", scope: !612, file: !13, size: 128, align: 64, elements: !654, templateParams: !618, identifier: "b56d67b9b7feca2adbc2832ec8d0c46a::Some")
!654 = !{!655}
!655 = !DIDerivedType(tag: DW_TAG_member, name: "__0", scope: !653, file: !13, baseType: !620, size: 128, align: 64)
!656 = !DIDerivedType(tag: DW_TAG_member, name: "args", scope: !599, file: !13, baseType: !657, size: 128, align: 64, offset: 256)
!657 = !DICompositeType(tag: DW_TAG_structure_type, name: "&[core::fmt::ArgumentV1]", file: !13, size: 128, align: 64, elements: !658, templateParams: !6, identifier: "e95cec6dff5f479c9a45e2dcffa4a08f")
!658 = !{!659, !693}
!659 = !DIDerivedType(tag: DW_TAG_member, name: "data_ptr", scope: !657, file: !13, baseType: !660, size: 64, align: 64)
!660 = !DIDerivedType(tag: DW_TAG_pointer_type, name: "*const core::fmt::ArgumentV1", baseType: !661, size: 64, align: 64, dwarfAddressSpace: 0)
!661 = !DICompositeType(tag: DW_TAG_structure_type, name: "ArgumentV1", scope: !23, file: !13, size: 128, align: 64, elements: !662, templateParams: !6, identifier: "6619fd31a8de7fb48cfbb958bcaec8fe")
!662 = !{!663, !666}
!663 = !DIDerivedType(tag: DW_TAG_member, name: "value", scope: !661, file: !13, baseType: !664, size: 64, align: 64)
!664 = !DIDerivedType(tag: DW_TAG_pointer_type, name: "&core::fmt::::Opaque", baseType: !665, size: 64, align: 64, dwarfAddressSpace: 0)
!665 = !DICompositeType(tag: DW_TAG_structure_type, name: "Opaque", file: !13, align: 8, elements: !6, identifier: "c7b909a8549e774811ca83990f5da58d")
!666 = !DIDerivedType(tag: DW_TAG_member, name: "formatter", scope: !661, file: !13, baseType: !667, size: 64, align: 64, offset: 64)
!667 = !DIDerivedType(tag: DW_TAG_pointer_type, name: "fn(&core::fmt::::Opaque, &mut core::fmt::Formatter) -> core::result::Result<(), core::fmt::Error>", baseType: !668, size: 64, align: 64, dwarfAddressSpace: 0)
!668 = !DISubroutineType(types: !669)
!669 = !{!12, !664, !670}
!670 = !DIDerivedType(tag: DW_TAG_pointer_type, name: "&mut core::fmt::Formatter", baseType: !671, size: 64, align: 64, dwarfAddressSpace: 0)
!671 = !DICompositeType(tag: DW_TAG_structure_type, name: "Formatter", scope: !23, file: !13, size: 512, align: 64, elements: !672, templateParams: !6, identifier: "d1c22cb052fcd55becb4d9e9c2761003")
!672 = !{!673, !674, !675, !676, !687, !688}
!673 = !DIDerivedType(tag: DW_TAG_member, name: "flags", scope: !671, file: !13, baseType: !119, size: 32, align: 32, offset: 384)
!674 = !DIDerivedType(tag: DW_TAG_member, name: "fill", scope: !671, file: !13, baseType: !631, size: 32, align: 32, offset: 416)
!675 = !DIDerivedType(tag: DW_TAG_member, name: "align", scope: !671, file: !13, baseType: !20, size: 8, align: 8, offset: 448)
!676 = !DIDerivedType(tag: DW_TAG_member, name: "width", scope: !671, file: !13, baseType: !677, size: 128, align: 64)
!677 = !DICompositeType(tag: DW_TAG_structure_type, name: "Option<usize>", scope: !84, file: !13, size: 128, align: 64, elements: !678, identifier: "9332858134cb740a2a89b17fc22aeac2")
!678 = !{!679}
!679 = !DICompositeType(tag: DW_TAG_variant_part, scope: !84, file: !13, size: 128, align: 64, elements: !680, templateParams: !108, identifier: "9332858134cb740a2a89b17fc22aeac2_variant_part", discriminator: !114)
!680 = !{!681, !683}
!681 = !DIDerivedType(tag: DW_TAG_member, name: "None", scope: !679, file: !13, baseType: !682, size: 128, align: 64, extraData: i64 0)
!682 = !DICompositeType(tag: DW_TAG_structure_type, name: "None", scope: !677, file: !13, size: 128, align: 64, elements: !6, templateParams: !108, identifier: "9332858134cb740a2a89b17fc22aeac2::None")
!683 = !DIDerivedType(tag: DW_TAG_member, name: "Some", scope: !679, file: !13, baseType: !684, size: 128, align: 64, extraData: i64 1)
!684 = !DICompositeType(tag: DW_TAG_structure_type, name: "Some", scope: !677, file: !13, size: 128, align: 64, elements: !685, templateParams: !108, identifier: "9332858134cb740a2a89b17fc22aeac2::Some")
!685 = !{!686}
!686 = !DIDerivedType(tag: DW_TAG_member, name: "__0", scope: !684, file: !13, baseType: !50, size: 64, align: 64, offset: 64)
!687 = !DIDerivedType(tag: DW_TAG_member, name: "precision", scope: !671, file: !13, baseType: !677, size: 128, align: 64, offset: 128)
!688 = !DIDerivedType(tag: DW_TAG_member, name: "buf", scope: !671, file: !13, baseType: !689, size: 128, align: 64, offset: 256)
!689 = !DICompositeType(tag: DW_TAG_structure_type, name: "&mut Write", scope: !23, file: !13, size: 128, align: 64, elements: !690, templateParams: !6, identifier: "110b4069ef19c710e8c916442189e601")
!690 = !{!691, !692}
!691 = !DIDerivedType(tag: DW_TAG_member, name: "pointer", scope: !689, file: !13, baseType: !583, size: 64, align: 64, flags: DIFlagArtificial)
!692 = !DIDerivedType(tag: DW_TAG_member, name: "vtable", scope: !689, file: !13, baseType: !585, size: 64, align: 64, offset: 64, flags: DIFlagArtificial)
!693 = !DIDerivedType(tag: DW_TAG_member, name: "length", scope: !657, file: !13, baseType: !50, size: 64, align: 64, offset: 64)
!694 = !DIDerivedType(tag: DW_TAG_member, name: "Some", scope: !592, file: !13, baseType: !695, size: 64, align: 64)
!695 = !DICompositeType(tag: DW_TAG_structure_type, name: "Some", scope: !590, file: !13, size: 64, align: 64, elements: !696, templateParams: !596, identifier: "35d00f907d3af51c4ed332ee10d7e5c5::Some")
!696 = !{!697}
!697 = !DIDerivedType(tag: DW_TAG_member, name: "__0", scope: !695, file: !13, baseType: !598, size: 64, align: 64)
!698 = !DIDerivedType(tag: DW_TAG_member, name: "location", scope: !577, file: !13, baseType: !699, size: 64, align: 64, offset: 192)
!699 = !DIDerivedType(tag: DW_TAG_pointer_type, name: "&core::panic::Location", baseType: !700, size: 64, align: 64, dwarfAddressSpace: 0)
!700 = !DICompositeType(tag: DW_TAG_structure_type, name: "Location", scope: !536, file: !13, size: 192, align: 64, elements: !701, templateParams: !6, identifier: "56a2253ad3c59077399a1387cf540e32")
!701 = !{!702, !703, !704}
!702 = !DIDerivedType(tag: DW_TAG_member, name: "file", scope: !700, file: !13, baseType: !606, size: 128, align: 64)
!703 = !DIDerivedType(tag: DW_TAG_member, name: "line", scope: !700, file: !13, baseType: !119, size: 32, align: 32, offset: 128)
!704 = !DIDerivedType(tag: DW_TAG_member, name: "col", scope: !700, file: !13, baseType: !119, size: 32, align: 32, offset: 160)
!705 = !{!706}
!706 = !DILocalVariable(name: "_info", arg: 1, scope: !571, file: !572, line: 6, type: !576)
!707 = !DILocation(line: 6, column: 10, scope: !571)
!708 = !DILocation(line: 8, column: 14, scope: !571)
