; ModuleID = 'sort.ei3bxmyo-cgu.0'
source_filename = "sort.ei3bxmyo-cgu.0"
target datalayout = "e-m:e-p270:32:32-p271:32:32-p272:64:64-i64:64-f80:128-n8:16:32:64-S128"
target triple = "x86_64-unknown-linux-gnu"

%"fmt::builders::PadAdapter" = type { [0 x i64], { {}*, [3 x i64]* }, [0 x i64], i8*, [0 x i64] }
%"core::fmt::Arguments" = type { [0 x i64], { [0 x { [0 x i8]*, i64 }]*, i64 }, [0 x i64], { i64*, i64 }, [0 x i64], { [0 x { i8*, i64* }]*, i64 }, [0 x i64] }
%"core::fmt::Formatter" = type { [0 x i64], { i64, i64 }, [0 x i64], { i64, i64 }, [0 x i64], { {}*, [3 x i64]* }, [0 x i32], i32, [0 x i32], i32, [0 x i8], i8, [7 x i8] }
%"fmt::builders::DebugSet" = type { [0 x i64], %"fmt::builders::DebugStruct", [0 x i64] }
%"fmt::builders::DebugStruct" = type { [0 x i64], %"core::fmt::Formatter"*, [0 x i8], i8, [0 x i8], i8, [6 x i8] }
%"core::fmt::Opaque" = type {}
%"core::option::Option<usize>::Some" = type { [1 x i64], i64, [0 x i64] }
%"core::ops::RangeFull" = type {}
%"core::panic::Location" = type { [0 x i64], { [0 x i8]*, i64 }, [0 x i32], i32, [0 x i32], i32, [0 x i32] }
%"klee_sys::CStr" = type { [0 x i8], [0 x i8] }
%"panic::PanicInfo" = type { [0 x i64], { {}*, [3 x i64]* }, [0 x i64], i64*, [0 x i64], %"core::panic::Location"*, [0 x i64] }
%"fmt::rt::v1::Argument" = type { [0 x i64], i64, [0 x i64], %"fmt::rt::v1::FormatSpec", [0 x i64] }
%"fmt::rt::v1::FormatSpec" = type { [0 x i64], { i64, i64 }, [0 x i64], { i64, i64 }, [0 x i32], i32, [0 x i32], i32, [0 x i8], i8, [7 x i8] }
%"option::Option<(&[u8], i16)>" = type { [0 x i64], {}*, [2 x i64] }
%"core::mem::MaybeUninit<core::ptr::swap_nonoverlapping_bytes::UnalignedBlock>" = type { [4 x i64] }
%"hash::sip::State" = type { [0 x i64], i64, [0 x i64], i64, [0 x i64], i64, [0 x i64], i64, [0 x i64] }
%"core::ptr::Repr<u8>" = type { [2 x i64] }

@alloc22 = private unnamed_addr constant <{ [77 x i8] }> <{ [77 x i8] c"/rustc/2fd73fabe469357a12c2c974c140f67e7cdd76d0/library/core/src/array/mod.rs" }>, align 1
@alloc19 = private unnamed_addr constant <{ i8*, [16 x i8] }> <{ i8* getelementptr inbounds (<{ [77 x i8] }>, <{ [77 x i8] }>* @alloc22, i32 0, i32 0, i32 0), [16 x i8] c"M\00\00\00\00\00\00\00\F4\00\00\00\09\00\00\00" }>, align 8
@alloc21 = private unnamed_addr constant <{ i8*, [16 x i8] }> <{ i8* getelementptr inbounds (<{ [77 x i8] }>, <{ [77 x i8] }>* @alloc22, i32 0, i32 0, i32 0), [16 x i8] c"M\00\00\00\00\00\00\00\F4\00\00\00\15\00\00\00" }>, align 8
@alloc23 = private unnamed_addr constant <{ i8*, [16 x i8] }> <{ i8* getelementptr inbounds (<{ [77 x i8] }>, <{ [77 x i8] }>* @alloc22, i32 0, i32 0, i32 0), [16 x i8] c"M\00\00\00\00\00\00\00\BD\00\00\00\1B\00\00\00" }>, align 8
@alloc28 = private unnamed_addr constant <{ [77 x i8] }> <{ [77 x i8] c"/rustc/2fd73fabe469357a12c2c974c140f67e7cdd76d0/library/core/src/slice/mod.rs" }>, align 1
@alloc25 = private unnamed_addr constant <{ i8*, [16 x i8] }> <{ i8* getelementptr inbounds (<{ [77 x i8] }>, <{ [77 x i8] }>* @alloc28, i32 0, i32 0, i32 0), [16 x i8] c"M\00\00\00\00\00\00\00\C6\0B\00\00\0D\00\00\00" }>, align 8
@alloc27 = private unnamed_addr constant <{ i8*, [16 x i8] }> <{ i8* getelementptr inbounds (<{ [77 x i8] }>, <{ [77 x i8] }>* @alloc28, i32 0, i32 0, i32 0), [16 x i8] c"M\00\00\00\00\00\00\00\22\02\00\00$\00\00\00" }>, align 8
@alloc29 = private unnamed_addr constant <{ i8*, [16 x i8] }> <{ i8* getelementptr inbounds (<{ [77 x i8] }>, <{ [77 x i8] }>* @alloc28, i32 0, i32 0, i32 0), [16 x i8] c"M\00\00\00\00\00\00\00#\02\00\00$\00\00\00" }>, align 8
@alloc62 = private unnamed_addr constant <{ [11 x i8] }> <{ [11 x i8] c"src/main.rs" }>, align 1
@alloc31 = private unnamed_addr constant <{ i8*, [16 x i8] }> <{ i8* getelementptr inbounds (<{ [11 x i8] }>, <{ [11 x i8] }>* @alloc62, i32 0, i32 0, i32 0), [16 x i8] c"\0B\00\00\00\00\00\00\00\0A\00\00\00\15\00\00\00" }>, align 8
@str.0 = internal constant [33 x i8] c"attempt to subtract with overflow"
@alloc33 = private unnamed_addr constant <{ i8*, [16 x i8] }> <{ i8* getelementptr inbounds (<{ [11 x i8] }>, <{ [11 x i8] }>* @alloc62, i32 0, i32 0, i32 0), [16 x i8] c"\0B\00\00\00\00\00\00\00\0B\00\00\00\10\00\00\00" }>, align 8
@alloc35 = private unnamed_addr constant <{ i8*, [16 x i8] }> <{ i8* getelementptr inbounds (<{ [11 x i8] }>, <{ [11 x i8] }>* @alloc62, i32 0, i32 0, i32 0), [16 x i8] c"\0B\00\00\00\00\00\00\00\0B\00\00\00\1D\00\00\00" }>, align 8
@str.1 = internal constant [28 x i8] c"attempt to add with overflow"
@alloc37 = private unnamed_addr constant <{ i8*, [16 x i8] }> <{ i8* getelementptr inbounds (<{ [11 x i8] }>, <{ [11 x i8] }>* @alloc62, i32 0, i32 0, i32 0), [16 x i8] c"\0B\00\00\00\00\00\00\00\0B\00\00\00\19\00\00\00" }>, align 8
@alloc39 = private unnamed_addr constant <{ i8*, [16 x i8] }> <{ i8* getelementptr inbounds (<{ [11 x i8] }>, <{ [11 x i8] }>* @alloc62, i32 0, i32 0, i32 0), [16 x i8] c"\0B\00\00\00\00\00\00\00\0C\00\00\00\1D\00\00\00" }>, align 8
@alloc41 = private unnamed_addr constant <{ i8*, [16 x i8] }> <{ i8* getelementptr inbounds (<{ [11 x i8] }>, <{ [11 x i8] }>* @alloc62, i32 0, i32 0, i32 0), [16 x i8] c"\0B\00\00\00\00\00\00\00\15\00\00\00\18\00\00\00" }>, align 8
@alloc43 = private unnamed_addr constant <{ i8*, [16 x i8] }> <{ i8* getelementptr inbounds (<{ [11 x i8] }>, <{ [11 x i8] }>* @alloc62, i32 0, i32 0, i32 0), [16 x i8] c"\0B\00\00\00\00\00\00\00\15\00\00\00%\00\00\00" }>, align 8
@alloc45 = private unnamed_addr constant <{ i8*, [16 x i8] }> <{ i8* getelementptr inbounds (<{ [11 x i8] }>, <{ [11 x i8] }>* @alloc62, i32 0, i32 0, i32 0), [16 x i8] c"\0B\00\00\00\00\00\00\00\15\00\00\00!\00\00\00" }>, align 8
@alloc47 = private unnamed_addr constant <{ i8*, [16 x i8] }> <{ i8* getelementptr inbounds (<{ [11 x i8] }>, <{ [11 x i8] }>* @alloc62, i32 0, i32 0, i32 0), [16 x i8] c"\0B\00\00\00\00\00\00\00\16\00\00\00\19\00\00\00" }>, align 8
@alloc49 = private unnamed_addr constant <{ i8*, [16 x i8] }> <{ i8* getelementptr inbounds (<{ [11 x i8] }>, <{ [11 x i8] }>* @alloc62, i32 0, i32 0, i32 0), [16 x i8] c"\0B\00\00\00\00\00\00\00\17\00\00\00\11\00\00\00" }>, align 8
@alloc51 = private unnamed_addr constant <{ i8*, [16 x i8] }> <{ i8* getelementptr inbounds (<{ [11 x i8] }>, <{ [11 x i8] }>* @alloc62, i32 0, i32 0, i32 0), [16 x i8] c"\0B\00\00\00\00\00\00\00\1D\00\00\00\09\00\00\00" }>, align 8
@alloc53 = private unnamed_addr constant <{ i8*, [16 x i8] }> <{ i8* getelementptr inbounds (<{ [11 x i8] }>, <{ [11 x i8] }>* @alloc62, i32 0, i32 0, i32 0), [16 x i8] c"\0B\00\00\00\00\00\00\00\1D\00\00\00\18\00\00\00" }>, align 8
@alloc55 = private unnamed_addr constant <{ i8*, [16 x i8] }> <{ i8* getelementptr inbounds (<{ [11 x i8] }>, <{ [11 x i8] }>* @alloc62, i32 0, i32 0, i32 0), [16 x i8] c"\0B\00\00\00\00\00\00\00\1D\00\00\00'\00\00\00" }>, align 8
@alloc57 = private unnamed_addr constant <{ i8*, [16 x i8] }> <{ i8* getelementptr inbounds (<{ [11 x i8] }>, <{ [11 x i8] }>* @alloc62, i32 0, i32 0, i32 0), [16 x i8] c"\0B\00\00\00\00\00\00\00\1D\00\00\006\00\00\00" }>, align 8
@alloc59 = private unnamed_addr constant <{ i8*, [16 x i8] }> <{ i8* getelementptr inbounds (<{ [11 x i8] }>, <{ [11 x i8] }>* @alloc62, i32 0, i32 0, i32 0), [16 x i8] c"\0B\00\00\00\00\00\00\00\1F\00\00\00%\00\00\00" }>, align 8
@alloc61 = private unnamed_addr constant <{ i8*, [16 x i8] }> <{ i8* getelementptr inbounds (<{ [11 x i8] }>, <{ [11 x i8] }>* @alloc62, i32 0, i32 0, i32 0), [16 x i8] c"\0B\00\00\00\00\00\00\00!\00\00\00%\00\00\00" }>, align 8
@alloc7 = private unnamed_addr constant <{ [45 x i8] }> <{ [45 x i8] c"assertion failed: `(left == right)`\0A  left: `" }>, align 1
@alloc9 = private unnamed_addr constant <{ [12 x i8] }> <{ [12 x i8] c"`,\0A right: `" }>, align 1
@alloc10 = private unnamed_addr constant <{ [1 x i8] }> <{ [1 x i8] c"`" }>, align 1
@alloc8 = private unnamed_addr constant <{ i8*, [8 x i8], i8*, [8 x i8], i8*, [8 x i8] }> <{ i8* getelementptr inbounds (<{ [45 x i8] }>, <{ [45 x i8] }>* @alloc7, i32 0, i32 0, i32 0), [8 x i8] c"-\00\00\00\00\00\00\00", i8* getelementptr inbounds (<{ [12 x i8] }>, <{ [12 x i8] }>* @alloc9, i32 0, i32 0, i32 0), [8 x i8] c"\0C\00\00\00\00\00\00\00", i8* getelementptr inbounds (<{ [1 x i8] }>, <{ [1 x i8] }>* @alloc10, i32 0, i32 0, i32 0), [8 x i8] c"\01\00\00\00\00\00\00\00" }>, align 8
@alloc63 = private unnamed_addr constant <{ i8*, [16 x i8] }> <{ i8* getelementptr inbounds (<{ [11 x i8] }>, <{ [11 x i8] }>* @alloc62, i32 0, i32 0, i32 0), [16 x i8] c"\0B\00\00\00\00\00\00\00*\00\00\00\09\00\00\00" }>, align 8
@alloc64 = private unnamed_addr constant <{ [7 x i8] }> <{ [7 x i8] c"mytest\00" }>, align 1
@anon.965c706604096d42e5b155eaa3c30edf.186 = private unnamed_addr constant <{ i8*, [8 x i8], i8*, [8 x i8] }> <{ i8* getelementptr inbounds (<{ [32 x i8] }>, <{ [32 x i8] }>* @anon.965c706604096d42e5b155eaa3c30edf.184, i32 0, i32 0, i32 0), [8 x i8] c" \00\00\00\00\00\00\00", i8* getelementptr inbounds (<{ [18 x i8] }>, <{ [18 x i8] }>* @anon.965c706604096d42e5b155eaa3c30edf.185, i32 0, i32 0, i32 0), [8 x i8] c"\12\00\00\00\00\00\00\00" }>, align 8
@anon.965c706604096d42e5b155eaa3c30edf.12 = private unnamed_addr constant <{ [0 x i8] }> zeroinitializer, align 8
@anon.965c706604096d42e5b155eaa3c30edf.177 = private unnamed_addr constant { void ({}*)*, i64, i64, i64 ({}*)* } { void ({}*)* bitcast (void ({ i8*, i8* }**)* @"_ZN4core3ptr102drop_in_place$LT$$RF$core..iter..adapters..copied..Copied$LT$core..slice..iter..Iter$LT$u8$GT$$GT$$GT$17h5913dccf4681891cE" to void ({}*)*), i64 0, i64 1, i64 ({}*)* @"_ZN36_$LT$T$u20$as$u20$core..any..Any$GT$7type_id17h108f63b8120e9c9cE" }, align 8
@anon.965c706604096d42e5b155eaa3c30edf.184 = private unnamed_addr constant <{ [32 x i8] }> <{ [32 x i8] c"index out of bounds: the len is " }>, align 1
@anon.965c706604096d42e5b155eaa3c30edf.185 = private unnamed_addr constant <{ [18 x i8] }> <{ [18 x i8] c" but the index is " }>, align 1
@anon.965c706604096d42e5b155eaa3c30edf.223 = private unnamed_addr constant <{ [200 x i8] }> <{ [200 x i8] c"00010203040506070809101112131415161718192021222324252627282930313233343536373839404142434445464748495051525354555657585960616263646566676869707172737475767778798081828384858687888990919293949596979899" }>, align 1
@anon.965c706604096d42e5b155eaa3c30edf.247 = private unnamed_addr constant <{ i8*, [8 x i8], i8*, [8 x i8] }> <{ i8* getelementptr inbounds (<{ [16 x i8] }>, <{ [16 x i8] }>* @anon.965c706604096d42e5b155eaa3c30edf.246, i32 0, i32 0, i32 0), [8 x i8] c"\10\00\00\00\00\00\00\00", i8* getelementptr inbounds (<{ [34 x i8] }>, <{ [34 x i8] }>* @anon.965c706604096d42e5b155eaa3c30edf.244, i32 0, i32 0, i32 0), [8 x i8] c"\22\00\00\00\00\00\00\00" }>, align 8
@anon.965c706604096d42e5b155eaa3c30edf.246 = private unnamed_addr constant <{ [16 x i8] }> <{ [16 x i8] c"range end index " }>, align 1
@anon.965c706604096d42e5b155eaa3c30edf.244 = private unnamed_addr constant <{ [34 x i8] }> <{ [34 x i8] c" out of range for slice of length " }>, align 1
@anon.965c706604096d42e5b155eaa3c30edf.308 = private unnamed_addr constant <{ [5 x i8] }> <{ [5 x i8] c"[...]" }>, align 1
@anon.965c706604096d42e5b155eaa3c30edf.311 = private unnamed_addr constant <{ i8*, [8 x i8], i8*, [8 x i8], i8*, [8 x i8] }> <{ i8* getelementptr inbounds (<{ [11 x i8] }>, <{ [11 x i8] }>* @anon.965c706604096d42e5b155eaa3c30edf.309, i32 0, i32 0, i32 0), [8 x i8] c"\0B\00\00\00\00\00\00\00", i8* getelementptr inbounds (<{ [22 x i8] }>, <{ [22 x i8] }>* @anon.965c706604096d42e5b155eaa3c30edf.310, i32 0, i32 0, i32 0), [8 x i8] c"\16\00\00\00\00\00\00\00", i8* getelementptr inbounds (<{ [1 x i8] }>, <{ [1 x i8] }>* @anon.965c706604096d42e5b155eaa3c30edf.33, i32 0, i32 0, i32 0), [8 x i8] c"\01\00\00\00\00\00\00\00" }>, align 8
@anon.965c706604096d42e5b155eaa3c30edf.315 = private unnamed_addr constant <{ i8*, [8 x i8], i8*, [8 x i8], i8*, [8 x i8], i8*, [8 x i8] }> <{ i8* getelementptr inbounds (<{ [14 x i8] }>, <{ [14 x i8] }>* @anon.965c706604096d42e5b155eaa3c30edf.312, i32 0, i32 0, i32 0), [8 x i8] c"\0E\00\00\00\00\00\00\00", i8* getelementptr inbounds (<{ [4 x i8] }>, <{ [4 x i8] }>* @anon.965c706604096d42e5b155eaa3c30edf.313, i32 0, i32 0, i32 0), [8 x i8] c"\04\00\00\00\00\00\00\00", i8* getelementptr inbounds (<{ [16 x i8] }>, <{ [16 x i8] }>* @anon.965c706604096d42e5b155eaa3c30edf.314, i32 0, i32 0, i32 0), [8 x i8] c"\10\00\00\00\00\00\00\00", i8* getelementptr inbounds (<{ [1 x i8] }>, <{ [1 x i8] }>* @anon.965c706604096d42e5b155eaa3c30edf.33, i32 0, i32 0, i32 0), [8 x i8] c"\01\00\00\00\00\00\00\00" }>, align 8
@anon.965c706604096d42e5b155eaa3c30edf.173 = private unnamed_addr constant <{ [43 x i8] }> <{ [43 x i8] c"called `Option::unwrap()` on a `None` value" }>, align 1
@anon.965c706604096d42e5b155eaa3c30edf.319 = private unnamed_addr constant <{ i8*, [8 x i8], i8*, [8 x i8], i8*, [8 x i8], i8*, [8 x i8], i8*, [8 x i8] }> <{ i8* getelementptr inbounds (<{ [11 x i8] }>, <{ [11 x i8] }>* @anon.965c706604096d42e5b155eaa3c30edf.309, i32 0, i32 0, i32 0), [8 x i8] c"\0B\00\00\00\00\00\00\00", i8* getelementptr inbounds (<{ [38 x i8] }>, <{ [38 x i8] }>* @anon.965c706604096d42e5b155eaa3c30edf.316, i32 0, i32 0, i32 0), [8 x i8] c"&\00\00\00\00\00\00\00", i8* getelementptr inbounds (<{ [8 x i8] }>, <{ [8 x i8] }>* @anon.965c706604096d42e5b155eaa3c30edf.317, i32 0, i32 0, i32 0), [8 x i8] c"\08\00\00\00\00\00\00\00", i8* getelementptr inbounds (<{ [6 x i8] }>, <{ [6 x i8] }>* @anon.965c706604096d42e5b155eaa3c30edf.318, i32 0, i32 0, i32 0), [8 x i8] c"\06\00\00\00\00\00\00\00", i8* getelementptr inbounds (<{ [1 x i8] }>, <{ [1 x i8] }>* @anon.965c706604096d42e5b155eaa3c30edf.33, i32 0, i32 0, i32 0), [8 x i8] c"\01\00\00\00\00\00\00\00" }>, align 8
@anon.965c706604096d42e5b155eaa3c30edf.309 = private unnamed_addr constant <{ [11 x i8] }> <{ [11 x i8] c"byte index " }>, align 1
@anon.965c706604096d42e5b155eaa3c30edf.316 = private unnamed_addr constant <{ [38 x i8] }> <{ [38 x i8] c" is not a char boundary; it is inside " }>, align 1
@anon.965c706604096d42e5b155eaa3c30edf.317 = private unnamed_addr constant <{ [8 x i8] }> <{ [8 x i8] c" (bytes " }>, align 1
@anon.965c706604096d42e5b155eaa3c30edf.318 = private unnamed_addr constant <{ [6 x i8] }> <{ [6 x i8] c") of `" }>, align 1
@anon.965c706604096d42e5b155eaa3c30edf.33 = private unnamed_addr constant <{ [1 x i8] }> <{ [1 x i8] c"`" }>, align 1
@anon.965c706604096d42e5b155eaa3c30edf.141 = private unnamed_addr constant <{ i8*, [8 x i8] }> <{ i8* getelementptr inbounds (<{ [2 x i8] }>, <{ [2 x i8] }>* @anon.965c706604096d42e5b155eaa3c30edf.140, i32 0, i32 0, i32 0), [8 x i8] c"\02\00\00\00\00\00\00\00" }>, align 8
@anon.965c706604096d42e5b155eaa3c30edf.140 = private unnamed_addr constant <{ [2 x i8] }> <{ [2 x i8] c".." }>, align 1
@anon.965c706604096d42e5b155eaa3c30edf.219 = private unnamed_addr constant <{ i8*, [16 x i8] }> <{ i8* getelementptr inbounds (<{ [27 x i8] }>, <{ [27 x i8] }>* @anon.965c706604096d42e5b155eaa3c30edf.218, i32 0, i32 0, i32 0), [16 x i8] c"\1B\00\00\00\00\00\00\00e\00\00\00\14\00\00\00" }>, align 8
@anon.965c706604096d42e5b155eaa3c30edf.222 = private unnamed_addr constant <{ [2 x i8] }> <{ [2 x i8] c"0x" }>, align 1
@anon.965c706604096d42e5b155eaa3c30edf.245 = private unnamed_addr constant <{ i8*, [8 x i8], i8*, [8 x i8] }> <{ i8* getelementptr inbounds (<{ [18 x i8] }>, <{ [18 x i8] }>* @anon.965c706604096d42e5b155eaa3c30edf.243, i32 0, i32 0, i32 0), [8 x i8] c"\12\00\00\00\00\00\00\00", i8* getelementptr inbounds (<{ [34 x i8] }>, <{ [34 x i8] }>* @anon.965c706604096d42e5b155eaa3c30edf.244, i32 0, i32 0, i32 0), [8 x i8] c"\22\00\00\00\00\00\00\00" }>, align 8
@anon.965c706604096d42e5b155eaa3c30edf.243 = private unnamed_addr constant <{ [18 x i8] }> <{ [18 x i8] c"range start index " }>, align 1
@anon.965c706604096d42e5b155eaa3c30edf.218 = private unnamed_addr constant <{ [27 x i8] }> <{ [27 x i8] c"library/core/src/fmt/num.rs" }>, align 1
@anon.965c706604096d42e5b155eaa3c30edf.342 = private unnamed_addr constant <{ [82 x i8] }> <{ [82 x i8] c"\00\01\03\05\05\06\06\03\07\06\08\08\09\11\0A\1C\0B\19\0C\14\0D\10\0E\0D\0F\04\10\03\12\12\13\09\16\01\17\05\18\02\19\03\1A\07\1C\02\1D\01\1F\16 \03+\03,\02-\0B.\010\031\022\01\A7\02\A9\02\AA\04\AB\08\FA\02\FB\05\FD\04\FE\03\FF\09" }>, align 1
@anon.965c706604096d42e5b155eaa3c30edf.340 = private unnamed_addr constant <{ i8*, [16 x i8] }> <{ i8* getelementptr inbounds (<{ [37 x i8] }>, <{ [37 x i8] }>* @anon.965c706604096d42e5b155eaa3c30edf.339, i32 0, i32 0, i32 0), [16 x i8] c"%\00\00\00\00\00\00\00\0A\00\00\00\1C\00\00\00" }>, align 8
@anon.965c706604096d42e5b155eaa3c30edf.343 = private unnamed_addr constant <{ [290 x i8] }> <{ [290 x i8] c"\ADxy\8B\8D\A20WX\8B\8C\90\1C\1D\DD\0E\0FKL\FB\FC./?\\]_\B5\E2\84\8D\8E\91\92\A9\B1\BA\BB\C5\C6\C9\CA\DE\E4\E5\FF\00\04\11\12)147:;=IJ]\84\8E\92\A9\B1\B4\BA\BB\C6\CA\CE\CF\E4\E5\00\04\0D\0E\11\12)14:;EFIJ^de\84\91\9B\9D\C9\CE\CF\0D\11)EIWde\8D\91\A9\B4\BA\BB\C5\C9\DF\E4\E5\F0\0D\11EIde\80\84\B2\BC\BE\BF\D5\D7\F0\F1\83\85\8B\A4\A6\BE\BF\C5\C7\CE\CF\DA\DBH\98\BD\CD\C6\CE\CFINOWY^_\89\8E\8F\B1\B6\B7\BF\C1\C6\C7\D7\11\16\17[\\\F6\F7\FE\FF\80\0Dmq\DE\DF\0E\0F\1Fno\1C\1D_}~\AE\AF\BB\BC\FA\16\17\1E\1FFGNOXZ\\^~\7F\B5\C5\D4\D5\DC\F0\F1\F5rs\8Ftu\96/_&./\A7\AF\B7\BF\C7\CF\D7\DF\9A@\97\980\8F\1F\C0\C1\CE\FFNOZ[\07\08\0F\10'/\EE\EFno7=?BE\90\91\FE\FFSgu\C8\C9\D0\D1\D8\D9\E7\FE\FF" }>, align 1
@anon.965c706604096d42e5b155eaa3c30edf.344 = private unnamed_addr constant <{ [309 x i8] }> <{ [309 x i8] c"\00 _\22\82\DF\04\82D\08\1B\04\06\11\81\AC\0E\80\AB5(\0B\80\E0\03\19\08\01\04/\044\04\07\03\01\07\06\07\11\0AP\0F\12\07U\07\03\04\1C\0A\09\03\08\03\07\03\02\03\03\03\0C\04\05\03\0B\06\01\0E\15\05:\03\11\07\06\05\10\07W\07\02\07\15\0DP\04C\03-\03\01\04\11\06\0F\0C:\04\1D%_ m\04j%\80\C8\05\82\B0\03\1A\06\82\FD\03Y\07\15\0B\17\09\14\0C\14\0Cj\06\0A\06\1A\06Y\07+\05F\0A,\04\0C\04\01\031\0B,\04\1A\06\0B\03\80\AC\06\0A\06!?L\04-\03t\08<\03\0F\03<\078\08+\05\82\FF\11\18\08/\11-\03 \10!\0F\80\8C\04\82\97\19\0B\15\88\94\05/\05;\07\02\0E\18\09\80\B3-t\0C\80\D6\1A\0C\05\80\FF\05\80\DF\0C\EE\0D\03\84\8D\037\09\81\\\14\80\B8\08\80\CB*8\03\0A\068\08F\08\0C\06t\0B\1E\03Z\04Y\09\80\83\18\1C\0A\16\09L\04\80\8A\06\AB\A4\0C\17\041\A1\04\81\DA&\07\0C\05\05\80\A5\11\81m\10x(*\06L\04\80\8D\04\80\BE\03\1B\03\0F\0D" }>, align 1
@anon.965c706604096d42e5b155eaa3c30edf.341 = private unnamed_addr constant <{ i8*, [16 x i8] }> <{ i8* getelementptr inbounds (<{ [37 x i8] }>, <{ [37 x i8] }>* @anon.965c706604096d42e5b155eaa3c30edf.339, i32 0, i32 0, i32 0), [16 x i8] c"%\00\00\00\00\00\00\00\1A\00\00\006\00\00\00" }>, align 8
@anon.965c706604096d42e5b155eaa3c30edf.345 = private unnamed_addr constant <{ [76 x i8] }> <{ [76 x i8] c"\00\06\01\01\03\01\04\02\08\08\09\02\0A\05\0B\02\0E\04\10\01\11\02\12\05\13\11\14\01\15\02\17\02\19\0D\1C\05\1D\08$\01j\03k\02\BC\02\D1\02\D4\0C\D5\09\D6\02\D7\02\DA\01\E0\05\E1\02\E8\02\EE \F0\04\F8\02\F9\02\FA\02\FB\01" }>, align 1
@anon.965c706604096d42e5b155eaa3c30edf.346 = private unnamed_addr constant <{ [175 x i8] }> <{ [175 x i8] c"\0C';>NO\8F\9E\9E\9F\06\07\096=>V\F3\D0\D1\04\14\1867VW\7F\AA\AE\AF\BD5\E0\12\87\89\8E\9E\04\0D\0E\11\12)14:EFIJNOde\\\B6\B7\1B\1C\07\08\0A\0B\14\1769:\A8\A9\D8\D9\097\90\91\A8\07\0A;>fi\8F\92o_\EE\EFZb\9A\9B'(U\9D\A0\A1\A3\A4\A7\A8\AD\BA\BC\C4\06\0B\0C\15\1D:?EQ\A6\A7\CC\CD\A0\07\19\1A\22%>?\C5\C6\04 #%&(38:HJLPSUVXZ\\^`cefksx}\7F\8A\A4\AA\AF\B0\C0\D0\AE\AFy\CCno\93" }>, align 1
@anon.965c706604096d42e5b155eaa3c30edf.347 = private unnamed_addr constant <{ [419 x i8] }> <{ [419 x i8] c"^\22{\05\03\04-\03f\03\01/.\80\82\1D\031\0F\1C\04$\09\1E\05+\05D\04\0E*\80\AA\06$\04$\04(\084\0B\01\80\90\817\09\16\0A\08\80\989\03c\08\090\16\05!\03\1B\05\01@8\04K\05/\04\0A\07\09\07@ '\04\0C\096\03:\05\1A\07\04\0C\07PI73\0D3\07.\08\0A\81&RN(\08*V\1C\14\17\09N\04\1E\0FC\0E\19\07\0A\06H\08'\09u\0B?A*\06;\05\0A\06Q\06\01\05\10\03\05\80\8Bb\1EH\08\0A\80\A6^\22E\0B\0A\06\0D\139\07\0A6,\04\10\80\C0<dS\0CH\09\0AFE\1BH\08S\1D9\81\07F\0A\1D\03GI7\03\0E\08\0A\069\07\0A\816\19\80\B7\01\0F2\0D\83\9Bfu\0B\80\C4\8A\BC\84/\8F\D1\82G\A1\B9\829\07*\04\02`&\0AF\0A(\05\13\82\B0[eK\049\07\11@\05\0B\02\0E\97\F8\08\84\D6*\09\A2\F7\81\1F1\03\11\04\08\81\8C\89\04k\05\0D\03\09\07\10\93`\80\F6\0As\08n\17F\80\9A\14\0CW\09\19\80\87\81G\03\85B\0F\15\85P+\80\D5-\03\1A\04\02\81p:\05\01\85\00\80\D7)L\04\0A\04\02\83\11DL=\80\C2<\06\01\04U\05\1B4\02\81\0E,\04d\0CV\0A\80\AE8\1D\0D,\04\09\07\02\0E\06\80\9A\83\D8\08\0D\03\0D\03t\0CY\07\0C\14\0C\048\08\0A\06(\08\22N\81T\0C\15\03\03\05\07\09\19\07\07\09\03\0D\07)\80\CB%\0A\84\06" }>, align 1
@anon.965c706604096d42e5b155eaa3c30edf.339 = private unnamed_addr constant <{ [37 x i8] }> <{ [37 x i8] c"library/core/src/unicode/printable.rs" }>, align 1
@anon.965c706604096d42e5b155eaa3c30edf.250 = private unnamed_addr constant <{ i8*, [8 x i8], i8*, [8 x i8] }> <{ i8* getelementptr inbounds (<{ [22 x i8] }>, <{ [22 x i8] }>* @anon.965c706604096d42e5b155eaa3c30edf.248, i32 0, i32 0, i32 0), [8 x i8] c"\16\00\00\00\00\00\00\00", i8* getelementptr inbounds (<{ [13 x i8] }>, <{ [13 x i8] }>* @anon.965c706604096d42e5b155eaa3c30edf.249, i32 0, i32 0, i32 0), [8 x i8] c"\0D\00\00\00\00\00\00\00" }>, align 8
@anon.965c706604096d42e5b155eaa3c30edf.248 = private unnamed_addr constant <{ [22 x i8] }> <{ [22 x i8] c"slice index starts at " }>, align 1
@anon.965c706604096d42e5b155eaa3c30edf.249 = private unnamed_addr constant <{ [13 x i8] }> <{ [13 x i8] c" but ends at " }>, align 1
@_ZN4core7unicode12unicode_data15grapheme_extend17SHORT_OFFSET_RUNS17h04c130323a60817aE = internal unnamed_addr constant <{ [124 x i8] }> <{ [124 x i8] c"\00\03\00\00\83\04 \00\91\05`\00]\13\A0\00\12\17\A0\1E\0C \E0\1E\EF, +*0\A0+o\A6`,\02\A8\E0,\1E\FB\E0-\00\FE\A05\9E\FF\E05\FD\01a6\01\0A\A16$\0Da7\AB\0E\E18/\18!90\1CaF\F3\1E\A1J\F0jaNOo\A1N\9D\BC!Oe\D1\E1O\00\DA!P\00\E0\E1Q0\E1aS\EC\E2\A1T\D0\E8\E1T \00.U\F0\01\BFU" }>, align 4
@anon.965c706604096d42e5b155eaa3c30edf.354 = private unnamed_addr constant <{ i8*, [16 x i8] }> <{ i8* getelementptr inbounds (<{ [40 x i8] }>, <{ [40 x i8] }>* @anon.965c706604096d42e5b155eaa3c30edf.348, i32 0, i32 0, i32 0), [16 x i8] c"(\00\00\00\00\00\00\00R\00\00\00>\00\00\00" }>, align 8
@_ZN4core7unicode12unicode_data15grapheme_extend7OFFSETS17h24d3e692cf3b3b60E = internal unnamed_addr constant <{ [689 x i8] }> <{ [689 x i8] c"\00p\00\07\00-\01\01\01\02\01\02\01\01H\0B0\15\10\01e\07\02\06\02\02\01\04#\01\1E\1B[\0B:\09\09\01\18\04\01\09\01\03\01\05+\03w\0F\01 7\01\01\01\04\08\04\01\03\07\0A\02\1D\01:\01\01\01\02\04\08\01\09\01\0A\02\1A\01\02\029\01\04\02\04\02\02\03\03\01\1E\02\03\01\0B\029\01\04\05\01\02\04\01\14\02\16\06\01\01:\01\01\02\01\04\08\01\07\03\0A\02\1E\01;\01\01\01\0C\01\09\01(\01\03\019\03\05\03\01\04\07\02\0B\02\1D\01:\01\02\01\02\01\03\01\05\02\07\02\0B\02\1C\029\02\01\01\02\04\08\01\09\01\0A\02\1D\01H\01\04\01\02\03\01\01\08\01Q\01\02\07\0C\08b\01\02\09\0B\06J\02\1B\01\01\01\01\017\0E\01\05\01\02\05\0B\01$\09\01f\04\01\06\01\02\02\02\19\02\04\03\10\04\0D\01\02\02\06\01\0F\01\00\03\00\03\1D\03\1D\02\1E\02@\02\01\07\08\01\02\0B\09\01-\03w\02\22\01v\03\04\02\09\01\06\03\DB\02\02\01:\01\01\07\01\01\01\01\02\08\06\0A\02\010\11?\040\07\01\01\05\01(\09\0C\02 \04\02\02\01\038\01\01\02\03\01\01\03:\08\02\02\98\03\01\0D\01\07\04\01\06\01\03\02\C6:\01\05\00\01\C3!\00\03\8D\01` \00\06i\02\00\04\01\0A \02P\02\00\01\03\01\04\01\19\02\05\01\97\02\1A\12\0D\01&\08\19\0B.\030\01\02\04\02\02'\01C\06\02\02\02\02\0C\01\08\01/\013\01\01\03\02\02\05\02\01\01*\02\08\01\EE\01\02\01\04\01\00\01\00\10\10\10\00\02\00\01\E2\01\95\05\00\03\01\02\05\04(\03\04\01\A5\02\00\04\00\02\99\0B\B0\016\0F8\031\04\02\02E\03$\05\01\08>\01\0C\024\09\0A\04\02\01_\03\02\01\01\02\06\01\A0\01\03\08\15\029\02\01\01\01\01\16\01\0E\07\03\05\C3\08\02\03\01\01\17\01Q\01\02\06\01\01\02\01\01\02\01\02\EB\01\02\04\06\02\01\02\1B\02U\08\02\01\01\02j\01\01\01\02\06\01\01e\03\02\04\01\05\00\09\01\02\F5\01\0A\02\01\01\04\01\90\04\02\02\04\01 \0A(\06\02\04\08\01\09\06\02\03.\0D\01\02\00\07\01\06\01\01R\16\02\07\01\02\01\02z\06\03\01\01\02\01\07\01\01H\02\03\01\01\01\00\02\00\05;\07\00\01?\04Q\01\00\02\00\01\01\03\04\05\08\08\02\07\1E\04\94\03\007\042\08\01\0E\01\16\05\01\0F\00\07\01\11\02\07\01\02\01\05\00\07\00\04\00\07m\07\00`\80\F0\00" }>, align 1
@anon.965c706604096d42e5b155eaa3c30edf.352 = private unnamed_addr constant <{ i8*, [16 x i8] }> <{ i8* getelementptr inbounds (<{ [40 x i8] }>, <{ [40 x i8] }>* @anon.965c706604096d42e5b155eaa3c30edf.348, i32 0, i32 0, i32 0), [16 x i8] c"(\00\00\00\00\00\00\00K\00\00\00(\00\00\00" }>, align 8
@anon.965c706604096d42e5b155eaa3c30edf.353 = private unnamed_addr constant <{ i8*, [16 x i8] }> <{ i8* getelementptr inbounds (<{ [40 x i8] }>, <{ [40 x i8] }>* @anon.965c706604096d42e5b155eaa3c30edf.348, i32 0, i32 0, i32 0), [16 x i8] c"(\00\00\00\00\00\00\00W\00\00\00\16\00\00\00" }>, align 8
@anon.965c706604096d42e5b155eaa3c30edf.348 = private unnamed_addr constant <{ [40 x i8] }> <{ [40 x i8] c"library/core/src/unicode/unicode_data.rs" }>, align 1
@anon.965c706604096d42e5b155eaa3c30edf.312 = private unnamed_addr constant <{ [14 x i8] }> <{ [14 x i8] c"begin <= end (" }>, align 1
@anon.965c706604096d42e5b155eaa3c30edf.313 = private unnamed_addr constant <{ [4 x i8] }> <{ [4 x i8] c" <= " }>, align 1
@anon.965c706604096d42e5b155eaa3c30edf.314 = private unnamed_addr constant <{ [16 x i8] }> <{ [16 x i8] c") when slicing `" }>, align 1
@anon.965c706604096d42e5b155eaa3c30edf.310 = private unnamed_addr constant <{ [22 x i8] }> <{ [22 x i8] c" is out of bounds of `" }>, align 1
@anon.965c706604096d42e5b155eaa3c30edf.189 = private unnamed_addr constant <{ [4 x i8] }> <{ [4 x i8] c"    " }>, align 1
@anon.965c706604096d42e5b155eaa3c30edf.240 = private unnamed_addr constant <{ i8*, [16 x i8] }> <{ i8* getelementptr inbounds (<{ [32 x i8] }>, <{ [32 x i8] }>* @anon.965c706604096d42e5b155eaa3c30edf.239, i32 0, i32 0, i32 0), [16 x i8] c" \00\00\00\00\00\00\00Z\00\00\00\05\00\00\00" }>, align 8
@anon.965c706604096d42e5b155eaa3c30edf.190 = private unnamed_addr constant <{ i8*, [16 x i8] }> <{ i8* getelementptr inbounds (<{ [32 x i8] }>, <{ [32 x i8] }>* @anon.965c706604096d42e5b155eaa3c30edf.187, i32 0, i32 0, i32 0), [16 x i8] c" \00\00\00\00\00\00\002\00\00\00!\00\00\00" }>, align 8
@anon.965c706604096d42e5b155eaa3c30edf.191 = private unnamed_addr constant <{ i8*, [16 x i8] }> <{ i8* getelementptr inbounds (<{ [32 x i8] }>, <{ [32 x i8] }>* @anon.965c706604096d42e5b155eaa3c30edf.187, i32 0, i32 0, i32 0), [16 x i8] c" \00\00\00\00\00\00\003\00\00\00\12\00\00\00" }>, align 8
@anon.965c706604096d42e5b155eaa3c30edf.187 = private unnamed_addr constant <{ [32 x i8] }> <{ [32 x i8] c"library/core/src/fmt/builders.rs" }>, align 1
@anon.965c706604096d42e5b155eaa3c30edf.239 = private unnamed_addr constant <{ [32 x i8] }> <{ [32 x i8] c"library/core/src/slice/memchr.rs" }>, align 1
@anon.965c706604096d42e5b155eaa3c30edf.194 = private unnamed_addr constant <{ [2 x i8] }> <{ [2 x i8] c", " }>, align 1
@anon.965c706604096d42e5b155eaa3c30edf.188 = private unnamed_addr constant { void (%"fmt::builders::PadAdapter"*)*, i64, i64, i1 (%"fmt::builders::PadAdapter"*, [0 x i8]*, i64)*, i1 (%"fmt::builders::PadAdapter"*, i32)*, i1 (%"fmt::builders::PadAdapter"*, %"core::fmt::Arguments"*)* } { void (%"fmt::builders::PadAdapter"*)* bitcast (void ({ i8*, i8* }**)* @"_ZN4core3ptr102drop_in_place$LT$$RF$core..iter..adapters..copied..Copied$LT$core..slice..iter..Iter$LT$u8$GT$$GT$$GT$17h5913dccf4681891cE" to void (%"fmt::builders::PadAdapter"*)*), i64 24, i64 8, i1 (%"fmt::builders::PadAdapter"*, [0 x i8]*, i64)* @"_ZN68_$LT$core..fmt..builders..PadAdapter$u20$as$u20$core..fmt..Write$GT$9write_str17h3ae11c2145da0156E", i1 (%"fmt::builders::PadAdapter"*, i32)* @_ZN4core3fmt5Write10write_char17hf7abebfcdcdbc844E, i1 (%"fmt::builders::PadAdapter"*, %"core::fmt::Arguments"*)* @_ZN4core3fmt5Write9write_fmt17hc8a1698fd3fde6e3E }, align 8
@anon.965c706604096d42e5b155eaa3c30edf.193 = private unnamed_addr constant <{ [2 x i8] }> <{ [2 x i8] c",\0A" }>, align 1
@anon.965c706604096d42e5b155eaa3c30edf.226 = private unnamed_addr constant { void (%"fmt::builders::PadAdapter"**)*, i64, i64, i1 (%"fmt::builders::PadAdapter"**, [0 x i8]*, i64)*, i1 (%"fmt::builders::PadAdapter"**, i32)*, i1 (%"fmt::builders::PadAdapter"**, %"core::fmt::Arguments"*)* } { void (%"fmt::builders::PadAdapter"**)* bitcast (void ({ i8*, i8* }**)* @"_ZN4core3ptr102drop_in_place$LT$$RF$core..iter..adapters..copied..Copied$LT$core..slice..iter..Iter$LT$u8$GT$$GT$$GT$17h5913dccf4681891cE" to void (%"fmt::builders::PadAdapter"**)*), i64 8, i64 8, i1 (%"fmt::builders::PadAdapter"**, [0 x i8]*, i64)* @"_ZN50_$LT$$RF$mut$u20$W$u20$as$u20$core..fmt..Write$GT$9write_str17h05503ff1e33fb434E", i1 (%"fmt::builders::PadAdapter"**, i32)* @"_ZN50_$LT$$RF$mut$u20$W$u20$as$u20$core..fmt..Write$GT$10write_char17h0ae7987257b4ab3aE", i1 (%"fmt::builders::PadAdapter"**, %"core::fmt::Arguments"*)* @"_ZN50_$LT$$RF$mut$u20$W$u20$as$u20$core..fmt..Write$GT$9write_fmt17hf6469557449e863eE" }, align 8
@anon.965c706604096d42e5b155eaa3c30edf.204 = private unnamed_addr constant <{ [1 x i8] }> <{ [1 x i8] c")" }>, align 1
@anon.965c706604096d42e5b155eaa3c30edf.205 = private unnamed_addr constant <{ [1 x i8] }> <{ [1 x i8] c"\0A" }>, align 1
@anon.965c706604096d42e5b155eaa3c30edf.211 = private unnamed_addr constant <{ [1 x i8] }> <{ [1 x i8] c"]" }>, align 1
@anon.965c706604096d42e5b155eaa3c30edf.207 = private unnamed_addr constant <{ [1 x i8] }> <{ [1 x i8] c"[" }>, align 1
@anon.965c706604096d42e5b155eaa3c30edf.261 = private unnamed_addr constant <{ i8*, [8 x i8], i8*, [8 x i8], i8*, [8 x i8] }> <{ i8* getelementptr inbounds (<{ [21 x i8] }>, <{ [21 x i8] }>* @anon.965c706604096d42e5b155eaa3c30edf.259, i32 0, i32 0, i32 0), [8 x i8] c"\15\00\00\00\00\00\00\00", i8* getelementptr inbounds (<{ [43 x i8] }>, <{ [43 x i8] }>* @anon.965c706604096d42e5b155eaa3c30edf.260, i32 0, i32 0, i32 0), [8 x i8] c"+\00\00\00\00\00\00\00", i8* getelementptr inbounds (<{ [1 x i8] }>, <{ [1 x i8] }>* @anon.965c706604096d42e5b155eaa3c30edf.204, i32 0, i32 0, i32 0), [8 x i8] c"\01\00\00\00\00\00\00\00" }>, align 8
@anon.965c706604096d42e5b155eaa3c30edf.259 = private unnamed_addr constant <{ [21 x i8] }> <{ [21 x i8] c"source slice length (" }>, align 1
@anon.965c706604096d42e5b155eaa3c30edf.260 = private unnamed_addr constant <{ [43 x i8] }> <{ [43 x i8] c") does not match destination slice length (" }>, align 1
@anon.a0be1a43730ccad855c8cc472aa55c15.3 = private unnamed_addr constant { void (i8**)*, i64, i64, i1 (i8**, %"core::fmt::Formatter"*)* } { void (i8**)* @"_ZN4core3ptr27drop_in_place$LT$$RF$u8$GT$17hea454b89a918af2cE", i64 8, i64 8, i1 (i8**, %"core::fmt::Formatter"*)* @"_ZN42_$LT$$RF$T$u20$as$u20$core..fmt..Debug$GT$3fmt17h11d35ea2e222e395E" }, align 8, !dbg !0

@"_ZN4core3fmt3num52_$LT$impl$u20$core..fmt..LowerHex$u20$for$u20$u8$GT$3fmt17h7bff6ffdd196c44eE" = internal unnamed_addr alias i1 (i8*, %"core::fmt::Formatter"*), i1 (i8*, %"core::fmt::Formatter"*)* @"_ZN4core3fmt3num52_$LT$impl$u20$core..fmt..LowerHex$u20$for$u20$i8$GT$3fmt17h545225617cf8ffb0E"
@"_ZN4core3fmt3num52_$LT$impl$u20$core..fmt..UpperHex$u20$for$u20$u8$GT$3fmt17h674ec662ca3df834E" = internal unnamed_addr alias i1 (i8*, %"core::fmt::Formatter"*), i1 (i8*, %"core::fmt::Formatter"*)* @"_ZN4core3fmt3num52_$LT$impl$u20$core..fmt..UpperHex$u20$for$u20$i8$GT$3fmt17h1ef66fc617bfb9a8E"
@_ZN4core3fmt8builders9DebugList5entry17hbd53ecf1d93f6974E = internal unnamed_addr alias %"fmt::builders::DebugSet"* (%"fmt::builders::DebugSet"*, {}*, [3 x i64]*), %"fmt::builders::DebugSet"* (%"fmt::builders::DebugSet"*, {}*, [3 x i64]*)* @_ZN4core3fmt8builders8DebugSet5entry17hce63a6c648ea944bE

; <&T as core::fmt::Debug>::fmt
; Function Attrs: nounwind nonlazybind
define internal zeroext i1 @"_ZN42_$LT$$RF$T$u20$as$u20$core..fmt..Debug$GT$3fmt17h2fee1ea0053c8e06E"([4 x i8]** noalias readonly align 8 dereferenceable(8) %self, %"core::fmt::Formatter"* align 8 dereferenceable(64) %f) unnamed_addr #0 !dbg !386 {
start:
  %f.dbg.spill = alloca %"core::fmt::Formatter"*, align 8
  %self.dbg.spill = alloca [4 x i8]**, align 8
  store [4 x i8]** %self, [4 x i8]*** %self.dbg.spill, align 8
  call void @llvm.dbg.declare(metadata [4 x i8]*** %self.dbg.spill, metadata !426, metadata !DIExpression()), !dbg !430
  store %"core::fmt::Formatter"* %f, %"core::fmt::Formatter"** %f.dbg.spill, align 8
  call void @llvm.dbg.declare(metadata %"core::fmt::Formatter"** %f.dbg.spill, metadata !427, metadata !DIExpression()), !dbg !431
  %_4 = load [4 x i8]*, [4 x i8]** %self, align 8, !dbg !432, !nonnull !4
; call core::array::<impl core::fmt::Debug for [T; N]>::fmt
  %0 = call zeroext i1 @"_ZN4core5array69_$LT$impl$u20$core..fmt..Debug$u20$for$u20$$u5b$T$u3b$$u20$N$u5d$$GT$3fmt17h623e9e8c559653a0E"([4 x i8]* noalias readonly align 1 dereferenceable(4) %_4, %"core::fmt::Formatter"* align 8 dereferenceable(64) %f), !dbg !433
  ret i1 %0, !dbg !434
}

; <usize as core::iter::range::Step>::forward_unchecked
; Function Attrs: inlinehint norecurse nounwind nonlazybind readnone
define internal i64 @"_ZN49_$LT$usize$u20$as$u20$core..iter..range..Step$GT$17forward_unchecked17h21e3879b9a759c72E"(i64 %start1, i64 %n) unnamed_addr #1 !dbg !435 {
start:
  %n.dbg.spill = alloca i64, align 8
  %start.dbg.spill = alloca i64, align 8
  store i64 %start1, i64* %start.dbg.spill, align 8
  call void @llvm.dbg.declare(metadata i64* %start.dbg.spill, metadata !443, metadata !DIExpression()), !dbg !445
  store i64 %n, i64* %n.dbg.spill, align 8
  call void @llvm.dbg.declare(metadata i64* %n.dbg.spill, metadata !444, metadata !DIExpression()), !dbg !446
; call core::num::<impl usize>::unchecked_add
  %0 = call i64 @"_ZN4core3num23_$LT$impl$u20$usize$GT$13unchecked_add17hcee2fa7c551e7153E"(i64 %start1, i64 %n), !dbg !447
  ret i64 %0, !dbg !448
}

; core::intrinsics::copy
; Function Attrs: inlinehint nounwind nonlazybind
define internal void @_ZN4core10intrinsics4copy17h064a7621d2fbac08E(i8* %src, i8* %dst, i64 %count) unnamed_addr #2 !dbg !449 {
start:
  %count.dbg.spill = alloca i64, align 8
  %dst.dbg.spill = alloca i8*, align 8
  %src.dbg.spill = alloca i8*, align 8
  store i8* %src, i8** %src.dbg.spill, align 8
  call void @llvm.dbg.declare(metadata i8** %src.dbg.spill, metadata !455, metadata !DIExpression()), !dbg !460
  store i8* %dst, i8** %dst.dbg.spill, align 8
  call void @llvm.dbg.declare(metadata i8** %dst.dbg.spill, metadata !456, metadata !DIExpression()), !dbg !461
  store i64 %count, i64* %count.dbg.spill, align 8
  call void @llvm.dbg.declare(metadata i64* %count.dbg.spill, metadata !457, metadata !DIExpression()), !dbg !462
  %0 = mul i64 1, %count, !dbg !463
  call void @llvm.memmove.p0i8.p0i8.i64(i8* align 1 %dst, i8* align 1 %src, i64 %0, i1 false), !dbg !463
  ret void, !dbg !464
}

; core::cmp::impls::<impl core::cmp::PartialOrd for u8>::gt
; Function Attrs: inlinehint norecurse nounwind nonlazybind readonly
define internal zeroext i1 @"_ZN4core3cmp5impls54_$LT$impl$u20$core..cmp..PartialOrd$u20$for$u20$u8$GT$2gt17h8075cedc18da1d31E"(i8* noalias readonly align 1 dereferenceable(1) %self, i8* noalias readonly align 1 dereferenceable(1) %other) unnamed_addr #3 !dbg !465 {
start:
  %other.dbg.spill = alloca i8*, align 8
  %self.dbg.spill = alloca i8*, align 8
  store i8* %self, i8** %self.dbg.spill, align 8
  call void @llvm.dbg.declare(metadata i8** %self.dbg.spill, metadata !473, metadata !DIExpression()), !dbg !475
  store i8* %other, i8** %other.dbg.spill, align 8
  call void @llvm.dbg.declare(metadata i8** %other.dbg.spill, metadata !474, metadata !DIExpression()), !dbg !476
  %_3 = load i8, i8* %self, align 1, !dbg !477
  %_4 = load i8, i8* %other, align 1, !dbg !478
  %0 = icmp ugt i8 %_3, %_4, !dbg !477
  ret i1 %0, !dbg !479
}

; core::cmp::impls::<impl core::cmp::PartialOrd for u8>::lt
; Function Attrs: inlinehint norecurse nounwind nonlazybind readonly
define internal zeroext i1 @"_ZN4core3cmp5impls54_$LT$impl$u20$core..cmp..PartialOrd$u20$for$u20$u8$GT$2lt17h2f775de59601301dE"(i8* noalias readonly align 1 dereferenceable(1) %self, i8* noalias readonly align 1 dereferenceable(1) %other) unnamed_addr #3 !dbg !480 {
start:
  %other.dbg.spill = alloca i8*, align 8
  %self.dbg.spill = alloca i8*, align 8
  store i8* %self, i8** %self.dbg.spill, align 8
  call void @llvm.dbg.declare(metadata i8** %self.dbg.spill, metadata !482, metadata !DIExpression()), !dbg !484
  store i8* %other, i8** %other.dbg.spill, align 8
  call void @llvm.dbg.declare(metadata i8** %other.dbg.spill, metadata !483, metadata !DIExpression()), !dbg !485
  %_3 = load i8, i8* %self, align 1, !dbg !486
  %_4 = load i8, i8* %other, align 1, !dbg !487
  %0 = icmp ult i8 %_3, %_4, !dbg !486
  ret i1 %0, !dbg !488
}

; core::cmp::impls::<impl core::cmp::PartialOrd for usize>::lt
; Function Attrs: inlinehint norecurse nounwind nonlazybind readonly
define internal zeroext i1 @"_ZN4core3cmp5impls57_$LT$impl$u20$core..cmp..PartialOrd$u20$for$u20$usize$GT$2lt17h099d59298864fe18E"(i64* noalias readonly align 8 dereferenceable(8) %self, i64* noalias readonly align 8 dereferenceable(8) %other) unnamed_addr #3 !dbg !489 {
start:
  %other.dbg.spill = alloca i64*, align 8
  %self.dbg.spill = alloca i64*, align 8
  store i64* %self, i64** %self.dbg.spill, align 8
  call void @llvm.dbg.declare(metadata i64** %self.dbg.spill, metadata !493, metadata !DIExpression()), !dbg !495
  store i64* %other, i64** %other.dbg.spill, align 8
  call void @llvm.dbg.declare(metadata i64** %other.dbg.spill, metadata !494, metadata !DIExpression()), !dbg !496
  %_3 = load i64, i64* %self, align 8, !dbg !497
  %_4 = load i64, i64* %other, align 8, !dbg !498
  %0 = icmp ult i64 %_3, %_4, !dbg !497
  ret i1 %0, !dbg !499
}

; core::fmt::ArgumentV1::new
; Function Attrs: norecurse nounwind nonlazybind readnone
define internal { i8*, i64* } @_ZN4core3fmt10ArgumentV13new17h5b9d9eeaf427591fE([4 x i8]** noalias readonly align 8 dereferenceable(8) %x, i1 ([4 x i8]**, %"core::fmt::Formatter"*)* nonnull %f) unnamed_addr #4 !dbg !500 {
start:
  %0 = alloca %"core::fmt::Opaque"*, align 8
  %1 = alloca i1 (%"core::fmt::Opaque"*, %"core::fmt::Formatter"*)*, align 8
  %f.dbg.spill = alloca i1 ([4 x i8]**, %"core::fmt::Formatter"*)*, align 8
  %x.dbg.spill = alloca [4 x i8]**, align 8
  %2 = alloca { i8*, i64* }, align 8
  store [4 x i8]** %x, [4 x i8]*** %x.dbg.spill, align 8
  call void @llvm.dbg.declare(metadata [4 x i8]*** %x.dbg.spill, metadata !514, metadata !DIExpression()), !dbg !518
  store i1 ([4 x i8]**, %"core::fmt::Formatter"*)* %f, i1 ([4 x i8]**, %"core::fmt::Formatter"*)** %f.dbg.spill, align 8
  call void @llvm.dbg.declare(metadata i1 ([4 x i8]**, %"core::fmt::Formatter"*)** %f.dbg.spill, metadata !515, metadata !DIExpression()), !dbg !519
  %3 = bitcast i1 ([4 x i8]**, %"core::fmt::Formatter"*)* %f to i1 (%"core::fmt::Opaque"*, %"core::fmt::Formatter"*)*, !dbg !520
  store i1 (%"core::fmt::Opaque"*, %"core::fmt::Formatter"*)* %3, i1 (%"core::fmt::Opaque"*, %"core::fmt::Formatter"*)** %1, align 8, !dbg !520
  %_3 = load i1 (%"core::fmt::Opaque"*, %"core::fmt::Formatter"*)*, i1 (%"core::fmt::Opaque"*, %"core::fmt::Formatter"*)** %1, align 8, !dbg !520, !nonnull !4
  %4 = bitcast [4 x i8]** %x to %"core::fmt::Opaque"*, !dbg !521
  store %"core::fmt::Opaque"* %4, %"core::fmt::Opaque"** %0, align 8, !dbg !521
  %_5 = load %"core::fmt::Opaque"*, %"core::fmt::Opaque"** %0, align 8, !dbg !521, !nonnull !4
  %5 = bitcast { i8*, i64* }* %2 to %"core::fmt::Opaque"**, !dbg !522
  store %"core::fmt::Opaque"* %_5, %"core::fmt::Opaque"** %5, align 8, !dbg !522
  %6 = getelementptr inbounds { i8*, i64* }, { i8*, i64* }* %2, i32 0, i32 1, !dbg !522
  %7 = bitcast i64** %6 to i1 (%"core::fmt::Opaque"*, %"core::fmt::Formatter"*)**, !dbg !522
  store i1 (%"core::fmt::Opaque"*, %"core::fmt::Formatter"*)* %_3, i1 (%"core::fmt::Opaque"*, %"core::fmt::Formatter"*)** %7, align 8, !dbg !522
  %8 = getelementptr inbounds { i8*, i64* }, { i8*, i64* }* %2, i32 0, i32 0, !dbg !523
  %9 = load i8*, i8** %8, align 8, !dbg !523, !nonnull !4
  %10 = getelementptr inbounds { i8*, i64* }, { i8*, i64* }* %2, i32 0, i32 1, !dbg !523
  %11 = load i64*, i64** %10, align 8, !dbg !523, !nonnull !4
  %12 = insertvalue { i8*, i64* } undef, i8* %9, 0, !dbg !523
  %13 = insertvalue { i8*, i64* } %12, i64* %11, 1, !dbg !523
  ret { i8*, i64* } %13, !dbg !523
}

; core::fmt::Arguments::new_v1
; Function Attrs: inlinehint nofree norecurse nounwind nonlazybind writeonly
define internal void @_ZN4core3fmt9Arguments6new_v117h61cd5b3f092f508bE(%"core::fmt::Arguments"* noalias nocapture sret dereferenceable(48) %0, [0 x { [0 x i8]*, i64 }]* noalias nonnull readonly align 8 %pieces.0, i64 %pieces.1, [0 x { i8*, i64* }]* noalias nonnull readonly align 8 %args.0, i64 %args.1) unnamed_addr #5 !dbg !524 {
start:
  %args.dbg.spill = alloca { [0 x { i8*, i64* }]*, i64 }, align 8
  %pieces.dbg.spill = alloca { [0 x { [0 x i8]*, i64 }]*, i64 }, align 8
  %_4 = alloca { i64*, i64 }, align 8
  %1 = getelementptr inbounds { [0 x { [0 x i8]*, i64 }]*, i64 }, { [0 x { [0 x i8]*, i64 }]*, i64 }* %pieces.dbg.spill, i32 0, i32 0
  store [0 x { [0 x i8]*, i64 }]* %pieces.0, [0 x { [0 x i8]*, i64 }]** %1, align 8
  %2 = getelementptr inbounds { [0 x { [0 x i8]*, i64 }]*, i64 }, { [0 x { [0 x i8]*, i64 }]*, i64 }* %pieces.dbg.spill, i32 0, i32 1
  store i64 %pieces.1, i64* %2, align 8
  call void @llvm.dbg.declare(metadata { [0 x { [0 x i8]*, i64 }]*, i64 }* %pieces.dbg.spill, metadata !590, metadata !DIExpression()), !dbg !592
  %3 = getelementptr inbounds { [0 x { i8*, i64* }]*, i64 }, { [0 x { i8*, i64* }]*, i64 }* %args.dbg.spill, i32 0, i32 0
  store [0 x { i8*, i64* }]* %args.0, [0 x { i8*, i64* }]** %3, align 8
  %4 = getelementptr inbounds { [0 x { i8*, i64* }]*, i64 }, { [0 x { i8*, i64* }]*, i64 }* %args.dbg.spill, i32 0, i32 1
  store i64 %args.1, i64* %4, align 8
  call void @llvm.dbg.declare(metadata { [0 x { i8*, i64* }]*, i64 }* %args.dbg.spill, metadata !591, metadata !DIExpression()), !dbg !593
  %5 = bitcast { i64*, i64 }* %_4 to {}**, !dbg !594
  store {}* null, {}** %5, align 8, !dbg !594
  %6 = bitcast %"core::fmt::Arguments"* %0 to { [0 x { [0 x i8]*, i64 }]*, i64 }*, !dbg !595
  %7 = getelementptr inbounds { [0 x { [0 x i8]*, i64 }]*, i64 }, { [0 x { [0 x i8]*, i64 }]*, i64 }* %6, i32 0, i32 0, !dbg !595
  store [0 x { [0 x i8]*, i64 }]* %pieces.0, [0 x { [0 x i8]*, i64 }]** %7, align 8, !dbg !595
  %8 = getelementptr inbounds { [0 x { [0 x i8]*, i64 }]*, i64 }, { [0 x { [0 x i8]*, i64 }]*, i64 }* %6, i32 0, i32 1, !dbg !595
  store i64 %pieces.1, i64* %8, align 8, !dbg !595
  %9 = getelementptr inbounds %"core::fmt::Arguments", %"core::fmt::Arguments"* %0, i32 0, i32 3, !dbg !595
  %10 = getelementptr inbounds { i64*, i64 }, { i64*, i64 }* %_4, i32 0, i32 0, !dbg !595
  %11 = load i64*, i64** %10, align 8, !dbg !595
  %12 = getelementptr inbounds { i64*, i64 }, { i64*, i64 }* %_4, i32 0, i32 1, !dbg !595
  %13 = load i64, i64* %12, align 8, !dbg !595
  %14 = getelementptr inbounds { i64*, i64 }, { i64*, i64 }* %9, i32 0, i32 0, !dbg !595
  store i64* %11, i64** %14, align 8, !dbg !595
  %15 = getelementptr inbounds { i64*, i64 }, { i64*, i64 }* %9, i32 0, i32 1, !dbg !595
  store i64 %13, i64* %15, align 8, !dbg !595
  %16 = getelementptr inbounds %"core::fmt::Arguments", %"core::fmt::Arguments"* %0, i32 0, i32 5, !dbg !595
  %17 = getelementptr inbounds { [0 x { i8*, i64* }]*, i64 }, { [0 x { i8*, i64* }]*, i64 }* %16, i32 0, i32 0, !dbg !595
  store [0 x { i8*, i64* }]* %args.0, [0 x { i8*, i64* }]** %17, align 8, !dbg !595
  %18 = getelementptr inbounds { [0 x { i8*, i64* }]*, i64 }, { [0 x { i8*, i64* }]*, i64 }* %16, i32 0, i32 1, !dbg !595
  store i64 %args.1, i64* %18, align 8, !dbg !595
  ret void, !dbg !596
}

; core::num::<impl usize>::unchecked_add
; Function Attrs: inlinehint norecurse nounwind nonlazybind readnone
define internal i64 @"_ZN4core3num23_$LT$impl$u20$usize$GT$13unchecked_add17hcee2fa7c551e7153E"(i64 %self, i64 %rhs) unnamed_addr #1 !dbg !597 {
start:
  %0 = alloca i64, align 8
  %rhs.dbg.spill = alloca i64, align 8
  %self.dbg.spill = alloca i64, align 8
  store i64 %self, i64* %self.dbg.spill, align 8
  call void @llvm.dbg.declare(metadata i64* %self.dbg.spill, metadata !602, metadata !DIExpression()), !dbg !604
  store i64 %rhs, i64* %rhs.dbg.spill, align 8
  call void @llvm.dbg.declare(metadata i64* %rhs.dbg.spill, metadata !603, metadata !DIExpression()), !dbg !605
  %1 = add nuw i64 %self, %rhs, !dbg !606
  store i64 %1, i64* %0, align 8, !dbg !606
  %2 = load i64, i64* %0, align 8, !dbg !606
  ret i64 %2, !dbg !607
}

; core::ptr::swap
; Function Attrs: inlinehint nounwind nonlazybind
define internal void @_ZN4core3ptr4swap17hb317dc7febc4ff88E(i8* %x, i8* %y) unnamed_addr #2 !dbg !608 {
start:
  %self.dbg.spill.i1 = alloca i8*, align 8
  %self.dbg.spill.i = alloca i8*, align 8
  %0 = alloca i8, align 1
  %y.dbg.spill = alloca i8*, align 8
  %x.dbg.spill = alloca i8*, align 8
  %tmp = alloca i8, align 1
  store i8* %x, i8** %x.dbg.spill, align 8
  call void @llvm.dbg.declare(metadata i8** %x.dbg.spill, metadata !614, metadata !DIExpression()), !dbg !628
  store i8* %y, i8** %y.dbg.spill, align 8
  call void @llvm.dbg.declare(metadata i8** %y.dbg.spill, metadata !615, metadata !DIExpression()), !dbg !629
  call void @llvm.dbg.declare(metadata i8* %tmp, metadata !616, metadata !DIExpression()), !dbg !630
  %1 = bitcast i8* %0 to {}*, !dbg !631
  %2 = load i8, i8* %0, align 1, !dbg !637
  store i8 %2, i8* %tmp, align 1, !dbg !638
  store i8* %tmp, i8** %self.dbg.spill.i1, align 8
  call void @llvm.dbg.declare(metadata i8** %self.dbg.spill.i1, metadata !639, metadata !DIExpression()), !dbg !645
; call core::intrinsics::copy_nonoverlapping
  call void @_ZN4core10intrinsics19copy_nonoverlapping17h52ad845747bdbd59E(i8* %x, i8* %tmp, i64 1), !dbg !647
; call core::intrinsics::copy
  call void @_ZN4core10intrinsics4copy17h064a7621d2fbac08E(i8* %y, i8* %x, i64 1), !dbg !648
  store i8* %tmp, i8** %self.dbg.spill.i, align 8, !noalias !649
  call void @llvm.dbg.declare(metadata i8** %self.dbg.spill.i, metadata !652, metadata !DIExpression()), !dbg !658
; call core::intrinsics::copy_nonoverlapping
  call void @_ZN4core10intrinsics19copy_nonoverlapping17h52ad845747bdbd59E(i8* %tmp, i8* %y, i64 1), !dbg !660
  ret void, !dbg !661
}

; core::iter::range::<impl core::iter::traits::iterator::Iterator for core::ops::range::Range<A>>::next
; Function Attrs: inlinehint nounwind nonlazybind
define internal { i64, i64 } @"_ZN4core4iter5range101_$LT$impl$u20$core..iter..traits..iterator..Iterator$u20$for$u20$core..ops..range..Range$LT$A$GT$$GT$4next17h066a0d3805b672b9E"({ i64, i64 }* align 8 dereferenceable(16) %self) unnamed_addr #2 !dbg !662 {
start:
  %n.dbg.spill = alloca i64, align 8
  %self.dbg.spill = alloca { i64, i64 }*, align 8
  %0 = alloca { i64, i64 }, align 8
  store { i64, i64 }* %self, { i64, i64 }** %self.dbg.spill, align 8
  call void @llvm.dbg.declare(metadata { i64, i64 }** %self.dbg.spill, metadata !675, metadata !DIExpression()), !dbg !680
  %_3 = bitcast { i64, i64 }* %self to i64*, !dbg !681
  %_4 = getelementptr inbounds { i64, i64 }, { i64, i64 }* %self, i32 0, i32 1, !dbg !682
; call core::cmp::impls::<impl core::cmp::PartialOrd for usize>::lt
  %_2 = call zeroext i1 @"_ZN4core3cmp5impls57_$LT$impl$u20$core..cmp..PartialOrd$u20$for$u20$usize$GT$2lt17h099d59298864fe18E"(i64* noalias readonly align 8 dereferenceable(8) %_3, i64* noalias readonly align 8 dereferenceable(8) %_4), !dbg !681
  br i1 %_2, label %bb2, label %bb3, !dbg !683

bb2:                                              ; preds = %start
  %_7 = bitcast { i64, i64 }* %self to i64*, !dbg !684
; call core::clone::impls::<impl core::clone::Clone for usize>::clone
  %_6 = call i64 @"_ZN4core5clone5impls54_$LT$impl$u20$core..clone..Clone$u20$for$u20$usize$GT$5clone17hc3931831060140a3E"(i64* noalias readonly align 8 dereferenceable(8) %_7), !dbg !684
; call <usize as core::iter::range::Step>::forward_unchecked
  %n = call i64 @"_ZN49_$LT$usize$u20$as$u20$core..iter..range..Step$GT$17forward_unchecked17h21e3879b9a759c72E"(i64 %_6, i64 1), !dbg !685
  store i64 %n, i64* %n.dbg.spill, align 8, !dbg !685
  call void @llvm.dbg.declare(metadata i64* %n.dbg.spill, metadata !676, metadata !DIExpression()), !dbg !686
  %_10 = bitcast { i64, i64 }* %self to i64*, !dbg !687
; call core::mem::replace
  %_8 = call i64 @_ZN4core3mem7replace17h3edc5b31073a8d82E(i64* align 8 dereferenceable(8) %_10, i64 %n), !dbg !688
  %1 = bitcast { i64, i64 }* %0 to %"core::option::Option<usize>::Some"*, !dbg !689
  %2 = getelementptr inbounds %"core::option::Option<usize>::Some", %"core::option::Option<usize>::Some"* %1, i32 0, i32 1, !dbg !689
  store i64 %_8, i64* %2, align 8, !dbg !689
  %3 = bitcast { i64, i64 }* %0 to i64*, !dbg !689
  store i64 1, i64* %3, align 8, !dbg !689
  br label %bb7, !dbg !683

bb3:                                              ; preds = %start
  %4 = bitcast { i64, i64 }* %0 to i64*, !dbg !690
  store i64 0, i64* %4, align 8, !dbg !690
  br label %bb7, !dbg !683

bb7:                                              ; preds = %bb3, %bb2
  %5 = getelementptr inbounds { i64, i64 }, { i64, i64 }* %0, i32 0, i32 0, !dbg !691
  %6 = load i64, i64* %5, align 8, !dbg !691, !range !692
  %7 = getelementptr inbounds { i64, i64 }, { i64, i64 }* %0, i32 0, i32 1, !dbg !691
  %8 = load i64, i64* %7, align 8, !dbg !691
  %9 = insertvalue { i64, i64 } undef, i64 %6, 0, !dbg !691
  %10 = insertvalue { i64, i64 } %9, i64 %8, 1, !dbg !691
  ret { i64, i64 } %10, !dbg !691
}

; core::array::<impl core::cmp::PartialEq<[B; N]> for [A; N]>::eq
; Function Attrs: inlinehint nounwind nonlazybind readonly
define internal zeroext i1 @"_ZN4core5array103_$LT$impl$u20$core..cmp..PartialEq$LT$$u5b$B$u3b$$u20$N$u5d$$GT$$u20$for$u20$$u5b$A$u3b$$u20$N$u5d$$GT$2eq17hc7a65319d87dd12cE"([4 x i8]* noalias readonly align 1 dereferenceable(4) %self, [4 x i8]* noalias readonly align 1 dereferenceable(4) %other) unnamed_addr #6 !dbg !693 {
start:
  %other.dbg.spill = alloca [4 x i8]*, align 8
  %self.dbg.spill = alloca [4 x i8]*, align 8
  %_10 = alloca %"core::ops::RangeFull", align 1
  %_6 = alloca %"core::ops::RangeFull", align 1
  store [4 x i8]* %self, [4 x i8]** %self.dbg.spill, align 8
  call void @llvm.dbg.declare(metadata [4 x i8]** %self.dbg.spill, metadata !700, metadata !DIExpression()), !dbg !705
  store [4 x i8]* %other, [4 x i8]** %other.dbg.spill, align 8
  call void @llvm.dbg.declare(metadata [4 x i8]** %other.dbg.spill, metadata !701, metadata !DIExpression()), !dbg !706
; call core::array::<impl core::ops::index::Index<I> for [T; N]>::index
  %0 = call { [0 x i8]*, i64 } @"_ZN4core5array85_$LT$impl$u20$core..ops..index..Index$LT$I$GT$$u20$for$u20$$u5b$T$u3b$$u20$N$u5d$$GT$5index17h305019e40434c006E"([4 x i8]* noalias readonly align 1 dereferenceable(4) %self, %"core::panic::Location"* noalias readonly align 8 dereferenceable(24) bitcast (<{ i8*, [16 x i8] }>* @alloc19 to %"core::panic::Location"*)), !dbg !707
  %_4.0 = extractvalue { [0 x i8]*, i64 } %0, 0, !dbg !707
  %_4.1 = extractvalue { [0 x i8]*, i64 } %0, 1, !dbg !707
; call core::array::<impl core::ops::index::Index<I> for [T; N]>::index
  %1 = call { [0 x i8]*, i64 } @"_ZN4core5array85_$LT$impl$u20$core..ops..index..Index$LT$I$GT$$u20$for$u20$$u5b$T$u3b$$u20$N$u5d$$GT$5index17h305019e40434c006E"([4 x i8]* noalias readonly align 1 dereferenceable(4) %other, %"core::panic::Location"* noalias readonly align 8 dereferenceable(24) bitcast (<{ i8*, [16 x i8] }>* @alloc21 to %"core::panic::Location"*)), !dbg !708
  %_8.0 = extractvalue { [0 x i8]*, i64 } %1, 0, !dbg !708
  %_8.1 = extractvalue { [0 x i8]*, i64 } %1, 1, !dbg !708
; call core::slice::cmp::<impl core::cmp::PartialEq<[B]> for [A]>::eq
  %2 = call zeroext i1 @"_ZN4core5slice3cmp81_$LT$impl$u20$core..cmp..PartialEq$LT$$u5b$B$u5d$$GT$$u20$for$u20$$u5b$A$u5d$$GT$2eq17h96abb843a25fb164E"([0 x i8]* noalias nonnull readonly align 1 %_4.0, i64 %_4.1, [0 x i8]* noalias nonnull readonly align 1 %_8.0, i64 %_8.1), !dbg !707
  ret i1 %2, !dbg !709
}

; core::array::<impl core::fmt::Debug for [T; N]>::fmt
; Function Attrs: nounwind nonlazybind
define internal zeroext i1 @"_ZN4core5array69_$LT$impl$u20$core..fmt..Debug$u20$for$u20$$u5b$T$u3b$$u20$N$u5d$$GT$3fmt17h623e9e8c559653a0E"([4 x i8]* noalias readonly align 1 dereferenceable(4) %self, %"core::fmt::Formatter"* align 8 dereferenceable(64) %f) unnamed_addr #0 !dbg !710 {
start:
  %f.dbg.spill = alloca %"core::fmt::Formatter"*, align 8
  %self.dbg.spill = alloca [4 x i8]*, align 8
  %_8 = alloca %"core::ops::RangeFull", align 1
  %_5 = alloca { [0 x i8]*, i64 }, align 8
  store [4 x i8]* %self, [4 x i8]** %self.dbg.spill, align 8
  call void @llvm.dbg.declare(metadata [4 x i8]** %self.dbg.spill, metadata !714, metadata !DIExpression()), !dbg !716
  store %"core::fmt::Formatter"* %f, %"core::fmt::Formatter"** %f.dbg.spill, align 8
  call void @llvm.dbg.declare(metadata %"core::fmt::Formatter"** %f.dbg.spill, metadata !715, metadata !DIExpression()), !dbg !717
; call core::array::<impl core::ops::index::Index<I> for [T; N]>::index
  %0 = call { [0 x i8]*, i64 } @"_ZN4core5array85_$LT$impl$u20$core..ops..index..Index$LT$I$GT$$u20$for$u20$$u5b$T$u3b$$u20$N$u5d$$GT$5index17h305019e40434c006E"([4 x i8]* noalias readonly align 1 dereferenceable(4) %self, %"core::panic::Location"* noalias readonly align 8 dereferenceable(24) bitcast (<{ i8*, [16 x i8] }>* @alloc23 to %"core::panic::Location"*)), !dbg !718
  %_6.0 = extractvalue { [0 x i8]*, i64 } %0, 0, !dbg !718
  %_6.1 = extractvalue { [0 x i8]*, i64 } %0, 1, !dbg !718
  %1 = getelementptr inbounds { [0 x i8]*, i64 }, { [0 x i8]*, i64 }* %_5, i32 0, i32 0, !dbg !719
  store [0 x i8]* %_6.0, [0 x i8]** %1, align 8, !dbg !719
  %2 = getelementptr inbounds { [0 x i8]*, i64 }, { [0 x i8]*, i64 }* %_5, i32 0, i32 1, !dbg !719
  store i64 %_6.1, i64* %2, align 8, !dbg !719
; call <&T as core::fmt::Debug>::fmt
  %3 = call zeroext i1 @"_ZN42_$LT$$RF$T$u20$as$u20$core..fmt..Debug$GT$3fmt17hff642f9a448626beE"({ [0 x i8]*, i64 }* noalias readonly align 8 dereferenceable(16) %_5, %"core::fmt::Formatter"* align 8 dereferenceable(64) %f), !dbg !720
  ret i1 %3, !dbg !721
}

; core::array::<impl core::ops::index::Index<I> for [T; N]>::index
; Function Attrs: inlinehint norecurse nounwind nonlazybind readnone
define internal { [0 x i8]*, i64 } @"_ZN4core5array85_$LT$impl$u20$core..ops..index..Index$LT$I$GT$$u20$for$u20$$u5b$T$u3b$$u20$N$u5d$$GT$5index17h305019e40434c006E"([4 x i8]* noalias readonly align 1 dereferenceable(4) %self, %"core::panic::Location"* noalias nocapture readonly align 8 dereferenceable(24) %0) unnamed_addr #1 !dbg !722 {
start:
  %index.dbg.spill = alloca %"core::ops::RangeFull", align 1
  %self.dbg.spill = alloca [4 x i8]*, align 8
  store [4 x i8]* %self, [4 x i8]** %self.dbg.spill, align 8
  call void @llvm.dbg.declare(metadata [4 x i8]** %self.dbg.spill, metadata !738, metadata !DIExpression()), !dbg !742
  call void @llvm.dbg.declare(metadata %"core::ops::RangeFull"* %index.dbg.spill, metadata !739, metadata !DIExpression()), !dbg !743
  %_4.0 = bitcast [4 x i8]* %self to [0 x i8]*, !dbg !744
; call core::slice::index::<impl core::ops::index::Index<I> for [T]>::index
  %1 = call { [0 x i8]*, i64 } @"_ZN4core5slice5index74_$LT$impl$u20$core..ops..index..Index$LT$I$GT$$u20$for$u20$$u5b$T$u5d$$GT$5index17h574fa5469c12d863E"([0 x i8]* noalias nonnull readonly align 1 %_4.0, i64 4, %"core::panic::Location"* noalias readonly align 8 dereferenceable(24) %0), !dbg !745
  %2 = extractvalue { [0 x i8]*, i64 } %1, 0, !dbg !745
  %3 = extractvalue { [0 x i8]*, i64 } %1, 1, !dbg !745
  %4 = insertvalue { [0 x i8]*, i64 } undef, [0 x i8]* %2, 0, !dbg !746
  %5 = insertvalue { [0 x i8]*, i64 } %4, i64 %3, 1, !dbg !746
  ret { [0 x i8]*, i64 } %5, !dbg !746
}

; core::clone::impls::<impl core::clone::Clone for usize>::clone
; Function Attrs: inlinehint norecurse nounwind nonlazybind readonly
define internal i64 @"_ZN4core5clone5impls54_$LT$impl$u20$core..clone..Clone$u20$for$u20$usize$GT$5clone17hc3931831060140a3E"(i64* noalias readonly align 8 dereferenceable(8) %self) unnamed_addr #3 !dbg !747 {
start:
  %self.dbg.spill = alloca i64*, align 8
  store i64* %self, i64** %self.dbg.spill, align 8
  call void @llvm.dbg.declare(metadata i64** %self.dbg.spill, metadata !755, metadata !DIExpression()), !dbg !756
  %0 = load i64, i64* %self, align 8, !dbg !757
  ret i64 %0, !dbg !758
}

; core::slice::<impl [T]>::as_mut_ptr
; Function Attrs: inlinehint norecurse nounwind nonlazybind readnone
define internal nonnull i8* @"_ZN4core5slice29_$LT$impl$u20$$u5b$T$u5d$$GT$10as_mut_ptr17hcdc367087dbca03bE"([0 x i8]* nonnull align 1 %self.0, i64 %self.1) unnamed_addr #1 !dbg !759 {
start:
  %self.dbg.spill = alloca { [0 x i8]*, i64 }, align 8
  %0 = getelementptr inbounds { [0 x i8]*, i64 }, { [0 x i8]*, i64 }* %self.dbg.spill, i32 0, i32 0
  store [0 x i8]* %self.0, [0 x i8]** %0, align 8
  %1 = getelementptr inbounds { [0 x i8]*, i64 }, { [0 x i8]*, i64 }* %self.dbg.spill, i32 0, i32 1
  store i64 %self.1, i64* %1, align 8
  call void @llvm.dbg.declare(metadata { [0 x i8]*, i64 }* %self.dbg.spill, metadata !770, metadata !DIExpression()), !dbg !771
  %2 = bitcast [0 x i8]* %self.0 to i8*, !dbg !772
  ret i8* %2, !dbg !773
}

; core::slice::<impl [T]>::copy_from_slice
; Function Attrs: nounwind nonlazybind
define internal void @"_ZN4core5slice29_$LT$impl$u20$$u5b$T$u5d$$GT$15copy_from_slice17h95d698ec99c2fc3eE"([0 x i8]* nonnull align 1 %self.0, i64 %self.1, [0 x i8]* noalias nonnull readonly align 1 %src.0, i64 %src.1) unnamed_addr #0 !dbg !774 {
start:
  %src.dbg.spill = alloca { [0 x i8]*, i64 }, align 8
  %self.dbg.spill = alloca { [0 x i8]*, i64 }, align 8
  %0 = getelementptr inbounds { [0 x i8]*, i64 }, { [0 x i8]*, i64 }* %self.dbg.spill, i32 0, i32 0
  store [0 x i8]* %self.0, [0 x i8]** %0, align 8
  %1 = getelementptr inbounds { [0 x i8]*, i64 }, { [0 x i8]*, i64 }* %self.dbg.spill, i32 0, i32 1
  store i64 %self.1, i64* %1, align 8
  call void @llvm.dbg.declare(metadata { [0 x i8]*, i64 }* %self.dbg.spill, metadata !778, metadata !DIExpression()), !dbg !780
  %2 = getelementptr inbounds { [0 x i8]*, i64 }, { [0 x i8]*, i64 }* %src.dbg.spill, i32 0, i32 0
  store [0 x i8]* %src.0, [0 x i8]** %2, align 8
  %3 = getelementptr inbounds { [0 x i8]*, i64 }, { [0 x i8]*, i64 }* %src.dbg.spill, i32 0, i32 1
  store i64 %src.1, i64* %3, align 8
  call void @llvm.dbg.declare(metadata { [0 x i8]*, i64 }* %src.dbg.spill, metadata !779, metadata !DIExpression()), !dbg !781
; call core::slice::<impl [T]>::len
  %_4 = call i64 @"_ZN4core5slice29_$LT$impl$u20$$u5b$T$u5d$$GT$3len17h3b47bcd937d27431E"([0 x i8]* noalias nonnull readonly align 1 %self.0, i64 %self.1), !dbg !782
; call core::slice::<impl [T]>::len
  %_6 = call i64 @"_ZN4core5slice29_$LT$impl$u20$$u5b$T$u5d$$GT$3len17h3b47bcd937d27431E"([0 x i8]* noalias nonnull readonly align 1 %src.0, i64 %src.1), !dbg !783
  %_3 = icmp ne i64 %_4, %_6, !dbg !782
  br i1 %_3, label %bb3, label %bb4, !dbg !784

bb3:                                              ; preds = %start
; call core::slice::<impl [T]>::len
  %_8 = call i64 @"_ZN4core5slice29_$LT$impl$u20$$u5b$T$u5d$$GT$3len17h3b47bcd937d27431E"([0 x i8]* noalias nonnull readonly align 1 %self.0, i64 %self.1), !dbg !785
; call core::slice::<impl [T]>::len
  %_10 = call i64 @"_ZN4core5slice29_$LT$impl$u20$$u5b$T$u5d$$GT$3len17h3b47bcd937d27431E"([0 x i8]* noalias nonnull readonly align 1 %src.0, i64 %src.1), !dbg !786
; call core::slice::<impl [T]>::copy_from_slice::len_mismatch_fail
  call void @"_ZN4core5slice29_$LT$impl$u20$$u5b$T$u5d$$GT$15copy_from_slice17len_mismatch_fail17h7b96896d12c751c3E"(i64 %_8, i64 %_10, %"core::panic::Location"* noalias readonly align 8 dereferenceable(24) bitcast (<{ i8*, [16 x i8] }>* @alloc25 to %"core::panic::Location"*)), !dbg !787
  unreachable, !dbg !787

bb4:                                              ; preds = %start
; call core::slice::<impl [T]>::as_ptr
  %_13 = call i8* @"_ZN4core5slice29_$LT$impl$u20$$u5b$T$u5d$$GT$6as_ptr17h5b78458a47e2e20eE"([0 x i8]* noalias nonnull readonly align 1 %src.0, i64 %src.1), !dbg !788
; call core::slice::<impl [T]>::as_mut_ptr
  %_15 = call i8* @"_ZN4core5slice29_$LT$impl$u20$$u5b$T$u5d$$GT$10as_mut_ptr17hcdc367087dbca03bE"([0 x i8]* nonnull align 1 %self.0, i64 %self.1), !dbg !789
; call core::slice::<impl [T]>::len
  %_17 = call i64 @"_ZN4core5slice29_$LT$impl$u20$$u5b$T$u5d$$GT$3len17h3b47bcd937d27431E"([0 x i8]* noalias nonnull readonly align 1 %self.0, i64 %self.1), !dbg !790
; call core::intrinsics::copy_nonoverlapping
  call void @_ZN4core10intrinsics19copy_nonoverlapping17h52ad845747bdbd59E(i8* %_13, i8* %_15, i64 %_17), !dbg !791
  ret void, !dbg !792
}

; core::slice::<impl [T]>::swap
; Function Attrs: inlinehint nounwind nonlazybind
define internal void @"_ZN4core5slice29_$LT$impl$u20$$u5b$T$u5d$$GT$4swap17h9e836d928e236364E"([0 x i8]* nonnull align 1 %self.0, i64 %self.1, i64 %a, i64 %b) unnamed_addr #2 !dbg !793 {
start:
  %pb.dbg.spill = alloca i8*, align 8
  %pa.dbg.spill = alloca i8*, align 8
  %b.dbg.spill = alloca i64, align 8
  %a.dbg.spill = alloca i64, align 8
  %self.dbg.spill = alloca { [0 x i8]*, i64 }, align 8
  %0 = getelementptr inbounds { [0 x i8]*, i64 }, { [0 x i8]*, i64 }* %self.dbg.spill, i32 0, i32 0
  store [0 x i8]* %self.0, [0 x i8]** %0, align 8
  %1 = getelementptr inbounds { [0 x i8]*, i64 }, { [0 x i8]*, i64 }* %self.dbg.spill, i32 0, i32 1
  store i64 %self.1, i64* %1, align 8
  call void @llvm.dbg.declare(metadata { [0 x i8]*, i64 }* %self.dbg.spill, metadata !797, metadata !DIExpression()), !dbg !804
  store i64 %a, i64* %a.dbg.spill, align 8
  call void @llvm.dbg.declare(metadata i64* %a.dbg.spill, metadata !798, metadata !DIExpression()), !dbg !805
  store i64 %b, i64* %b.dbg.spill, align 8
  call void @llvm.dbg.declare(metadata i64* %b.dbg.spill, metadata !799, metadata !DIExpression()), !dbg !806
  %_7 = icmp ult i64 %a, %self.1, !dbg !807
  %2 = call i1 @llvm.expect.i1(i1 %_7, i1 true), !dbg !807
  br i1 %2, label %bb1, label %panic, !dbg !807

bb1:                                              ; preds = %start
  %pa = getelementptr inbounds [0 x i8], [0 x i8]* %self.0, i64 0, i64 %a, !dbg !808
  store i8* %pa, i8** %pa.dbg.spill, align 8, !dbg !808
  call void @llvm.dbg.declare(metadata i8** %pa.dbg.spill, metadata !800, metadata !DIExpression()), !dbg !809
  %_11 = icmp ult i64 %b, %self.1, !dbg !810
  %3 = call i1 @llvm.expect.i1(i1 %_11, i1 true), !dbg !810
  br i1 %3, label %bb2, label %panic1, !dbg !810

bb2:                                              ; preds = %bb1
  %pb = getelementptr inbounds [0 x i8], [0 x i8]* %self.0, i64 0, i64 %b, !dbg !811
  store i8* %pb, i8** %pb.dbg.spill, align 8, !dbg !811
  call void @llvm.dbg.declare(metadata i8** %pb.dbg.spill, metadata !802, metadata !DIExpression()), !dbg !812
; call core::ptr::swap
  call void @_ZN4core3ptr4swap17hb317dc7febc4ff88E(i8* %pa, i8* %pb), !dbg !813
  ret void, !dbg !814

panic:                                            ; preds = %start
; call core::panicking::panic_bounds_check
  call void @_ZN4core9panicking18panic_bounds_check17h16537cfb53a1364bE(i64 %a, i64 %self.1, %"core::panic::Location"* noalias readonly align 8 dereferenceable(24) bitcast (<{ i8*, [16 x i8] }>* @alloc27 to %"core::panic::Location"*)), !dbg !807
  unreachable, !dbg !807

panic1:                                           ; preds = %bb1
; call core::panicking::panic_bounds_check
  call void @_ZN4core9panicking18panic_bounds_check17h16537cfb53a1364bE(i64 %b, i64 %self.1, %"core::panic::Location"* noalias readonly align 8 dereferenceable(24) bitcast (<{ i8*, [16 x i8] }>* @alloc29 to %"core::panic::Location"*)), !dbg !810
  unreachable, !dbg !810
}

; core::slice::index::<impl core::ops::index::Index<I> for [T]>::index
; Function Attrs: inlinehint norecurse nounwind nonlazybind readnone
define internal { [0 x i8]*, i64 } @"_ZN4core5slice5index74_$LT$impl$u20$core..ops..index..Index$LT$I$GT$$u20$for$u20$$u5b$T$u5d$$GT$5index17h574fa5469c12d863E"([0 x i8]* noalias nonnull readonly align 1 %self.0, i64 %self.1, %"core::panic::Location"* noalias nocapture readonly align 8 dereferenceable(24) %0) unnamed_addr #1 !dbg !815 {
start:
  %index.dbg.spill = alloca %"core::ops::RangeFull", align 1
  %self.dbg.spill = alloca { [0 x i8]*, i64 }, align 8
  %1 = getelementptr inbounds { [0 x i8]*, i64 }, { [0 x i8]*, i64 }* %self.dbg.spill, i32 0, i32 0
  store [0 x i8]* %self.0, [0 x i8]** %1, align 8
  %2 = getelementptr inbounds { [0 x i8]*, i64 }, { [0 x i8]*, i64 }* %self.dbg.spill, i32 0, i32 1
  store i64 %self.1, i64* %2, align 8
  call void @llvm.dbg.declare(metadata { [0 x i8]*, i64 }* %self.dbg.spill, metadata !822, metadata !DIExpression()), !dbg !824
  call void @llvm.dbg.declare(metadata %"core::ops::RangeFull"* %index.dbg.spill, metadata !823, metadata !DIExpression()), !dbg !825
; call <core::ops::range::RangeFull as core::slice::index::SliceIndex<[T]>>::index
  %3 = call { [0 x i8]*, i64 } @"_ZN97_$LT$core..ops..range..RangeFull$u20$as$u20$core..slice..index..SliceIndex$LT$$u5b$T$u5d$$GT$$GT$5index17hebe418d6baf318ffE"([0 x i8]* noalias nonnull readonly align 1 %self.0, i64 %self.1, %"core::panic::Location"* noalias readonly align 8 dereferenceable(24) %0), !dbg !826
  %4 = extractvalue { [0 x i8]*, i64 } %3, 0, !dbg !826
  %5 = extractvalue { [0 x i8]*, i64 } %3, 1, !dbg !826
  %6 = insertvalue { [0 x i8]*, i64 } undef, [0 x i8]* %4, 0, !dbg !827
  %7 = insertvalue { [0 x i8]*, i64 } %6, i64 %5, 1, !dbg !827
  ret { [0 x i8]*, i64 } %7, !dbg !827
}

; <I as core::iter::traits::collect::IntoIterator>::into_iter
; Function Attrs: norecurse nounwind nonlazybind readnone
define internal { i64, i64 } @"_ZN63_$LT$I$u20$as$u20$core..iter..traits..collect..IntoIterator$GT$9into_iter17h560171c56abb1cceE"(i64 %self.0, i64 %self.1) unnamed_addr #4 !dbg !828 {
start:
  %self.dbg.spill = alloca { i64, i64 }, align 8
  %0 = getelementptr inbounds { i64, i64 }, { i64, i64 }* %self.dbg.spill, i32 0, i32 0
  store i64 %self.0, i64* %0, align 8
  %1 = getelementptr inbounds { i64, i64 }, { i64, i64 }* %self.dbg.spill, i32 0, i32 1
  store i64 %self.1, i64* %1, align 8
  call void @llvm.dbg.declare(metadata { i64, i64 }* %self.dbg.spill, metadata !836, metadata !DIExpression()), !dbg !839
  %2 = insertvalue { i64, i64 } undef, i64 %self.0, 0, !dbg !840
  %3 = insertvalue { i64, i64 } %2, i64 %self.1, 1, !dbg !840
  ret { i64, i64 } %3, !dbg !840
}

; <core::ops::range::RangeFull as core::slice::index::SliceIndex<[T]>>::index
; Function Attrs: inlinehint norecurse nounwind nonlazybind readnone
define internal { [0 x i8]*, i64 } @"_ZN97_$LT$core..ops..range..RangeFull$u20$as$u20$core..slice..index..SliceIndex$LT$$u5b$T$u5d$$GT$$GT$5index17hebe418d6baf318ffE"([0 x i8]* noalias nonnull readonly align 1 %slice.0, i64 %slice.1, %"core::panic::Location"* noalias nocapture readonly align 8 dereferenceable(24) %0) unnamed_addr #1 !dbg !841 {
start:
  %slice.dbg.spill = alloca { [0 x i8]*, i64 }, align 8
  %self.dbg.spill = alloca %"core::ops::RangeFull", align 1
  call void @llvm.dbg.declare(metadata %"core::ops::RangeFull"* %self.dbg.spill, metadata !845, metadata !DIExpression()), !dbg !847
  %1 = getelementptr inbounds { [0 x i8]*, i64 }, { [0 x i8]*, i64 }* %slice.dbg.spill, i32 0, i32 0
  store [0 x i8]* %slice.0, [0 x i8]** %1, align 8
  %2 = getelementptr inbounds { [0 x i8]*, i64 }, { [0 x i8]*, i64 }* %slice.dbg.spill, i32 0, i32 1
  store i64 %slice.1, i64* %2, align 8
  call void @llvm.dbg.declare(metadata { [0 x i8]*, i64 }* %slice.dbg.spill, metadata !846, metadata !DIExpression()), !dbg !848
  %3 = insertvalue { [0 x i8]*, i64 } undef, [0 x i8]* %slice.0, 0, !dbg !849
  %4 = insertvalue { [0 x i8]*, i64 } %3, i64 %slice.1, 1, !dbg !849
  ret { [0 x i8]*, i64 } %4, !dbg !849
}

; cstr_core::CStr::from_bytes_with_nul_unchecked
; Function Attrs: inlinehint norecurse nounwind nonlazybind readnone
define internal { %"klee_sys::CStr"*, i64 } @_ZN9cstr_core4CStr29from_bytes_with_nul_unchecked17h37e0bfecc7c843b7E([0 x i8]* noalias nonnull readonly align 1 %bytes.0, i64 %bytes.1) unnamed_addr #1 !dbg !850 {
start:
  %bytes.dbg.spill = alloca { [0 x i8]*, i64 }, align 8
  %0 = getelementptr inbounds { [0 x i8]*, i64 }, { [0 x i8]*, i64 }* %bytes.dbg.spill, i32 0, i32 0
  store [0 x i8]* %bytes.0, [0 x i8]** %0, align 8
  %1 = getelementptr inbounds { [0 x i8]*, i64 }, { [0 x i8]*, i64 }* %bytes.dbg.spill, i32 0, i32 1
  store i64 %bytes.1, i64* %1, align 8
  call void @llvm.dbg.declare(metadata { [0 x i8]*, i64 }* %bytes.dbg.spill, metadata !862, metadata !DIExpression()), !dbg !863
  %_2.0 = bitcast [0 x i8]* %bytes.0 to %"klee_sys::CStr"*, !dbg !864
  %2 = insertvalue { %"klee_sys::CStr"*, i64 } undef, %"klee_sys::CStr"* %_2.0, 0, !dbg !865
  %3 = insertvalue { %"klee_sys::CStr"*, i64 } %2, i64 %bytes.1, 1, !dbg !865
  ret { %"klee_sys::CStr"*, i64 } %3, !dbg !865
}

; cstr_core::CStr::as_ptr
; Function Attrs: inlinehint norecurse nounwind nonlazybind readnone
define internal nonnull i8* @_ZN9cstr_core4CStr6as_ptr17hd766bcf018ac05bdE(%"klee_sys::CStr"* noalias nonnull readonly align 1 %self.0, i64 %self.1) unnamed_addr #1 !dbg !866 {
start:
  %self.dbg.spill = alloca { %"klee_sys::CStr"*, i64 }, align 8
  %0 = getelementptr inbounds { %"klee_sys::CStr"*, i64 }, { %"klee_sys::CStr"*, i64 }* %self.dbg.spill, i32 0, i32 0
  store %"klee_sys::CStr"* %self.0, %"klee_sys::CStr"** %0, align 8
  %1 = getelementptr inbounds { %"klee_sys::CStr"*, i64 }, { %"klee_sys::CStr"*, i64 }* %self.dbg.spill, i32 0, i32 1
  store i64 %self.1, i64* %1, align 8
  call void @llvm.dbg.declare(metadata { %"klee_sys::CStr"*, i64 }* %self.dbg.spill, metadata !871, metadata !DIExpression()), !dbg !872
  %_2.0 = bitcast %"klee_sys::CStr"* %self.0 to [0 x i8]*, !dbg !873
; call core::slice::<impl [T]>::as_ptr
  %2 = call i8* @"_ZN4core5slice29_$LT$impl$u20$$u5b$T$u5d$$GT$6as_ptr17h3e32bddb1561f66bE"([0 x i8]* noalias nonnull readonly align 1 %_2.0, i64 %self.1), !dbg !873
  ret i8* %2, !dbg !874
}

; sort::bubble_sort
; Function Attrs: nounwind nonlazybind
define internal void @_ZN4sort11bubble_sort17hffcc5208c612b120E([0 x i8]* nonnull align 1 %arr.0, i64 %arr.1) unnamed_addr #0 !dbg !875 {
start:
  %j.dbg.spill = alloca i64, align 8
  %__next.dbg.spill5 = alloca i64, align 8
  %val.dbg.spill4 = alloca i64, align 8
  %i.dbg.spill = alloca i64, align 8
  %__next.dbg.spill = alloca i64, align 8
  %val.dbg.spill = alloca i64, align 8
  %arr.dbg.spill = alloca { [0 x i8]*, i64 }, align 8
  %_26 = alloca { i64, i64 }, align 8
  %iter1 = alloca { i64, i64 }, align 8
  %_16 = alloca { i64, i64 }, align 8
  %_8 = alloca { i64, i64 }, align 8
  %iter = alloca { i64, i64 }, align 8
  %_3 = alloca { i64, i64 }, align 8
  %0 = getelementptr inbounds { [0 x i8]*, i64 }, { [0 x i8]*, i64 }* %arr.dbg.spill, i32 0, i32 0
  store [0 x i8]* %arr.0, [0 x i8]** %0, align 8
  %1 = getelementptr inbounds { [0 x i8]*, i64 }, { [0 x i8]*, i64 }* %arr.dbg.spill, i32 0, i32 1
  store i64 %arr.1, i64* %1, align 8
  call void @llvm.dbg.declare(metadata { [0 x i8]*, i64 }* %arr.dbg.spill, metadata !881, metadata !DIExpression()), !dbg !898
  call void @llvm.dbg.declare(metadata { i64, i64 }* %iter, metadata !882, metadata !DIExpression()), !dbg !899
  call void @llvm.dbg.declare(metadata { i64, i64 }* %iter1, metadata !890, metadata !DIExpression()), !dbg !900
; call core::slice::<impl [T]>::len
  %_4 = call i64 @"_ZN4core5slice29_$LT$impl$u20$$u5b$T$u5d$$GT$3len17h3b47bcd937d27431E"([0 x i8]* noalias nonnull readonly align 1 %arr.0, i64 %arr.1), !dbg !901
  %2 = bitcast { i64, i64 }* %_3 to i64*, !dbg !902
  store i64 0, i64* %2, align 8, !dbg !902
  %3 = getelementptr inbounds { i64, i64 }, { i64, i64 }* %_3, i32 0, i32 1, !dbg !902
  store i64 %_4, i64* %3, align 8, !dbg !902
  %4 = getelementptr inbounds { i64, i64 }, { i64, i64 }* %_3, i32 0, i32 0, !dbg !902
  %5 = load i64, i64* %4, align 8, !dbg !902
  %6 = getelementptr inbounds { i64, i64 }, { i64, i64 }* %_3, i32 0, i32 1, !dbg !902
  %7 = load i64, i64* %6, align 8, !dbg !902
; call <I as core::iter::traits::collect::IntoIterator>::into_iter
  %8 = call { i64, i64 } @"_ZN63_$LT$I$u20$as$u20$core..iter..traits..collect..IntoIterator$GT$9into_iter17h560171c56abb1cceE"(i64 %5, i64 %7), !dbg !902
  %_2.0 = extractvalue { i64, i64 } %8, 0, !dbg !902
  %_2.1 = extractvalue { i64, i64 } %8, 1, !dbg !902
  %9 = getelementptr inbounds { i64, i64 }, { i64, i64 }* %iter, i32 0, i32 0, !dbg !902
  store i64 %_2.0, i64* %9, align 8, !dbg !902
  %10 = getelementptr inbounds { i64, i64 }, { i64, i64 }* %iter, i32 0, i32 1, !dbg !902
  store i64 %_2.1, i64* %10, align 8, !dbg !902
  br label %bb3, !dbg !903

bb3:                                              ; preds = %bb12, %start
; call core::iter::range::<impl core::iter::traits::iterator::Iterator for core::ops::range::Range<A>>::next
  %11 = call { i64, i64 } @"_ZN4core4iter5range101_$LT$impl$u20$core..iter..traits..iterator..Iterator$u20$for$u20$core..ops..range..Range$LT$A$GT$$GT$4next17h066a0d3805b672b9E"({ i64, i64 }* align 8 dereferenceable(16) %iter), !dbg !904
  store { i64, i64 } %11, { i64, i64 }* %_8, align 8, !dbg !904
  %12 = bitcast { i64, i64 }* %_8 to i64*, !dbg !905
  %_11 = load i64, i64* %12, align 8, !dbg !905, !range !692
  %switch = icmp ult i64 %_11, 1, !dbg !905
  br i1 %switch, label %bb5, label %bb7, !dbg !905

bb5:                                              ; preds = %bb3
  ret void, !dbg !906

bb7:                                              ; preds = %bb3
  %13 = bitcast { i64, i64 }* %_8 to %"core::option::Option<usize>::Some"*, !dbg !905
  %14 = getelementptr inbounds %"core::option::Option<usize>::Some", %"core::option::Option<usize>::Some"* %13, i32 0, i32 1, !dbg !905
  %val = load i64, i64* %14, align 8, !dbg !905
  store i64 %val, i64* %val.dbg.spill, align 8, !dbg !905
  call void @llvm.dbg.declare(metadata i64* %val.dbg.spill, metadata !886, metadata !DIExpression()), !dbg !907
  store i64 %val, i64* %__next.dbg.spill, align 8, !dbg !907
  call void @llvm.dbg.declare(metadata i64* %__next.dbg.spill, metadata !884, metadata !DIExpression()), !dbg !904
  store i64 %val, i64* %i.dbg.spill, align 8, !dbg !904
  call void @llvm.dbg.declare(metadata i64* %i.dbg.spill, metadata !888, metadata !DIExpression()), !dbg !908
; call core::slice::<impl [T]>::len
  %_19 = call i64 @"_ZN4core5slice29_$LT$impl$u20$$u5b$T$u5d$$GT$3len17h3b47bcd937d27431E"([0 x i8]* noalias nonnull readonly align 1 %arr.0, i64 %arr.1), !dbg !909
  %15 = call { i64, i1 } @llvm.usub.with.overflow.i64(i64 %_19, i64 1), !dbg !909
  %_21.0 = extractvalue { i64, i1 } %15, 0, !dbg !909
  %_21.1 = extractvalue { i64, i1 } %15, 1, !dbg !909
  %16 = call i1 @llvm.expect.i1(i1 %_21.1, i1 false), !dbg !909
  br i1 %16, label %panic, label %bb9, !dbg !909

bb9:                                              ; preds = %bb7
  %17 = call { i64, i1 } @llvm.usub.with.overflow.i64(i64 %_21.0, i64 %val), !dbg !909
  %_23.0 = extractvalue { i64, i1 } %17, 0, !dbg !909
  %_23.1 = extractvalue { i64, i1 } %17, 1, !dbg !909
  %18 = call i1 @llvm.expect.i1(i1 %_23.1, i1 false), !dbg !909
  br i1 %18, label %panic2, label %bb10, !dbg !909

bb10:                                             ; preds = %bb9
  %19 = bitcast { i64, i64 }* %_16 to i64*, !dbg !910
  store i64 0, i64* %19, align 8, !dbg !910
  %20 = getelementptr inbounds { i64, i64 }, { i64, i64 }* %_16, i32 0, i32 1, !dbg !910
  store i64 %_23.0, i64* %20, align 8, !dbg !910
  %21 = getelementptr inbounds { i64, i64 }, { i64, i64 }* %_16, i32 0, i32 0, !dbg !910
  %22 = load i64, i64* %21, align 8, !dbg !910
  %23 = getelementptr inbounds { i64, i64 }, { i64, i64 }* %_16, i32 0, i32 1, !dbg !910
  %24 = load i64, i64* %23, align 8, !dbg !910
; call <I as core::iter::traits::collect::IntoIterator>::into_iter
  %25 = call { i64, i64 } @"_ZN63_$LT$I$u20$as$u20$core..iter..traits..collect..IntoIterator$GT$9into_iter17h560171c56abb1cceE"(i64 %22, i64 %24), !dbg !910
  %_15.0 = extractvalue { i64, i64 } %25, 0, !dbg !910
  %_15.1 = extractvalue { i64, i64 } %25, 1, !dbg !910
  %26 = getelementptr inbounds { i64, i64 }, { i64, i64 }* %iter1, i32 0, i32 0, !dbg !910
  store i64 %_15.0, i64* %26, align 8, !dbg !910
  %27 = getelementptr inbounds { i64, i64 }, { i64, i64 }* %iter1, i32 0, i32 1, !dbg !910
  store i64 %_15.1, i64* %27, align 8, !dbg !910
  br label %bb12, !dbg !911

bb12:                                             ; preds = %bb25, %bb10
; call core::iter::range::<impl core::iter::traits::iterator::Iterator for core::ops::range::Range<A>>::next
  %28 = call { i64, i64 } @"_ZN4core4iter5range101_$LT$impl$u20$core..iter..traits..iterator..Iterator$u20$for$u20$core..ops..range..Range$LT$A$GT$$GT$4next17h066a0d3805b672b9E"({ i64, i64 }* align 8 dereferenceable(16) %iter1), !dbg !912
  store { i64, i64 } %28, { i64, i64 }* %_26, align 8, !dbg !912
  %29 = bitcast { i64, i64 }* %_26 to i64*, !dbg !913
  %_29 = load i64, i64* %29, align 8, !dbg !913, !range !692
  %switch11 = icmp ult i64 %_29, 1, !dbg !913
  br i1 %switch11, label %bb3, label %bb16, !dbg !913

bb16:                                             ; preds = %bb12
  %30 = bitcast { i64, i64 }* %_26 to %"core::option::Option<usize>::Some"*, !dbg !913
  %31 = getelementptr inbounds %"core::option::Option<usize>::Some", %"core::option::Option<usize>::Some"* %30, i32 0, i32 1, !dbg !913
  %val3 = load i64, i64* %31, align 8, !dbg !913
  store i64 %val3, i64* %val.dbg.spill4, align 8, !dbg !913
  call void @llvm.dbg.declare(metadata i64* %val.dbg.spill4, metadata !894, metadata !DIExpression()), !dbg !914
  store i64 %val3, i64* %__next.dbg.spill5, align 8, !dbg !914
  call void @llvm.dbg.declare(metadata i64* %__next.dbg.spill5, metadata !892, metadata !DIExpression()), !dbg !912
  store i64 %val3, i64* %j.dbg.spill, align 8, !dbg !912
  call void @llvm.dbg.declare(metadata i64* %j.dbg.spill, metadata !896, metadata !DIExpression()), !dbg !915
  %_37 = icmp ult i64 %val3, %arr.1, !dbg !916
  %32 = call i1 @llvm.expect.i1(i1 %_37, i1 true), !dbg !916
  br i1 %32, label %bb17, label %panic6, !dbg !916

bb17:                                             ; preds = %bb16
  %_34 = getelementptr inbounds [0 x i8], [0 x i8]* %arr.0, i64 0, i64 %val3, !dbg !916
  %33 = call { i64, i1 } @llvm.uadd.with.overflow.i64(i64 %val3, i64 1), !dbg !917
  %_41.0 = extractvalue { i64, i1 } %33, 0, !dbg !917
  %_41.1 = extractvalue { i64, i1 } %33, 1, !dbg !917
  %34 = call i1 @llvm.expect.i1(i1 %_41.1, i1 false), !dbg !917
  br i1 %34, label %panic7, label %bb18, !dbg !917

bb18:                                             ; preds = %bb17
  %_43 = icmp ult i64 %_41.0, %arr.1, !dbg !918
  %35 = call i1 @llvm.expect.i1(i1 %_43, i1 true), !dbg !918
  br i1 %35, label %bb19, label %panic8, !dbg !918

bb19:                                             ; preds = %bb18
  %_38 = getelementptr inbounds [0 x i8], [0 x i8]* %arr.0, i64 0, i64 %_41.0, !dbg !918
; call core::cmp::impls::<impl core::cmp::PartialOrd for u8>::gt
  %_33 = call zeroext i1 @"_ZN4core3cmp5impls54_$LT$impl$u20$core..cmp..PartialOrd$u20$for$u20$u8$GT$2gt17h8075cedc18da1d31E"(i8* noalias readonly align 1 dereferenceable(1) %_34, i8* noalias readonly align 1 dereferenceable(1) %_38), !dbg !916
  br i1 %_33, label %bb21, label %bb25, !dbg !919

bb21:                                             ; preds = %bb19
  %36 = call { i64, i1 } @llvm.uadd.with.overflow.i64(i64 %val3, i64 1), !dbg !920
  %_49.0 = extractvalue { i64, i1 } %36, 0, !dbg !920
  %_49.1 = extractvalue { i64, i1 } %36, 1, !dbg !920
  %37 = call i1 @llvm.expect.i1(i1 %_49.1, i1 false), !dbg !920
  br i1 %37, label %panic9, label %bb23, !dbg !920

bb23:                                             ; preds = %bb21
; call core::slice::<impl [T]>::swap
  call void @"_ZN4core5slice29_$LT$impl$u20$$u5b$T$u5d$$GT$4swap17h9e836d928e236364E"([0 x i8]* nonnull align 1 %arr.0, i64 %arr.1, i64 %val3, i64 %_49.0), !dbg !921
  br label %bb25, !dbg !919

bb25:                                             ; preds = %bb19, %bb23
  br label %bb12, !dbg !911

panic:                                            ; preds = %bb7
; call core::panicking::panic
  call void @_ZN4core9panicking5panic17h07405d6be4bce887E([0 x i8]* noalias nonnull readonly align 1 bitcast ([33 x i8]* @str.0 to [0 x i8]*), i64 33, %"core::panic::Location"* noalias readonly align 8 dereferenceable(24) bitcast (<{ i8*, [16 x i8] }>* @alloc31 to %"core::panic::Location"*)), !dbg !909
  unreachable, !dbg !909

panic2:                                           ; preds = %bb9
; call core::panicking::panic
  call void @_ZN4core9panicking5panic17h07405d6be4bce887E([0 x i8]* noalias nonnull readonly align 1 bitcast ([33 x i8]* @str.0 to [0 x i8]*), i64 33, %"core::panic::Location"* noalias readonly align 8 dereferenceable(24) bitcast (<{ i8*, [16 x i8] }>* @alloc31 to %"core::panic::Location"*)), !dbg !909
  unreachable, !dbg !909

panic6:                                           ; preds = %bb16
; call core::panicking::panic_bounds_check
  call void @_ZN4core9panicking18panic_bounds_check17h16537cfb53a1364bE(i64 %val3, i64 %arr.1, %"core::panic::Location"* noalias readonly align 8 dereferenceable(24) bitcast (<{ i8*, [16 x i8] }>* @alloc33 to %"core::panic::Location"*)), !dbg !916
  unreachable, !dbg !916

panic7:                                           ; preds = %bb17
; call core::panicking::panic
  call void @_ZN4core9panicking5panic17h07405d6be4bce887E([0 x i8]* noalias nonnull readonly align 1 bitcast ([28 x i8]* @str.1 to [0 x i8]*), i64 28, %"core::panic::Location"* noalias readonly align 8 dereferenceable(24) bitcast (<{ i8*, [16 x i8] }>* @alloc35 to %"core::panic::Location"*)), !dbg !917
  unreachable, !dbg !917

panic8:                                           ; preds = %bb18
; call core::panicking::panic_bounds_check
  call void @_ZN4core9panicking18panic_bounds_check17h16537cfb53a1364bE(i64 %_41.0, i64 %arr.1, %"core::panic::Location"* noalias readonly align 8 dereferenceable(24) bitcast (<{ i8*, [16 x i8] }>* @alloc37 to %"core::panic::Location"*)), !dbg !918
  unreachable, !dbg !918

panic9:                                           ; preds = %bb21
; call core::panicking::panic
  call void @_ZN4core9panicking5panic17h07405d6be4bce887E([0 x i8]* noalias nonnull readonly align 1 bitcast ([28 x i8]* @str.1 to [0 x i8]*), i64 28, %"core::panic::Location"* noalias readonly align 8 dereferenceable(24) bitcast (<{ i8*, [16 x i8] }>* @alloc39 to %"core::panic::Location"*)), !dbg !920
  unreachable, !dbg !920
}

; sort::insertion_sort
; Function Attrs: nounwind nonlazybind
define internal void @_ZN4sort14insertion_sort17h1f3221366b45c4deE([0 x i8]* nonnull align 1 %arr.0, i64 %arr.1) unnamed_addr #0 !dbg !922 {
start:
  %i.dbg.spill = alloca i64, align 8
  %__next.dbg.spill = alloca i64, align 8
  %val.dbg.spill = alloca i64, align 8
  %arr.dbg.spill = alloca { [0 x i8]*, i64 }, align 8
  %_16 = alloca i8, align 1
  %j = alloca i64, align 8
  %_8 = alloca { i64, i64 }, align 8
  %iter = alloca { i64, i64 }, align 8
  %_3 = alloca { i64, i64 }, align 8
  %0 = getelementptr inbounds { [0 x i8]*, i64 }, { [0 x i8]*, i64 }* %arr.dbg.spill, i32 0, i32 0
  store [0 x i8]* %arr.0, [0 x i8]** %0, align 8
  %1 = getelementptr inbounds { [0 x i8]*, i64 }, { [0 x i8]*, i64 }* %arr.dbg.spill, i32 0, i32 1
  store i64 %arr.1, i64* %1, align 8
  call void @llvm.dbg.declare(metadata { [0 x i8]*, i64 }* %arr.dbg.spill, metadata !924, metadata !DIExpression()), !dbg !935
  call void @llvm.dbg.declare(metadata { i64, i64 }* %iter, metadata !925, metadata !DIExpression()), !dbg !936
  call void @llvm.dbg.declare(metadata i64* %j, metadata !933, metadata !DIExpression()), !dbg !937
; call core::slice::<impl [T]>::len
  %_4 = call i64 @"_ZN4core5slice29_$LT$impl$u20$$u5b$T$u5d$$GT$3len17h3b47bcd937d27431E"([0 x i8]* noalias nonnull readonly align 1 %arr.0, i64 %arr.1), !dbg !938
  %2 = bitcast { i64, i64 }* %_3 to i64*, !dbg !939
  store i64 1, i64* %2, align 8, !dbg !939
  %3 = getelementptr inbounds { i64, i64 }, { i64, i64 }* %_3, i32 0, i32 1, !dbg !939
  store i64 %_4, i64* %3, align 8, !dbg !939
  %4 = getelementptr inbounds { i64, i64 }, { i64, i64 }* %_3, i32 0, i32 0, !dbg !939
  %5 = load i64, i64* %4, align 8, !dbg !939
  %6 = getelementptr inbounds { i64, i64 }, { i64, i64 }* %_3, i32 0, i32 1, !dbg !939
  %7 = load i64, i64* %6, align 8, !dbg !939
; call <I as core::iter::traits::collect::IntoIterator>::into_iter
  %8 = call { i64, i64 } @"_ZN63_$LT$I$u20$as$u20$core..iter..traits..collect..IntoIterator$GT$9into_iter17h560171c56abb1cceE"(i64 %5, i64 %7), !dbg !939
  %_2.0 = extractvalue { i64, i64 } %8, 0, !dbg !939
  %_2.1 = extractvalue { i64, i64 } %8, 1, !dbg !939
  %9 = getelementptr inbounds { i64, i64 }, { i64, i64 }* %iter, i32 0, i32 0, !dbg !939
  store i64 %_2.0, i64* %9, align 8, !dbg !939
  %10 = getelementptr inbounds { i64, i64 }, { i64, i64 }* %iter, i32 0, i32 1, !dbg !939
  store i64 %_2.1, i64* %10, align 8, !dbg !939
  br label %bb3, !dbg !940

bb3:                                              ; preds = %bb12, %start
; call core::iter::range::<impl core::iter::traits::iterator::Iterator for core::ops::range::Range<A>>::next
  %11 = call { i64, i64 } @"_ZN4core4iter5range101_$LT$impl$u20$core..iter..traits..iterator..Iterator$u20$for$u20$core..ops..range..Range$LT$A$GT$$GT$4next17h066a0d3805b672b9E"({ i64, i64 }* align 8 dereferenceable(16) %iter), !dbg !941
  store { i64, i64 } %11, { i64, i64 }* %_8, align 8, !dbg !941
  %12 = bitcast { i64, i64 }* %_8 to i64*, !dbg !942
  %_11 = load i64, i64* %12, align 8, !dbg !942, !range !692
  %switch = icmp ult i64 %_11, 1, !dbg !942
  br i1 %switch, label %bb5, label %bb7, !dbg !942

bb5:                                              ; preds = %bb3
  ret void, !dbg !943

bb7:                                              ; preds = %bb3
  %13 = bitcast { i64, i64 }* %_8 to %"core::option::Option<usize>::Some"*, !dbg !942
  %14 = getelementptr inbounds %"core::option::Option<usize>::Some", %"core::option::Option<usize>::Some"* %13, i32 0, i32 1, !dbg !942
  %val = load i64, i64* %14, align 8, !dbg !942
  store i64 %val, i64* %val.dbg.spill, align 8, !dbg !942
  call void @llvm.dbg.declare(metadata i64* %val.dbg.spill, metadata !929, metadata !DIExpression()), !dbg !944
  store i64 %val, i64* %__next.dbg.spill, align 8, !dbg !944
  call void @llvm.dbg.declare(metadata i64* %__next.dbg.spill, metadata !927, metadata !DIExpression()), !dbg !941
  store i64 %val, i64* %i.dbg.spill, align 8, !dbg !941
  call void @llvm.dbg.declare(metadata i64* %i.dbg.spill, metadata !931, metadata !DIExpression()), !dbg !945
  store i64 %val, i64* %j, align 8, !dbg !946
  br label %bb8, !dbg !947

bb8:                                              ; preds = %bb21, %bb7
  %_18 = load i64, i64* %j, align 8, !dbg !948
  %_17 = icmp ugt i64 %_18, 0, !dbg !948
  br i1 %_17, label %bb11, label %bb10, !dbg !948

bb9:                                              ; preds = %bb15
  store i8 1, i8* %_16, align 1, !dbg !948
  br label %bb12, !dbg !948

bb10:                                             ; preds = %bb15, %bb8
  store i8 0, i8* %_16, align 1, !dbg !948
  br label %bb12, !dbg !948

bb11:                                             ; preds = %bb8
  %_21 = load i64, i64* %j, align 8, !dbg !949
  %_23 = icmp ult i64 %_21, %arr.1, !dbg !950
  %15 = call i1 @llvm.expect.i1(i1 %_23, i1 true), !dbg !950
  br i1 %15, label %bb13, label %panic, !dbg !950

bb12:                                             ; preds = %bb10, %bb9
  %16 = load i8, i8* %_16, align 1, !dbg !947, !range !951
  %17 = trunc i8 %16 to i1, !dbg !947
  br i1 %17, label %bb18, label %bb3, !dbg !947

bb13:                                             ; preds = %bb11
  %_20 = getelementptr inbounds [0 x i8], [0 x i8]* %arr.0, i64 0, i64 %_21, !dbg !950
  %_26 = load i64, i64* %j, align 8, !dbg !952
  %18 = call { i64, i1 } @llvm.usub.with.overflow.i64(i64 %_26, i64 1), !dbg !952
  %_27.0 = extractvalue { i64, i1 } %18, 0, !dbg !952
  %_27.1 = extractvalue { i64, i1 } %18, 1, !dbg !952
  %19 = call i1 @llvm.expect.i1(i1 %_27.1, i1 false), !dbg !952
  br i1 %19, label %panic1, label %bb14, !dbg !952

bb14:                                             ; preds = %bb13
  %_29 = icmp ult i64 %_27.0, %arr.1, !dbg !953
  %20 = call i1 @llvm.expect.i1(i1 %_29, i1 true), !dbg !953
  br i1 %20, label %bb15, label %panic2, !dbg !953

bb15:                                             ; preds = %bb14
  %_24 = getelementptr inbounds [0 x i8], [0 x i8]* %arr.0, i64 0, i64 %_27.0, !dbg !953
; call core::cmp::impls::<impl core::cmp::PartialOrd for u8>::lt
  %_19 = call zeroext i1 @"_ZN4core3cmp5impls54_$LT$impl$u20$core..cmp..PartialOrd$u20$for$u20$u8$GT$2lt17h2f775de59601301dE"(i8* noalias readonly align 1 dereferenceable(1) %_20, i8* noalias readonly align 1 dereferenceable(1) %_24), !dbg !950
  br i1 %_19, label %bb9, label %bb10, !dbg !948

bb18:                                             ; preds = %bb12
  %_32 = load i64, i64* %j, align 8, !dbg !954
  %_34 = load i64, i64* %j, align 8, !dbg !955
  %21 = call { i64, i1 } @llvm.usub.with.overflow.i64(i64 %_34, i64 1), !dbg !955
  %_35.0 = extractvalue { i64, i1 } %21, 0, !dbg !955
  %_35.1 = extractvalue { i64, i1 } %21, 1, !dbg !955
  %22 = call i1 @llvm.expect.i1(i1 %_35.1, i1 false), !dbg !955
  br i1 %22, label %panic3, label %bb19, !dbg !955

bb19:                                             ; preds = %bb18
; call core::slice::<impl [T]>::swap
  call void @"_ZN4core5slice29_$LT$impl$u20$$u5b$T$u5d$$GT$4swap17h9e836d928e236364E"([0 x i8]* nonnull align 1 %arr.0, i64 %arr.1, i64 %_32, i64 %_35.0), !dbg !956
  %_36 = load i64, i64* %j, align 8, !dbg !957
  %23 = call { i64, i1 } @llvm.usub.with.overflow.i64(i64 %_36, i64 1), !dbg !957
  %_37.0 = extractvalue { i64, i1 } %23, 0, !dbg !957
  %_37.1 = extractvalue { i64, i1 } %23, 1, !dbg !957
  %24 = call i1 @llvm.expect.i1(i1 %_37.1, i1 false), !dbg !957
  br i1 %24, label %panic4, label %bb21, !dbg !957

bb21:                                             ; preds = %bb19
  store i64 %_37.0, i64* %j, align 8, !dbg !958
  br label %bb8, !dbg !947

panic:                                            ; preds = %bb11
; call core::panicking::panic_bounds_check
  call void @_ZN4core9panicking18panic_bounds_check17h16537cfb53a1364bE(i64 %_21, i64 %arr.1, %"core::panic::Location"* noalias readonly align 8 dereferenceable(24) bitcast (<{ i8*, [16 x i8] }>* @alloc41 to %"core::panic::Location"*)), !dbg !950
  unreachable, !dbg !950

panic1:                                           ; preds = %bb13
; call core::panicking::panic
  call void @_ZN4core9panicking5panic17h07405d6be4bce887E([0 x i8]* noalias nonnull readonly align 1 bitcast ([33 x i8]* @str.0 to [0 x i8]*), i64 33, %"core::panic::Location"* noalias readonly align 8 dereferenceable(24) bitcast (<{ i8*, [16 x i8] }>* @alloc43 to %"core::panic::Location"*)), !dbg !952
  unreachable, !dbg !952

panic2:                                           ; preds = %bb14
; call core::panicking::panic_bounds_check
  call void @_ZN4core9panicking18panic_bounds_check17h16537cfb53a1364bE(i64 %_27.0, i64 %arr.1, %"core::panic::Location"* noalias readonly align 8 dereferenceable(24) bitcast (<{ i8*, [16 x i8] }>* @alloc45 to %"core::panic::Location"*)), !dbg !953
  unreachable, !dbg !953

panic3:                                           ; preds = %bb18
; call core::panicking::panic
  call void @_ZN4core9panicking5panic17h07405d6be4bce887E([0 x i8]* noalias nonnull readonly align 1 bitcast ([33 x i8]* @str.0 to [0 x i8]*), i64 33, %"core::panic::Location"* noalias readonly align 8 dereferenceable(24) bitcast (<{ i8*, [16 x i8] }>* @alloc47 to %"core::panic::Location"*)), !dbg !955
  unreachable, !dbg !955

panic4:                                           ; preds = %bb19
; call core::panicking::panic
  call void @_ZN4core9panicking5panic17h07405d6be4bce887E([0 x i8]* noalias nonnull readonly align 1 bitcast ([33 x i8]* @str.0 to [0 x i8]*), i64 33, %"core::panic::Location"* noalias readonly align 8 dereferenceable(24) bitcast (<{ i8*, [16 x i8] }>* @alloc49 to %"core::panic::Location"*)), !dbg !957
  unreachable, !dbg !957
}

; sort::sort_test
; Function Attrs: nounwind nonlazybind
define internal void @_ZN4sort9sort_test17hecf0034ccad66e53E([0 x i8]* nonnull align 1 %arr.0, i64 %arr.1) unnamed_addr #0 !dbg !959 {
start:
  %arg1.dbg.spill = alloca [4 x i8]**, align 8
  %arg0.dbg.spill = alloca [4 x i8]**, align 8
  %right_val.dbg.spill = alloca [4 x i8]*, align 8
  %left_val.dbg.spill = alloca [4 x i8]*, align 8
  %arr.dbg.spill = alloca { [0 x i8]*, i64 }, align 8
  %_72 = alloca [4 x i8]*, align 8
  %_70 = alloca [4 x i8]*, align 8
  %_68 = alloca { i64*, i64* }, align 8
  %_67 = alloca [2 x { i8*, i64* }], align 8
  %_60 = alloca %"core::fmt::Arguments", align 8
  %_51 = alloca { i8*, i8* }, align 8
  %_42 = alloca i64, align 8
  %num_insert = alloca [4 x i8], align 1
  %_33 = alloca i64, align 8
  %num_bubble = alloca [4 x i8], align 1
  %_4 = alloca i8, align 1
  %_3 = alloca i8, align 1
  %_2 = alloca i8, align 1
  %0 = alloca {}, align 1
  %1 = getelementptr inbounds { [0 x i8]*, i64 }, { [0 x i8]*, i64 }* %arr.dbg.spill, i32 0, i32 0
  store [0 x i8]* %arr.0, [0 x i8]** %1, align 8
  %2 = getelementptr inbounds { [0 x i8]*, i64 }, { [0 x i8]*, i64 }* %arr.dbg.spill, i32 0, i32 1
  store i64 %arr.1, i64* %2, align 8
  call void @llvm.dbg.declare(metadata { [0 x i8]*, i64 }* %arr.dbg.spill, metadata !961, metadata !DIExpression()), !dbg !976
  call void @llvm.dbg.declare(metadata [4 x i8]* %num_bubble, metadata !962, metadata !DIExpression()), !dbg !977
  call void @llvm.dbg.declare(metadata [4 x i8]* %num_insert, metadata !964, metadata !DIExpression()), !dbg !978
  %_9 = icmp ult i64 0, %arr.1, !dbg !979
  %3 = call i1 @llvm.expect.i1(i1 %_9, i1 true), !dbg !979
  br i1 %3, label %bb13, label %panic, !dbg !979

bb1:                                              ; preds = %bb16
  store i8 1, i8* %_2, align 1, !dbg !980
  br label %bb4, !dbg !980

bb2:                                              ; preds = %bb16, %bb8
  store i8 0, i8* %_2, align 1, !dbg !980
  br label %bb4, !dbg !980

bb3:                                              ; preds = %bb8
  %_24 = icmp ult i64 3, %arr.1, !dbg !981
  %4 = call i1 @llvm.expect.i1(i1 %_24, i1 true), !dbg !981
  br i1 %4, label %bb16, label %panic3, !dbg !981

bb4:                                              ; preds = %bb2, %bb1
  %5 = load i8, i8* %_2, align 1, !dbg !982, !range !951
  %6 = trunc i8 %5 to i1, !dbg !982
  br i1 %6, label %bb17, label %bb31, !dbg !982

bb5:                                              ; preds = %bb15
  store i8 1, i8* %_3, align 1, !dbg !979
  br label %bb8, !dbg !979

bb6:                                              ; preds = %bb15, %bb12
  store i8 0, i8* %_3, align 1, !dbg !979
  br label %bb8, !dbg !979

bb7:                                              ; preds = %bb12
  %_19 = icmp ult i64 2, %arr.1, !dbg !983
  %7 = call i1 @llvm.expect.i1(i1 %_19, i1 true), !dbg !983
  br i1 %7, label %bb15, label %panic2, !dbg !983

bb8:                                              ; preds = %bb6, %bb5
  %8 = load i8, i8* %_3, align 1, !dbg !980, !range !951
  %9 = trunc i8 %8 to i1, !dbg !980
  br i1 %9, label %bb3, label %bb2, !dbg !980

bb9:                                              ; preds = %bb14
  store i8 1, i8* %_4, align 1, !dbg !979
  br label %bb12, !dbg !979

bb10:                                             ; preds = %bb14, %bb13
  store i8 0, i8* %_4, align 1, !dbg !979
  br label %bb12, !dbg !979

bb11:                                             ; preds = %bb13
  %_14 = icmp ult i64 1, %arr.1, !dbg !984
  %10 = call i1 @llvm.expect.i1(i1 %_14, i1 true), !dbg !984
  br i1 %10, label %bb14, label %panic1, !dbg !984

bb12:                                             ; preds = %bb10, %bb9
  %11 = load i8, i8* %_4, align 1, !dbg !979, !range !951
  %12 = trunc i8 %11 to i1, !dbg !979
  br i1 %12, label %bb7, label %bb6, !dbg !979

bb13:                                             ; preds = %start
  %13 = getelementptr inbounds [0 x i8], [0 x i8]* %arr.0, i64 0, i64 0, !dbg !979
  %_6 = load i8, i8* %13, align 1, !dbg !979
  %_5 = icmp ult i8 %_6, 10, !dbg !979
  br i1 %_5, label %bb11, label %bb10, !dbg !979

bb14:                                             ; preds = %bb11
  %14 = getelementptr inbounds [0 x i8], [0 x i8]* %arr.0, i64 0, i64 1, !dbg !984
  %_11 = load i8, i8* %14, align 1, !dbg !984
  %_10 = icmp ult i8 %_11, 10, !dbg !984
  br i1 %_10, label %bb9, label %bb10, !dbg !979

bb15:                                             ; preds = %bb7
  %15 = getelementptr inbounds [0 x i8], [0 x i8]* %arr.0, i64 0, i64 2, !dbg !983
  %_16 = load i8, i8* %15, align 1, !dbg !983
  %_15 = icmp ult i8 %_16, 10, !dbg !983
  br i1 %_15, label %bb5, label %bb6, !dbg !979

bb16:                                             ; preds = %bb3
  %16 = getelementptr inbounds [0 x i8], [0 x i8]* %arr.0, i64 0, i64 3, !dbg !981
  %_21 = load i8, i8* %16, align 1, !dbg !981
  %_20 = icmp ult i8 %_21, 10, !dbg !981
  br i1 %_20, label %bb1, label %bb2, !dbg !980

bb17:                                             ; preds = %bb4
  %17 = getelementptr inbounds [4 x i8], [4 x i8]* %num_bubble, i64 0, i64 0, !dbg !985
  call void @llvm.memset.p0i8.i64(i8* align 1 %17, i8 0, i64 4, i1 false), !dbg !985
  %_27.0 = bitcast [4 x i8]* %num_bubble to [0 x i8]*, !dbg !986
  store i64 0, i64* %_33, align 8, !dbg !987
  %18 = load i64, i64* %_33, align 8, !dbg !988
; call core::slice::index::<impl core::ops::index::Index<I> for [T]>::index
  %19 = call { [0 x i8]*, i64 } @"_ZN4core5slice5index74_$LT$impl$u20$core..ops..index..Index$LT$I$GT$$u20$for$u20$$u5b$T$u5d$$GT$5index17h0c92247deee46e60E"([0 x i8]* noalias nonnull readonly align 1 %arr.0, i64 %arr.1, i64 %18, %"core::panic::Location"* noalias readonly align 8 dereferenceable(24) bitcast (<{ i8*, [16 x i8] }>* @alloc59 to %"core::panic::Location"*)), !dbg !988
  %_31.0 = extractvalue { [0 x i8]*, i64 } %19, 0, !dbg !988
  %_31.1 = extractvalue { [0 x i8]*, i64 } %19, 1, !dbg !988
; call core::slice::<impl [T]>::copy_from_slice
  call void @"_ZN4core5slice29_$LT$impl$u20$$u5b$T$u5d$$GT$15copy_from_slice17h95d698ec99c2fc3eE"([0 x i8]* nonnull align 1 %_27.0, i64 4, [0 x i8]* noalias nonnull readonly align 1 %_31.0, i64 %_31.1), !dbg !986
  %20 = getelementptr inbounds [4 x i8], [4 x i8]* %num_insert, i64 0, i64 0, !dbg !989
  call void @llvm.memset.p0i8.i64(i8* align 1 %20, i8 0, i64 4, i1 false), !dbg !989
  %_36.0 = bitcast [4 x i8]* %num_insert to [0 x i8]*, !dbg !990
  store i64 0, i64* %_42, align 8, !dbg !991
  %21 = load i64, i64* %_42, align 8, !dbg !992
; call core::slice::index::<impl core::ops::index::Index<I> for [T]>::index
  %22 = call { [0 x i8]*, i64 } @"_ZN4core5slice5index74_$LT$impl$u20$core..ops..index..Index$LT$I$GT$$u20$for$u20$$u5b$T$u5d$$GT$5index17h0c92247deee46e60E"([0 x i8]* noalias nonnull readonly align 1 %arr.0, i64 %arr.1, i64 %21, %"core::panic::Location"* noalias readonly align 8 dereferenceable(24) bitcast (<{ i8*, [16 x i8] }>* @alloc61 to %"core::panic::Location"*)), !dbg !992
  %_40.0 = extractvalue { [0 x i8]*, i64 } %22, 0, !dbg !992
  %_40.1 = extractvalue { [0 x i8]*, i64 } %22, 1, !dbg !992
; call core::slice::<impl [T]>::copy_from_slice
  call void @"_ZN4core5slice29_$LT$impl$u20$$u5b$T$u5d$$GT$15copy_from_slice17h95d698ec99c2fc3eE"([0 x i8]* nonnull align 1 %_36.0, i64 4, [0 x i8]* noalias nonnull readonly align 1 %_40.0, i64 %_40.1), !dbg !990
  %_44.0 = bitcast [4 x i8]* %num_bubble to [0 x i8]*, !dbg !993
; call sort::bubble_sort
  call void @_ZN4sort11bubble_sort17hffcc5208c612b120E([0 x i8]* nonnull align 1 %_44.0, i64 4), !dbg !994
  %_48.0 = bitcast [4 x i8]* %num_insert to [0 x i8]*, !dbg !995
; call sort::insertion_sort
  call void @_ZN4sort14insertion_sort17h1f3221366b45c4deE([0 x i8]* nonnull align 1 %_48.0, i64 4), !dbg !996
  %23 = bitcast { i8*, i8* }* %_51 to [4 x i8]**, !dbg !997
  store [4 x i8]* %num_bubble, [4 x i8]** %23, align 8, !dbg !997
  %24 = getelementptr inbounds { i8*, i8* }, { i8*, i8* }* %_51, i32 0, i32 1, !dbg !997
  %25 = bitcast i8** %24 to [4 x i8]**, !dbg !997
  store [4 x i8]* %num_insert, [4 x i8]** %25, align 8, !dbg !997
  %26 = bitcast { i8*, i8* }* %_51 to [4 x i8]**, !dbg !997
  %left_val = load [4 x i8]*, [4 x i8]** %26, align 8, !dbg !997, !nonnull !4
  store [4 x i8]* %left_val, [4 x i8]** %left_val.dbg.spill, align 8, !dbg !997
  call void @llvm.dbg.declare(metadata [4 x i8]** %left_val.dbg.spill, metadata !966, metadata !DIExpression()), !dbg !998
  %27 = getelementptr inbounds { i8*, i8* }, { i8*, i8* }* %_51, i32 0, i32 1, !dbg !997
  %28 = bitcast i8** %27 to [4 x i8]**, !dbg !997
  %right_val = load [4 x i8]*, [4 x i8]** %28, align 8, !dbg !997, !nonnull !4
  store [4 x i8]* %right_val, [4 x i8]** %right_val.dbg.spill, align 8, !dbg !997
  call void @llvm.dbg.declare(metadata [4 x i8]** %right_val.dbg.spill, metadata !970, metadata !DIExpression()), !dbg !998
; call core::array::<impl core::cmp::PartialEq<[B; N]> for [A; N]>::eq
  %_57 = call zeroext i1 @"_ZN4core5array103_$LT$impl$u20$core..cmp..PartialEq$LT$$u5b$B$u3b$$u20$N$u5d$$GT$$u20$for$u20$$u5b$A$u3b$$u20$N$u5d$$GT$2eq17hc7a65319d87dd12cE"([4 x i8]* noalias readonly align 1 dereferenceable(4) %left_val, [4 x i8]* noalias readonly align 1 dereferenceable(4) %right_val), !dbg !998
  %_56 = xor i1 %_57, true, !dbg !998
  br i1 %_56, label %bb26, label %bb31, !dbg !998

bb26:                                             ; preds = %bb17
  store [4 x i8]* %left_val, [4 x i8]** %_70, align 8, !dbg !998
  store [4 x i8]* %right_val, [4 x i8]** %_72, align 8, !dbg !998
  %29 = bitcast { i64*, i64* }* %_68 to [4 x i8]***, !dbg !998
  store [4 x i8]** %_70, [4 x i8]*** %29, align 8, !dbg !998
  %30 = getelementptr inbounds { i64*, i64* }, { i64*, i64* }* %_68, i32 0, i32 1, !dbg !998
  %31 = bitcast i64** %30 to [4 x i8]***, !dbg !998
  store [4 x i8]** %_72, [4 x i8]*** %31, align 8, !dbg !998
  %32 = bitcast { i64*, i64* }* %_68 to [4 x i8]***, !dbg !998
  %arg0 = load [4 x i8]**, [4 x i8]*** %32, align 8, !dbg !998, !nonnull !4
  store [4 x i8]** %arg0, [4 x i8]*** %arg0.dbg.spill, align 8, !dbg !998
  call void @llvm.dbg.declare(metadata [4 x i8]*** %arg0.dbg.spill, metadata !971, metadata !DIExpression()), !dbg !999
  %33 = getelementptr inbounds { i64*, i64* }, { i64*, i64* }* %_68, i32 0, i32 1, !dbg !998
  %34 = bitcast i64** %33 to [4 x i8]***, !dbg !998
  %arg1 = load [4 x i8]**, [4 x i8]*** %34, align 8, !dbg !998, !nonnull !4
  store [4 x i8]** %arg1, [4 x i8]*** %arg1.dbg.spill, align 8, !dbg !998
  call void @llvm.dbg.declare(metadata [4 x i8]*** %arg1.dbg.spill, metadata !975, metadata !DIExpression()), !dbg !999
; call core::fmt::ArgumentV1::new
  %35 = call { i8*, i64* } @_ZN4core3fmt10ArgumentV13new17h5b9d9eeaf427591fE([4 x i8]** noalias readonly align 8 dereferenceable(8) %arg0, i1 ([4 x i8]**, %"core::fmt::Formatter"*)* nonnull @"_ZN42_$LT$$RF$T$u20$as$u20$core..fmt..Debug$GT$3fmt17h2fee1ea0053c8e06E"), !dbg !999
  %_75.0 = extractvalue { i8*, i64* } %35, 0, !dbg !999
  %_75.1 = extractvalue { i8*, i64* } %35, 1, !dbg !999
; call core::fmt::ArgumentV1::new
  %36 = call { i8*, i64* } @_ZN4core3fmt10ArgumentV13new17h5b9d9eeaf427591fE([4 x i8]** noalias readonly align 8 dereferenceable(8) %arg1, i1 ([4 x i8]**, %"core::fmt::Formatter"*)* nonnull @"_ZN42_$LT$$RF$T$u20$as$u20$core..fmt..Debug$GT$3fmt17h2fee1ea0053c8e06E"), !dbg !999
  %_78.0 = extractvalue { i8*, i64* } %36, 0, !dbg !999
  %_78.1 = extractvalue { i8*, i64* } %36, 1, !dbg !999
  %37 = bitcast [2 x { i8*, i64* }]* %_67 to { i8*, i64* }*, !dbg !999
  %38 = getelementptr inbounds { i8*, i64* }, { i8*, i64* }* %37, i32 0, i32 0, !dbg !999
  store i8* %_75.0, i8** %38, align 8, !dbg !999
  %39 = getelementptr inbounds { i8*, i64* }, { i8*, i64* }* %37, i32 0, i32 1, !dbg !999
  store i64* %_75.1, i64** %39, align 8, !dbg !999
  %40 = getelementptr inbounds [2 x { i8*, i64* }], [2 x { i8*, i64* }]* %_67, i32 0, i32 1, !dbg !999
  %41 = getelementptr inbounds { i8*, i64* }, { i8*, i64* }* %40, i32 0, i32 0, !dbg !999
  store i8* %_78.0, i8** %41, align 8, !dbg !999
  %42 = getelementptr inbounds { i8*, i64* }, { i8*, i64* }* %40, i32 0, i32 1, !dbg !999
  store i64* %_78.1, i64** %42, align 8, !dbg !999
  %_64.0 = bitcast [2 x { i8*, i64* }]* %_67 to [0 x { i8*, i64* }]*, !dbg !998
; call core::fmt::Arguments::new_v1
  call void @_ZN4core3fmt9Arguments6new_v117h61cd5b3f092f508bE(%"core::fmt::Arguments"* noalias nocapture sret dereferenceable(48) %_60, [0 x { [0 x i8]*, i64 }]* noalias nonnull readonly align 8 bitcast (<{ i8*, [8 x i8], i8*, [8 x i8], i8*, [8 x i8] }>* @alloc8 to [0 x { [0 x i8]*, i64 }]*), i64 3, [0 x { i8*, i64* }]* noalias nonnull readonly align 8 %_64.0, i64 2), !dbg !998
; call core::panicking::panic_fmt
  call void @_ZN4core9panicking9panic_fmt17hcd56f7f635f62c74E(%"core::fmt::Arguments"* noalias nocapture dereferenceable(48) %_60, %"core::panic::Location"* noalias readonly align 8 dereferenceable(24) bitcast (<{ i8*, [16 x i8] }>* @alloc63 to %"core::panic::Location"*)), !dbg !998
  unreachable, !dbg !998

bb31:                                             ; preds = %bb17, %bb4
  ret void, !dbg !1000

panic:                                            ; preds = %start
; call core::panicking::panic_bounds_check
  call void @_ZN4core9panicking18panic_bounds_check17h16537cfb53a1364bE(i64 0, i64 %arr.1, %"core::panic::Location"* noalias readonly align 8 dereferenceable(24) bitcast (<{ i8*, [16 x i8] }>* @alloc51 to %"core::panic::Location"*)), !dbg !979
  unreachable, !dbg !979

panic1:                                           ; preds = %bb11
; call core::panicking::panic_bounds_check
  call void @_ZN4core9panicking18panic_bounds_check17h16537cfb53a1364bE(i64 1, i64 %arr.1, %"core::panic::Location"* noalias readonly align 8 dereferenceable(24) bitcast (<{ i8*, [16 x i8] }>* @alloc53 to %"core::panic::Location"*)), !dbg !984
  unreachable, !dbg !984

panic2:                                           ; preds = %bb7
; call core::panicking::panic_bounds_check
  call void @_ZN4core9panicking18panic_bounds_check17h16537cfb53a1364bE(i64 2, i64 %arr.1, %"core::panic::Location"* noalias readonly align 8 dereferenceable(24) bitcast (<{ i8*, [16 x i8] }>* @alloc55 to %"core::panic::Location"*)), !dbg !983
  unreachable, !dbg !983

panic3:                                           ; preds = %bb3
; call core::panicking::panic_bounds_check
  call void @_ZN4core9panicking18panic_bounds_check17h16537cfb53a1364bE(i64 3, i64 %arr.1, %"core::panic::Location"* noalias readonly align 8 dereferenceable(24) bitcast (<{ i8*, [16 x i8] }>* @alloc57 to %"core::panic::Location"*)), !dbg !981
  unreachable, !dbg !981
}

; Function Attrs: nounwind nonlazybind
define void @main() unnamed_addr #0 !dbg !1001 {
start:
  %name.dbg.spill.i = alloca { %"klee_sys::CStr"*, i64 }, align 8
  %t.dbg.spill.i = alloca [4 x i8]*, align 8
  %0 = alloca { [0 x i8]*, i64 }, align 8
  %self.dbg.spill.i = alloca { [0 x i8]*, i64 }, align 8
  %my_test = alloca [4 x i8], align 1
  call void @llvm.dbg.declare(metadata [4 x i8]* %my_test, metadata !1005, metadata !DIExpression()), !dbg !1007
  %1 = bitcast [4 x i8]* %my_test to i8*, !dbg !1008
  store i8 4, i8* %1, align 1, !dbg !1008
  %2 = getelementptr inbounds [4 x i8], [4 x i8]* %my_test, i32 0, i32 1, !dbg !1008
  store i8 3, i8* %2, align 1, !dbg !1008
  %3 = getelementptr inbounds [4 x i8], [4 x i8]* %my_test, i32 0, i32 2, !dbg !1008
  store i8 2, i8* %3, align 1, !dbg !1008
  %4 = getelementptr inbounds [4 x i8], [4 x i8]* %my_test, i32 0, i32 3, !dbg !1008
  store i8 1, i8* %4, align 1, !dbg !1008
  %5 = getelementptr inbounds { [0 x i8]*, i64 }, { [0 x i8]*, i64 }* %self.dbg.spill.i, i32 0, i32 0
  store [0 x i8]* bitcast (<{ [7 x i8] }>* @alloc64 to [0 x i8]*), [0 x i8]** %5, align 8, !noalias !1009
  %6 = getelementptr inbounds { [0 x i8]*, i64 }, { [0 x i8]*, i64 }* %self.dbg.spill.i, i32 0, i32 1
  store i64 7, i64* %6, align 8, !noalias !1009
  call void @llvm.dbg.declare(metadata { [0 x i8]*, i64 }* %self.dbg.spill.i, metadata !1012, metadata !DIExpression()), !dbg !1020
  %7 = getelementptr inbounds { [0 x i8]*, i64 }, { [0 x i8]*, i64 }* %0, i32 0, i32 0, !dbg !1022
  store [0 x i8]* bitcast (<{ [7 x i8] }>* @alloc64 to [0 x i8]*), [0 x i8]** %7, align 8, !dbg !1022, !noalias !1009
  %8 = getelementptr inbounds { [0 x i8]*, i64 }, { [0 x i8]*, i64 }* %0, i32 0, i32 1, !dbg !1022
  store i64 7, i64* %8, align 8, !dbg !1022, !noalias !1009
  %9 = getelementptr inbounds { [0 x i8]*, i64 }, { [0 x i8]*, i64 }* %0, i32 0, i32 0, !dbg !1022
  %10 = load [0 x i8]*, [0 x i8]** %9, align 8, !dbg !1022, !noalias !1009, !nonnull !4
  %11 = getelementptr inbounds { [0 x i8]*, i64 }, { [0 x i8]*, i64 }* %0, i32 0, i32 1, !dbg !1022
  %12 = load i64, i64* %11, align 8, !dbg !1022, !noalias !1009
  %13 = insertvalue { [0 x i8]*, i64 } undef, [0 x i8]* %10, 0, !dbg !1023
  %14 = insertvalue { [0 x i8]*, i64 } %13, i64 %12, 1, !dbg !1023
  %_9.0 = extractvalue { [0 x i8]*, i64 } %14, 0, !dbg !1024
  %_9.1 = extractvalue { [0 x i8]*, i64 } %14, 1, !dbg !1024
; call cstr_core::CStr::from_bytes_with_nul_unchecked
  %15 = call { %"klee_sys::CStr"*, i64 } @_ZN9cstr_core4CStr29from_bytes_with_nul_unchecked17h37e0bfecc7c843b7E([0 x i8]* noalias nonnull readonly align 1 %_9.0, i64 %_9.1), !dbg !1024
  %_7.0 = extractvalue { %"klee_sys::CStr"*, i64 } %15, 0, !dbg !1024
  %_7.1 = extractvalue { %"klee_sys::CStr"*, i64 } %15, 1, !dbg !1024
  store [4 x i8]* %my_test, [4 x i8]** %t.dbg.spill.i, align 8, !noalias !1025
  call void @llvm.dbg.declare(metadata [4 x i8]** %t.dbg.spill.i, metadata !1028, metadata !DIExpression()) #26, !dbg !1038
  %16 = getelementptr inbounds { %"klee_sys::CStr"*, i64 }, { %"klee_sys::CStr"*, i64 }* %name.dbg.spill.i, i32 0, i32 0
  store %"klee_sys::CStr"* %_7.0, %"klee_sys::CStr"** %16, align 8, !noalias !1025
  %17 = getelementptr inbounds { %"klee_sys::CStr"*, i64 }, { %"klee_sys::CStr"*, i64 }* %name.dbg.spill.i, i32 0, i32 1
  store i64 %_7.1, i64* %17, align 8, !noalias !1025
  call void @llvm.dbg.declare(metadata { %"klee_sys::CStr"*, i64 }* %name.dbg.spill.i, metadata !1037, metadata !DIExpression()) #26, !dbg !1040
  %_3.i = bitcast [4 x i8]* %my_test to i8*, !dbg !1041
; call cstr_core::CStr::as_ptr
  %_6.i = call i8* @_ZN9cstr_core4CStr6as_ptr17hd766bcf018ac05bdE(%"klee_sys::CStr"* noalias nonnull readonly align 1 %_7.0, i64 %_7.1) #26, !dbg !1042
  call void @klee_make_symbolic(i8* %_3.i, i64 4, i8* %_6.i) #26, !dbg !1043
  %_13.0 = bitcast [4 x i8]* %my_test to [0 x i8]*, !dbg !1044
; call sort::sort_test
  call void @_ZN4sort9sort_test17hecf0034ccad66e53E([0 x i8]* nonnull align 1 %_13.0, i64 4), !dbg !1045
  ret void, !dbg !1046
}

; Function Attrs: nounwind readnone speculatable willreturn
declare void @llvm.dbg.declare(metadata, metadata, metadata) #7

; Function Attrs: argmemonly nounwind willreturn
declare void @llvm.memmove.p0i8.p0i8.i64(i8* nocapture, i8* nocapture readonly, i64, i1 immarg) #8

; Function Attrs: nounwind readnone willreturn
declare i1 @llvm.expect.i1(i1, i1) #9

; Function Attrs: nounwind nonlazybind
declare void @klee_make_symbolic(i8*, i64, i8*) unnamed_addr #0

; Function Attrs: nounwind readnone speculatable willreturn
declare { i64, i1 } @llvm.usub.with.overflow.i64(i64, i64) #7

; Function Attrs: nounwind readnone speculatable willreturn
declare { i64, i1 } @llvm.uadd.with.overflow.i64(i64, i64) #7

; Function Attrs: argmemonly nounwind willreturn writeonly
declare void @llvm.memset.p0i8.i64(i8* nocapture writeonly, i8, i64, i1 immarg) #10

; core::ops::function::FnOnce::call_once
; Function Attrs: inlinehint noreturn nounwind nonlazybind uwtable
define internal zeroext i1 @_ZN4core3ops8function6FnOnce9call_once17h00ad4a2ce289a64dE(i64* noalias readonly align 8 dereferenceable(8) %0, %"core::fmt::Formatter"* nocapture readnone align 8 dereferenceable(64) %1) unnamed_addr #11 personality i32 (...)* @rust_eh_personality !dbg !1047 {
  %3 = load volatile i64, i64* %0, align 8, !dbg !1052, !alias.scope !1060
  br label %4, !dbg !1063

4:                                                ; preds = %4, %2
  tail call void @llvm.sideeffect() #26, !dbg !1063
  br label %4, !dbg !1063
}

; Function Attrs: nounwind nonlazybind
declare i32 @rust_eh_personality(...) unnamed_addr #12

; Function Attrs: inaccessiblememonly nounwind willreturn
declare void @llvm.sideeffect() #13

; core::panicking::panic
; Function Attrs: cold noinline noreturn nounwind nonlazybind uwtable
define internal void @_ZN4core9panicking5panic17h07405d6be4bce887E([0 x i8]* noalias nonnull readonly align 1 %0, i64 %1, %"core::panic::Location"* noalias readonly align 8 dereferenceable(24) %2) unnamed_addr #14 !dbg !1064 {
  %4 = alloca [1 x { [0 x i8]*, i64 }], align 8
  %5 = alloca %"core::fmt::Arguments", align 8
  %6 = bitcast %"core::fmt::Arguments"* %5 to i8*, !dbg !1067
  call void @llvm.lifetime.start.p0i8(i64 48, i8* nonnull %6), !dbg !1067
  %7 = bitcast [1 x { [0 x i8]*, i64 }]* %4 to i8*, !dbg !1068
  call void @llvm.lifetime.start.p0i8(i64 16, i8* nonnull %7), !dbg !1068
  %8 = getelementptr inbounds [1 x { [0 x i8]*, i64 }], [1 x { [0 x i8]*, i64 }]* %4, i64 0, i64 0, i32 0, !dbg !1068
  store [0 x i8]* %0, [0 x i8]** %8, align 8, !dbg !1068
  %9 = getelementptr inbounds [1 x { [0 x i8]*, i64 }], [1 x { [0 x i8]*, i64 }]* %4, i64 0, i64 0, i32 1, !dbg !1068
  store i64 %1, i64* %9, align 8, !dbg !1068
  %10 = bitcast %"core::fmt::Arguments"* %5 to [1 x { [0 x i8]*, i64 }]**, !dbg !1069
  store [1 x { [0 x i8]*, i64 }]* %4, [1 x { [0 x i8]*, i64 }]** %10, align 8, !dbg !1069, !alias.scope !1073, !noalias !1076
  %11 = getelementptr inbounds %"core::fmt::Arguments", %"core::fmt::Arguments"* %5, i64 0, i32 1, i32 1, !dbg !1069
  store i64 1, i64* %11, align 8, !dbg !1069, !alias.scope !1073, !noalias !1076
  %12 = getelementptr inbounds %"core::fmt::Arguments", %"core::fmt::Arguments"* %5, i64 0, i32 3, i32 0, !dbg !1069
  store i64* null, i64** %12, align 8, !dbg !1069, !alias.scope !1073, !noalias !1076
  %13 = getelementptr inbounds %"core::fmt::Arguments", %"core::fmt::Arguments"* %5, i64 0, i32 5, i32 0, !dbg !1069
  store [0 x { i8*, i64* }]* bitcast (<{ [0 x i8] }>* @anon.965c706604096d42e5b155eaa3c30edf.12 to [0 x { i8*, i64* }]*), [0 x { i8*, i64* }]** %13, align 8, !dbg !1069, !alias.scope !1073, !noalias !1076
  %14 = getelementptr inbounds %"core::fmt::Arguments", %"core::fmt::Arguments"* %5, i64 0, i32 5, i32 1, !dbg !1069
  store i64 0, i64* %14, align 8, !dbg !1069, !alias.scope !1073, !noalias !1076
; call core::panicking::panic_fmt
  call void @_ZN4core9panicking9panic_fmt17hcd56f7f635f62c74E(%"core::fmt::Arguments"* noalias nocapture nonnull dereferenceable(48) %5, %"core::panic::Location"* noalias nonnull readonly align 8 dereferenceable(24) %2), !dbg !1079
  unreachable, !dbg !1079
}

; core::panicking::panic_bounds_check
; Function Attrs: cold noinline noreturn nounwind nonlazybind uwtable
define internal void @_ZN4core9panicking18panic_bounds_check17h16537cfb53a1364bE(i64 %0, i64 %1, %"core::panic::Location"* noalias readonly align 8 dereferenceable(24) %2) unnamed_addr #14 !dbg !1080 {
  %4 = alloca [2 x { i8*, i64* }], align 8
  %5 = alloca %"core::fmt::Arguments", align 8
  %6 = alloca i64, align 8
  %7 = alloca i64, align 8
  store i64 %0, i64* %7, align 8
  store i64 %1, i64* %6, align 8
  %8 = bitcast %"core::fmt::Arguments"* %5 to i8*, !dbg !1081
  call void @llvm.lifetime.start.p0i8(i64 48, i8* nonnull %8), !dbg !1081
  %9 = bitcast [2 x { i8*, i64* }]* %4 to i8*, !dbg !1081
  call void @llvm.lifetime.start.p0i8(i64 32, i8* nonnull %9), !dbg !1081
  %10 = bitcast [2 x { i8*, i64* }]* %4 to i64**, !dbg !1081
  store i64* %6, i64** %10, align 8, !dbg !1081
  %11 = getelementptr inbounds [2 x { i8*, i64* }], [2 x { i8*, i64* }]* %4, i64 0, i64 0, i32 1, !dbg !1081
  store i64* bitcast (i1 (i64*, %"core::fmt::Formatter"*)* @"_ZN4core3fmt3num3imp52_$LT$impl$u20$core..fmt..Display$u20$for$u20$u64$GT$3fmt17h48d894a52c575073E" to i64*), i64** %11, align 8, !dbg !1081
  %12 = getelementptr inbounds [2 x { i8*, i64* }], [2 x { i8*, i64* }]* %4, i64 0, i64 1, i32 0, !dbg !1081
  %13 = bitcast i8** %12 to i64**, !dbg !1081
  store i64* %7, i64** %13, align 8, !dbg !1081
  %14 = getelementptr inbounds [2 x { i8*, i64* }], [2 x { i8*, i64* }]* %4, i64 0, i64 1, i32 1, !dbg !1081
  store i64* bitcast (i1 (i64*, %"core::fmt::Formatter"*)* @"_ZN4core3fmt3num3imp52_$LT$impl$u20$core..fmt..Display$u20$for$u20$u64$GT$3fmt17h48d894a52c575073E" to i64*), i64** %14, align 8, !dbg !1081
  %15 = bitcast %"core::fmt::Arguments"* %5 to [0 x { [0 x i8]*, i64 }]**, !dbg !1082
  store [0 x { [0 x i8]*, i64 }]* bitcast (<{ i8*, [8 x i8], i8*, [8 x i8] }>* @anon.965c706604096d42e5b155eaa3c30edf.186 to [0 x { [0 x i8]*, i64 }]*), [0 x { [0 x i8]*, i64 }]** %15, align 8, !dbg !1082, !alias.scope !1084, !noalias !1087
  %16 = getelementptr inbounds %"core::fmt::Arguments", %"core::fmt::Arguments"* %5, i64 0, i32 1, i32 1, !dbg !1082
  store i64 2, i64* %16, align 8, !dbg !1082, !alias.scope !1084, !noalias !1087
  %17 = getelementptr inbounds %"core::fmt::Arguments", %"core::fmt::Arguments"* %5, i64 0, i32 3, i32 0, !dbg !1082
  store i64* null, i64** %17, align 8, !dbg !1082, !alias.scope !1084, !noalias !1087
  %18 = getelementptr inbounds %"core::fmt::Arguments", %"core::fmt::Arguments"* %5, i64 0, i32 5, i32 0, !dbg !1082
  %19 = bitcast [0 x { i8*, i64* }]** %18 to [2 x { i8*, i64* }]**, !dbg !1082
  store [2 x { i8*, i64* }]* %4, [2 x { i8*, i64* }]** %19, align 8, !dbg !1082, !alias.scope !1084, !noalias !1087
  %20 = getelementptr inbounds %"core::fmt::Arguments", %"core::fmt::Arguments"* %5, i64 0, i32 5, i32 1, !dbg !1082
  store i64 2, i64* %20, align 8, !dbg !1082, !alias.scope !1084, !noalias !1087
; call core::panicking::panic_fmt
  call void @_ZN4core9panicking9panic_fmt17hcd56f7f635f62c74E(%"core::fmt::Arguments"* noalias nocapture nonnull dereferenceable(48) %5, %"core::panic::Location"* noalias nonnull readonly align 8 dereferenceable(24) %2), !dbg !1081
  unreachable, !dbg !1081
}

; Function Attrs: argmemonly nounwind willreturn
declare void @llvm.lifetime.start.p0i8(i64 immarg, i8* nocapture) #8

; core::fmt::num::imp::<impl core::fmt::Display for u64>::fmt
; Function Attrs: nounwind nonlazybind uwtable
define internal zeroext i1 @"_ZN4core3fmt3num3imp52_$LT$impl$u20$core..fmt..Display$u20$for$u20$u64$GT$3fmt17h48d894a52c575073E"(i64* noalias nocapture readonly align 8 dereferenceable(8) %0, %"core::fmt::Formatter"* nocapture align 8 dereferenceable(64) %1) unnamed_addr #15 !dbg !1090 {
  %3 = alloca [39 x i8], align 1
  %4 = load i64, i64* %0, align 8, !dbg !1095, !alias.scope !1099
  %5 = getelementptr inbounds [39 x i8], [39 x i8]* %3, i64 0, i64 0, !dbg !1102
  call void @llvm.lifetime.start.p0i8(i64 39, i8* nonnull %5), !dbg !1102
  call void @llvm.memset.p0i8.i64(i8* nonnull align 1 dereferenceable(39) %5, i8 undef, i64 39, i1 false), !dbg !1105
  %6 = icmp ugt i64 %4, 9999, !dbg !1106
  br i1 %6, label %11, label %7, !dbg !1107

7:                                                ; preds = %11, %2
  %8 = phi i64 [ 39, %2 ], [ %23, %11 ], !dbg !1108
  %9 = phi i64 [ %4, %2 ], [ %15, %11 ]
  %10 = icmp sgt i64 %9, 99, !dbg !1109
  br i1 %10, label %36, label %49, !dbg !1110

11:                                               ; preds = %11, %2
  %12 = phi i64 [ %15, %11 ], [ %4, %2 ]
  %13 = phi i64 [ %23, %11 ], [ 39, %2 ]
  %14 = urem i64 %12, 10000, !dbg !1111
  %15 = udiv i64 %12, 10000, !dbg !1112
  %16 = trunc i64 %14 to i16, !dbg !1113
  %17 = udiv i16 %16, 100, !dbg !1113
  %18 = shl nuw nsw i16 %17, 1, !dbg !1113
  %19 = zext i16 %18 to i64, !dbg !1113
  %20 = urem i16 %16, 100, !dbg !1114
  %21 = shl nuw nsw i16 %20, 1, !dbg !1114
  %22 = zext i16 %21 to i64, !dbg !1114
  %23 = add i64 %13, -4, !dbg !1115
  %24 = getelementptr inbounds <{ [200 x i8] }>, <{ [200 x i8] }>* @anon.965c706604096d42e5b155eaa3c30edf.223, i64 0, i32 0, i64 %19, !dbg !1116
  %25 = getelementptr inbounds [39 x i8], [39 x i8]* %3, i64 0, i64 %23, !dbg !1122
  %26 = bitcast i8* %24 to i16*, !dbg !1128
  %27 = bitcast i8* %25 to i16*, !dbg !1128
  %28 = load i16, i16* %26, align 1, !dbg !1128
  store i16 %28, i16* %27, align 1, !dbg !1128
  %29 = getelementptr inbounds <{ [200 x i8] }>, <{ [200 x i8] }>* @anon.965c706604096d42e5b155eaa3c30edf.223, i64 0, i32 0, i64 %22, !dbg !1132
  %30 = add nsw i64 %13, -2, !dbg !1134
  %31 = getelementptr inbounds [39 x i8], [39 x i8]* %3, i64 0, i64 %30, !dbg !1135
  %32 = bitcast i8* %29 to i16*, !dbg !1137
  %33 = bitcast i8* %31 to i16*, !dbg !1137
  %34 = load i16, i16* %32, align 1, !dbg !1137
  store i16 %34, i16* %33, align 1, !dbg !1137
  %35 = icmp ugt i64 %12, 99999999, !dbg !1106
  br i1 %35, label %11, label %7, !dbg !1107

36:                                               ; preds = %7
  %37 = trunc i64 %9 to i16, !dbg !1139
  %38 = urem i16 %37, 100, !dbg !1139
  %39 = shl nuw nsw i16 %38, 1, !dbg !1139
  %40 = zext i16 %39 to i64, !dbg !1139
  %41 = udiv i16 %37, 100, !dbg !1140
  %42 = zext i16 %41 to i64, !dbg !1140
  %43 = add i64 %8, -2, !dbg !1141
  %44 = getelementptr inbounds <{ [200 x i8] }>, <{ [200 x i8] }>* @anon.965c706604096d42e5b155eaa3c30edf.223, i64 0, i32 0, i64 %40, !dbg !1142
  %45 = getelementptr inbounds [39 x i8], [39 x i8]* %3, i64 0, i64 %43, !dbg !1144
  %46 = bitcast i8* %44 to i16*, !dbg !1146
  %47 = bitcast i8* %45 to i16*, !dbg !1146
  %48 = load i16, i16* %46, align 1, !dbg !1146
  store i16 %48, i16* %47, align 1, !dbg !1146
  br label %49, !dbg !1110

49:                                               ; preds = %36, %7
  %50 = phi i64 [ %42, %36 ], [ %9, %7 ], !dbg !1108
  %51 = phi i64 [ %43, %36 ], [ %8, %7 ], !dbg !1108
  %52 = icmp slt i64 %50, 10, !dbg !1148
  br i1 %52, label %53, label %58, !dbg !1149

53:                                               ; preds = %49
  %54 = add i64 %51, -1, !dbg !1150
  %55 = trunc i64 %50 to i8, !dbg !1151
  %56 = getelementptr inbounds [39 x i8], [39 x i8]* %3, i64 0, i64 %54, !dbg !1152
  %57 = add nuw nsw i8 %55, 48, !dbg !1154
  store i8 %57, i8* %56, align 1, !dbg !1154
  br label %66, !dbg !1149

58:                                               ; preds = %49
  %59 = shl nuw nsw i64 %50, 1, !dbg !1155
  %60 = add i64 %51, -2, !dbg !1156
  %61 = getelementptr inbounds <{ [200 x i8] }>, <{ [200 x i8] }>* @anon.965c706604096d42e5b155eaa3c30edf.223, i64 0, i32 0, i64 %59, !dbg !1157
  %62 = getelementptr inbounds [39 x i8], [39 x i8]* %3, i64 0, i64 %60, !dbg !1159
  %63 = bitcast i8* %61 to i16*, !dbg !1161
  %64 = bitcast i8* %62 to i16*, !dbg !1161
  %65 = load i16, i16* %63, align 1, !dbg !1161
  store i16 %65, i16* %64, align 1, !dbg !1161
  br label %66, !dbg !1149

66:                                               ; preds = %58, %53
  %67 = phi i64 [ %54, %53 ], [ %60, %58 ], !dbg !1108
  %68 = getelementptr inbounds [39 x i8], [39 x i8]* %3, i64 0, i64 %67, !dbg !1163
  %69 = sub i64 39, %67, !dbg !1165
  %70 = bitcast i8* %68 to [0 x i8]*, !dbg !1166
; call core::fmt::Formatter::pad_integral
  %71 = call zeroext i1 @_ZN4core3fmt9Formatter12pad_integral17h0f9951fc9f2b13b4E(%"core::fmt::Formatter"* nonnull align 8 dereferenceable(64) %1, i1 zeroext true, [0 x i8]* noalias nonnull readonly align 1 getelementptr inbounds (<{ [0 x i8] }>, <{ [0 x i8] }>* @anon.965c706604096d42e5b155eaa3c30edf.12, i32 0, i32 0), i64 0, [0 x i8]* noalias nonnull readonly align 1 %70, i64 %69), !dbg !1173
  call void @llvm.lifetime.end.p0i8(i64 39, i8* nonnull %5), !dbg !1174
  ret i1 %71, !dbg !1175
}

; core::panicking::panic_fmt
; Function Attrs: cold noinline noreturn nounwind nonlazybind uwtable
define internal void @_ZN4core9panicking9panic_fmt17hcd56f7f635f62c74E(%"core::fmt::Arguments"* noalias nocapture dereferenceable(48) %0, %"core::panic::Location"* noalias readonly align 8 dereferenceable(24) %1) unnamed_addr #14 !dbg !1176 {
  %3 = alloca %"panic::PanicInfo", align 8
  %4 = bitcast %"panic::PanicInfo"* %3 to i8*, !dbg !1177
  call void @llvm.lifetime.start.p0i8(i64 32, i8* nonnull %4), !dbg !1177
  %5 = getelementptr inbounds %"core::fmt::Arguments", %"core::fmt::Arguments"* %0, i64 0, i32 0, i64 0, !dbg !1178
  %6 = bitcast %"panic::PanicInfo"* %3 to {}**, !dbg !1179
  store {}* bitcast (<{ [0 x i8] }>* @anon.965c706604096d42e5b155eaa3c30edf.12 to {}*), {}** %6, align 8, !dbg !1179, !alias.scope !1184, !noalias !1187
  %7 = getelementptr inbounds %"panic::PanicInfo", %"panic::PanicInfo"* %3, i64 0, i32 1, i32 1, !dbg !1179
  store [3 x i64]* bitcast ({ void ({}*)*, i64, i64, i64 ({}*)* }* @anon.965c706604096d42e5b155eaa3c30edf.177 to [3 x i64]*), [3 x i64]** %7, align 8, !dbg !1179, !alias.scope !1184, !noalias !1187
  %8 = getelementptr inbounds %"panic::PanicInfo", %"panic::PanicInfo"* %3, i64 0, i32 3, !dbg !1179
  store i64* %5, i64** %8, align 8, !dbg !1179, !alias.scope !1184, !noalias !1187
  %9 = getelementptr inbounds %"panic::PanicInfo", %"panic::PanicInfo"* %3, i64 0, i32 5, !dbg !1179
  store %"core::panic::Location"* %1, %"core::panic::Location"** %9, align 8, !dbg !1179, !alias.scope !1184, !noalias !1187
  call void @rust_begin_unwind(%"panic::PanicInfo"* noalias nonnull readonly align 8 dereferenceable(32) %3), !dbg !1190
  unreachable, !dbg !1190
}

; core::ptr::drop_in_place<&core::iter::adapters::copied::Copied<core::slice::iter::Iter<u8>>>
; Function Attrs: inlinehint norecurse nounwind nonlazybind readnone uwtable
define internal void @"_ZN4core3ptr102drop_in_place$LT$$RF$core..iter..adapters..copied..Copied$LT$core..slice..iter..Iter$LT$u8$GT$$GT$$GT$17h5913dccf4681891cE"({ i8*, i8* }** nocapture %0) unnamed_addr #16 !dbg !1191 {
  ret void, !dbg !1192
}

; <T as core::any::Any>::type_id
; Function Attrs: norecurse nounwind nonlazybind readnone uwtable
define internal i64 @"_ZN36_$LT$T$u20$as$u20$core..any..Any$GT$7type_id17h108f63b8120e9c9cE"({}* noalias nocapture nonnull readonly align 1 %0) unnamed_addr #17 !dbg !1193 {
  ret i64 6876091270197435960, !dbg !1197
}

; core::fmt::Formatter::pad_integral
; Function Attrs: nounwind nonlazybind uwtable
define internal zeroext i1 @_ZN4core3fmt9Formatter12pad_integral17h0f9951fc9f2b13b4E(%"core::fmt::Formatter"* nocapture align 8 dereferenceable(64) %0, i1 zeroext %1, [0 x i8]* noalias nonnull readonly align 1 %2, i64 %3, [0 x i8]* noalias nonnull readonly align 1 %4, i64 %5) unnamed_addr #15 personality i32 (...)* @rust_eh_personality !dbg !1198 {
  br i1 %1, label %11, label %7, !dbg !1200

7:                                                ; preds = %6
  %8 = add i64 %5, 1, !dbg !1201
  %9 = getelementptr inbounds %"core::fmt::Formatter", %"core::fmt::Formatter"* %0, i64 0, i32 7, !dbg !1202
  %10 = load i32, i32* %9, align 8, !dbg !1205, !alias.scope !1206
  br label %20, !dbg !1200

11:                                               ; preds = %6
  %12 = getelementptr inbounds %"core::fmt::Formatter", %"core::fmt::Formatter"* %0, i64 0, i32 7, !dbg !1209
  %13 = load i32, i32* %12, align 8, !dbg !1209, !alias.scope !1212
  %14 = and i32 %13, 1, !dbg !1209
  %15 = icmp eq i32 %14, 0, !dbg !1209
  %16 = select i1 %15, i32 1114112, i32 43, !dbg !1215
  %17 = xor i1 %15, true, !dbg !1215
  %18 = zext i1 %17 to i64, !dbg !1215
  %19 = add i64 %18, %5, !dbg !1215
  br label %20, !dbg !1215

20:                                               ; preds = %11, %7
  %21 = phi i32 [ %10, %7 ], [ %13, %11 ], !dbg !1205
  %22 = phi i32 [ 45, %7 ], [ %16, %11 ], !dbg !1216
  %23 = phi i64 [ %8, %7 ], [ %19, %11 ], !dbg !1216
  %24 = and i32 %21, 4, !dbg !1205
  %25 = icmp eq i32 %24, 0, !dbg !1205
  br i1 %25, label %123, label %26, !dbg !1217

26:                                               ; preds = %20
  %27 = getelementptr [0 x i8], [0 x i8]* %2, i64 0, i64 0, !dbg !1218
  %28 = getelementptr inbounds [0 x i8], [0 x i8]* %2, i64 0, i64 %3, !dbg !1232
  %29 = icmp eq i64 %3, 0, !dbg !1236
  br i1 %29, label %120, label %30, !dbg !1269

30:                                               ; preds = %26
  %31 = icmp ult i64 %3, 4, !dbg !1269
  br i1 %31, label %107, label %32, !dbg !1269

32:                                               ; preds = %30
  %33 = and i64 %3, -4, !dbg !1269
  %34 = getelementptr [0 x i8], [0 x i8]* %2, i64 0, i64 %33, !dbg !1269
  %35 = add i64 %33, -4, !dbg !1269
  %36 = lshr exact i64 %35, 2, !dbg !1269
  %37 = add nuw nsw i64 %36, 1, !dbg !1269
  %38 = and i64 %37, 1, !dbg !1269
  %39 = icmp eq i64 %35, 0, !dbg !1269
  br i1 %39, label %79, label %40, !dbg !1269

40:                                               ; preds = %32
  %41 = and i64 %37, 9223372036854775806, !dbg !1269
  br label %42, !dbg !1269

42:                                               ; preds = %42, %40
  %43 = phi i64 [ 0, %40 ], [ %76, %42 ]
  %44 = phi <2 x i64> [ zeroinitializer, %40 ], [ %74, %42 ]
  %45 = phi <2 x i64> [ zeroinitializer, %40 ], [ %75, %42 ]
  %46 = phi i64 [ %41, %40 ], [ %77, %42 ]
  %47 = getelementptr [0 x i8], [0 x i8]* %2, i64 0, i64 %43
  %48 = bitcast i8* %47 to <2 x i8>*, !dbg !1270
  %49 = load <2 x i8>, <2 x i8>* %48, align 1, !dbg !1270, !alias.scope !1271
  %50 = getelementptr i8, i8* %47, i64 2, !dbg !1270
  %51 = bitcast i8* %50 to <2 x i8>*, !dbg !1270
  %52 = load <2 x i8>, <2 x i8>* %51, align 1, !dbg !1270, !alias.scope !1271
  %53 = and <2 x i8> %49, <i8 -64, i8 -64>, !dbg !1274
  %54 = and <2 x i8> %52, <i8 -64, i8 -64>, !dbg !1274
  %55 = icmp ne <2 x i8> %53, <i8 -128, i8 -128>, !dbg !1274
  %56 = icmp ne <2 x i8> %54, <i8 -128, i8 -128>, !dbg !1274
  %57 = zext <2 x i1> %55 to <2 x i64>, !dbg !1289
  %58 = zext <2 x i1> %56 to <2 x i64>, !dbg !1289
  %59 = add <2 x i64> %44, %57, !dbg !1290
  %60 = add <2 x i64> %45, %58, !dbg !1290
  %61 = or i64 %43, 4
  %62 = getelementptr [0 x i8], [0 x i8]* %2, i64 0, i64 %61
  %63 = bitcast i8* %62 to <2 x i8>*, !dbg !1270
  %64 = load <2 x i8>, <2 x i8>* %63, align 1, !dbg !1270, !alias.scope !1271
  %65 = getelementptr i8, i8* %62, i64 2, !dbg !1270
  %66 = bitcast i8* %65 to <2 x i8>*, !dbg !1270
  %67 = load <2 x i8>, <2 x i8>* %66, align 1, !dbg !1270, !alias.scope !1271
  %68 = and <2 x i8> %64, <i8 -64, i8 -64>, !dbg !1274
  %69 = and <2 x i8> %67, <i8 -64, i8 -64>, !dbg !1274
  %70 = icmp ne <2 x i8> %68, <i8 -128, i8 -128>, !dbg !1274
  %71 = icmp ne <2 x i8> %69, <i8 -128, i8 -128>, !dbg !1274
  %72 = zext <2 x i1> %70 to <2 x i64>, !dbg !1289
  %73 = zext <2 x i1> %71 to <2 x i64>, !dbg !1289
  %74 = add <2 x i64> %59, %72, !dbg !1290
  %75 = add <2 x i64> %60, %73, !dbg !1290
  %76 = add i64 %43, 8
  %77 = add i64 %46, -2
  %78 = icmp eq i64 %77, 0
  br i1 %78, label %79, label %42, !llvm.loop !1299

79:                                               ; preds = %42, %32
  %80 = phi <2 x i64> [ undef, %32 ], [ %74, %42 ]
  %81 = phi <2 x i64> [ undef, %32 ], [ %75, %42 ]
  %82 = phi i64 [ 0, %32 ], [ %76, %42 ]
  %83 = phi <2 x i64> [ zeroinitializer, %32 ], [ %74, %42 ]
  %84 = phi <2 x i64> [ zeroinitializer, %32 ], [ %75, %42 ]
  %85 = icmp eq i64 %38, 0
  br i1 %85, label %101, label %86

86:                                               ; preds = %79
  %87 = getelementptr [0 x i8], [0 x i8]* %2, i64 0, i64 %82
  %88 = getelementptr i8, i8* %87, i64 2, !dbg !1270
  %89 = bitcast i8* %88 to <2 x i8>*, !dbg !1270
  %90 = load <2 x i8>, <2 x i8>* %89, align 1, !dbg !1270, !alias.scope !1271
  %91 = and <2 x i8> %90, <i8 -64, i8 -64>, !dbg !1274
  %92 = icmp ne <2 x i8> %91, <i8 -128, i8 -128>, !dbg !1274
  %93 = zext <2 x i1> %92 to <2 x i64>, !dbg !1289
  %94 = add <2 x i64> %84, %93, !dbg !1290
  %95 = bitcast i8* %87 to <2 x i8>*, !dbg !1270
  %96 = load <2 x i8>, <2 x i8>* %95, align 1, !dbg !1270, !alias.scope !1271
  %97 = and <2 x i8> %96, <i8 -64, i8 -64>, !dbg !1274
  %98 = icmp ne <2 x i8> %97, <i8 -128, i8 -128>, !dbg !1274
  %99 = zext <2 x i1> %98 to <2 x i64>, !dbg !1289
  %100 = add <2 x i64> %83, %99, !dbg !1290
  br label %101, !dbg !1269

101:                                              ; preds = %86, %79
  %102 = phi <2 x i64> [ %80, %79 ], [ %100, %86 ], !dbg !1290
  %103 = phi <2 x i64> [ %81, %79 ], [ %94, %86 ], !dbg !1290
  %104 = add <2 x i64> %103, %102, !dbg !1269
  %105 = call i64 @llvm.experimental.vector.reduce.add.v2i64(<2 x i64> %104), !dbg !1269
  %106 = icmp eq i64 %33, %3, !dbg !1269
  br i1 %106, label %120, label %107, !dbg !1269

107:                                              ; preds = %101, %30
  %108 = phi i64 [ 0, %30 ], [ %105, %101 ]
  %109 = phi i8* [ %27, %30 ], [ %34, %101 ]
  br label %110, !dbg !1269

110:                                              ; preds = %110, %107
  %111 = phi i64 [ %118, %110 ], [ %108, %107 ]
  %112 = phi i8* [ %113, %110 ], [ %109, %107 ]
  %113 = getelementptr inbounds i8, i8* %112, i64 1, !dbg !1301
  %114 = load i8, i8* %112, align 1, !dbg !1270, !alias.scope !1271
  %115 = and i8 %114, -64, !dbg !1274
  %116 = icmp ne i8 %115, -128, !dbg !1274
  %117 = zext i1 %116 to i64, !dbg !1289
  %118 = add i64 %111, %117, !dbg !1290
  %119 = icmp eq i8* %113, %28, !dbg !1236
  br i1 %119, label %120, label %110, !dbg !1269, !llvm.loop !1305

120:                                              ; preds = %110, %101, %26
  %121 = phi i64 [ 0, %26 ], [ %105, %101 ], [ %118, %110 ], !dbg !1307
  %122 = add i64 %121, %23, !dbg !1308
  br label %123, !dbg !1217

123:                                              ; preds = %120, %20
  %124 = phi i8* [ %27, %120 ], [ null, %20 ], !dbg !1216
  %125 = phi i64 [ %122, %120 ], [ %23, %20 ], !dbg !1216
  %126 = getelementptr inbounds %"core::fmt::Formatter", %"core::fmt::Formatter"* %0, i64 0, i32 0, i64 0, !dbg !1309
  %127 = load i64, i64* %126, align 8, !dbg !1309, !range !692
  %128 = icmp eq i64 %127, 1, !dbg !1309
  br i1 %128, label %140, label %129, !dbg !1309

129:                                              ; preds = %123
; call core::fmt::Formatter::pad_integral::write_prefix
  %130 = tail call fastcc zeroext i1 @_ZN4core3fmt9Formatter12pad_integral12write_prefix17h89d94f6859d81915E(%"core::fmt::Formatter"* nonnull align 8 dereferenceable(64) %0, i32 %22, i8* noalias readonly align 1 %124, i64 %3), !dbg !1310
  br i1 %130, label %265, label %131, !dbg !1311

131:                                              ; preds = %129
  %132 = getelementptr inbounds %"core::fmt::Formatter", %"core::fmt::Formatter"* %0, i64 0, i32 5, i32 0, !dbg !1312
  %133 = load {}*, {}** %132, align 8, !dbg !1312, !nonnull !4
  %134 = getelementptr inbounds %"core::fmt::Formatter", %"core::fmt::Formatter"* %0, i64 0, i32 5, i32 1, !dbg !1312
  %135 = bitcast [3 x i64]** %134 to i1 ({}*, [0 x i8]*, i64)***, !dbg !1312
  %136 = load i1 ({}*, [0 x i8]*, i64)**, i1 ({}*, [0 x i8]*, i64)*** %135, align 8, !dbg !1312, !nonnull !4
  %137 = getelementptr inbounds i1 ({}*, [0 x i8]*, i64)*, i1 ({}*, [0 x i8]*, i64)** %136, i64 3, !dbg !1312
  %138 = load i1 ({}*, [0 x i8]*, i64)*, i1 ({}*, [0 x i8]*, i64)** %137, align 8, !dbg !1312, !invariant.load !4, !nonnull !4
  %139 = tail call zeroext i1 %138({}* nonnull align 1 %133, [0 x i8]* noalias nonnull readonly align 1 %4, i64 %5), !dbg !1312
  br label %265, !dbg !1313

140:                                              ; preds = %123
  %141 = getelementptr inbounds %"core::fmt::Formatter", %"core::fmt::Formatter"* %0, i64 0, i32 1, i32 1, !dbg !1314
  %142 = load i64, i64* %141, align 8, !dbg !1315
  %143 = icmp ugt i64 %142, %125, !dbg !1316
  br i1 %143, label %146, label %144, !dbg !1316

144:                                              ; preds = %140
; call core::fmt::Formatter::pad_integral::write_prefix
  %145 = tail call fastcc zeroext i1 @_ZN4core3fmt9Formatter12pad_integral12write_prefix17h89d94f6859d81915E(%"core::fmt::Formatter"* nonnull align 8 dereferenceable(64) %0, i32 %22, i8* noalias readonly align 1 %124, i64 %3), !dbg !1317
  br i1 %145, label %265, label %149, !dbg !1318

146:                                              ; preds = %140
  %147 = and i32 %21, 8, !dbg !1319
  %148 = icmp eq i32 %147, 0, !dbg !1319
  br i1 %148, label %164, label %158, !dbg !1322

149:                                              ; preds = %144
  %150 = getelementptr inbounds %"core::fmt::Formatter", %"core::fmt::Formatter"* %0, i64 0, i32 5, i32 0, !dbg !1323
  %151 = load {}*, {}** %150, align 8, !dbg !1323, !nonnull !4
  %152 = getelementptr inbounds %"core::fmt::Formatter", %"core::fmt::Formatter"* %0, i64 0, i32 5, i32 1, !dbg !1323
  %153 = bitcast [3 x i64]** %152 to i1 ({}*, [0 x i8]*, i64)***, !dbg !1323
  %154 = load i1 ({}*, [0 x i8]*, i64)**, i1 ({}*, [0 x i8]*, i64)*** %153, align 8, !dbg !1323, !nonnull !4
  %155 = getelementptr inbounds i1 ({}*, [0 x i8]*, i64)*, i1 ({}*, [0 x i8]*, i64)** %154, i64 3, !dbg !1323
  %156 = load i1 ({}*, [0 x i8]*, i64)*, i1 ({}*, [0 x i8]*, i64)** %155, align 8, !dbg !1323, !invariant.load !4, !nonnull !4
  %157 = tail call zeroext i1 %156({}* nonnull align 1 %151, [0 x i8]* noalias nonnull readonly align 1 %4, i64 %5), !dbg !1323
  br label %265, !dbg !1313

158:                                              ; preds = %146
  %159 = getelementptr inbounds %"core::fmt::Formatter", %"core::fmt::Formatter"* %0, i64 0, i32 9, !dbg !1324
  %160 = load i32, i32* %159, align 4, !dbg !1325
  store i32 48, i32* %159, align 4, !dbg !1333
  %161 = getelementptr inbounds %"core::fmt::Formatter", %"core::fmt::Formatter"* %0, i64 0, i32 11, !dbg !1336
  %162 = load i8, i8* %161, align 8, !dbg !1337
  store i8 1, i8* %161, align 8, !dbg !1344
; call core::fmt::Formatter::pad_integral::write_prefix
  %163 = tail call fastcc zeroext i1 @_ZN4core3fmt9Formatter12pad_integral12write_prefix17h89d94f6859d81915E(%"core::fmt::Formatter"* nonnull align 8 dereferenceable(64) %0, i32 %22, i8* noalias readonly align 1 %124, i64 %3), !dbg !1347
  br i1 %163, label %265, label %194, !dbg !1348

164:                                              ; preds = %146
  %165 = sub i64 %142, %125, !dbg !1349
  %166 = getelementptr inbounds %"core::fmt::Formatter", %"core::fmt::Formatter"* %0, i64 0, i32 11, !dbg !1350
  %167 = load i8, i8* %166, align 8, !dbg !1350, !range !1353
  %168 = icmp eq i8 %167, 3, !dbg !1350
  %169 = select i1 %168, i8 1, i8 %167, !dbg !1354
  switch i8 %169, label %174 [
    i8 0, label %176
    i8 1, label %175
    i8 2, label %170
    i8 3, label %175
  ], !dbg !1355

170:                                              ; preds = %164
  %171 = lshr i64 %165, 1, !dbg !1356
  %172 = add i64 %165, 1, !dbg !1357
  %173 = lshr i64 %172, 1, !dbg !1357
  br label %176, !dbg !1358

174:                                              ; preds = %164
  unreachable, !dbg !1359

175:                                              ; preds = %164, %164
  br label %176, !dbg !1358

176:                                              ; preds = %175, %170, %164
  %177 = phi i64 [ %173, %170 ], [ 0, %175 ], [ %165, %164 ], !dbg !1360
  %178 = phi i64 [ %171, %170 ], [ %165, %175 ], [ 0, %164 ], !dbg !1360
  %179 = getelementptr inbounds %"core::fmt::Formatter", %"core::fmt::Formatter"* %0, i64 0, i32 5, i32 0, !dbg !1360
  %180 = getelementptr inbounds %"core::fmt::Formatter", %"core::fmt::Formatter"* %0, i64 0, i32 5, i32 1, !dbg !1360
  %181 = bitcast [3 x i64]** %180 to i1 ({}*, i32)***, !dbg !1360
  %182 = getelementptr inbounds %"core::fmt::Formatter", %"core::fmt::Formatter"* %0, i64 0, i32 9, !dbg !1360
  br label %183, !dbg !1361

183:                                              ; preds = %186, %176
  %184 = phi i64 [ 0, %176 ], [ %187, %186 ], !dbg !1360
  %185 = icmp eq i64 %184, %178, !dbg !1362
  br i1 %185, label %243, label %186, !dbg !1369

186:                                              ; preds = %183
  %187 = add i64 %184, 1, !dbg !1370
  %188 = load {}*, {}** %179, align 8, !dbg !1376, !nonnull !4
  %189 = load i1 ({}*, i32)**, i1 ({}*, i32)*** %181, align 8, !dbg !1376, !nonnull !4
  %190 = load i32, i32* %182, align 4, !dbg !1377, !range !1378
  %191 = getelementptr inbounds i1 ({}*, i32)*, i1 ({}*, i32)** %189, i64 4, !dbg !1376
  %192 = load i1 ({}*, i32)*, i1 ({}*, i32)** %191, align 8, !dbg !1376, !invariant.load !4, !nonnull !4
  %193 = tail call zeroext i1 %192({}* nonnull align 1 %188, i32 %190), !dbg !1376
  br i1 %193, label %265, label %183, !dbg !1379

194:                                              ; preds = %158
  %195 = sub i64 %142, %125, !dbg !1380
  %196 = load i8, i8* %161, align 8, !dbg !1381, !range !1353
  %197 = icmp eq i8 %196, 3, !dbg !1381
  %198 = select i1 %197, i8 1, i8 %196, !dbg !1383
  switch i8 %198, label %203 [
    i8 0, label %205
    i8 1, label %204
    i8 2, label %199
    i8 3, label %204
  ], !dbg !1384

199:                                              ; preds = %194
  %200 = lshr i64 %195, 1, !dbg !1385
  %201 = add i64 %195, 1, !dbg !1386
  %202 = lshr i64 %201, 1, !dbg !1386
  br label %205, !dbg !1387

203:                                              ; preds = %194
  unreachable, !dbg !1388

204:                                              ; preds = %194, %194
  br label %205, !dbg !1387

205:                                              ; preds = %204, %199, %194
  %206 = phi i64 [ %202, %199 ], [ 0, %204 ], [ %195, %194 ], !dbg !1389
  %207 = phi i64 [ %200, %199 ], [ %195, %204 ], [ 0, %194 ], !dbg !1389
  %208 = getelementptr inbounds %"core::fmt::Formatter", %"core::fmt::Formatter"* %0, i64 0, i32 5, i32 0, !dbg !1389
  %209 = getelementptr inbounds %"core::fmt::Formatter", %"core::fmt::Formatter"* %0, i64 0, i32 5, i32 1, !dbg !1389
  %210 = bitcast [3 x i64]** %209 to i1 ({}*, i32)***, !dbg !1389
  br label %211, !dbg !1390

211:                                              ; preds = %214, %205
  %212 = phi i64 [ 0, %205 ], [ %215, %214 ], !dbg !1389
  %213 = icmp eq i64 %212, %207, !dbg !1391
  br i1 %213, label %222, label %214, !dbg !1394

214:                                              ; preds = %211
  %215 = add i64 %212, 1, !dbg !1395
  %216 = load {}*, {}** %208, align 8, !dbg !1398, !nonnull !4
  %217 = load i1 ({}*, i32)**, i1 ({}*, i32)*** %210, align 8, !dbg !1398, !nonnull !4
  %218 = load i32, i32* %159, align 4, !dbg !1399, !range !1378
  %219 = getelementptr inbounds i1 ({}*, i32)*, i1 ({}*, i32)** %217, i64 4, !dbg !1398
  %220 = load i1 ({}*, i32)*, i1 ({}*, i32)** %219, align 8, !dbg !1398, !invariant.load !4, !nonnull !4
  %221 = tail call zeroext i1 %220({}* nonnull align 1 %216, i32 %218), !dbg !1398
  br i1 %221, label %265, label %211, !dbg !1400

222:                                              ; preds = %211
  %223 = load i32, i32* %159, align 4, !dbg !1401, !range !1378
  %224 = load {}*, {}** %208, align 8, !dbg !1402, !nonnull !4
  %225 = bitcast [3 x i64]** %209 to i1 ({}*, [0 x i8]*, i64)***, !dbg !1402
  %226 = load i1 ({}*, [0 x i8]*, i64)**, i1 ({}*, [0 x i8]*, i64)*** %225, align 8, !dbg !1402, !nonnull !4
  %227 = getelementptr inbounds i1 ({}*, [0 x i8]*, i64)*, i1 ({}*, [0 x i8]*, i64)** %226, i64 3, !dbg !1402
  %228 = load i1 ({}*, [0 x i8]*, i64)*, i1 ({}*, [0 x i8]*, i64)** %227, align 8, !dbg !1402, !invariant.load !4, !nonnull !4
  %229 = tail call zeroext i1 %228({}* nonnull align 1 %224, [0 x i8]* noalias nonnull readonly align 1 %4, i64 %5), !dbg !1402
  br i1 %229, label %265, label %230, !dbg !1403

230:                                              ; preds = %222
  %231 = load {}*, {}** %208, align 8, !dbg !1404, !nonnull !4
  %232 = load [3 x i64]*, [3 x i64]** %209, align 8, !dbg !1404, !nonnull !4
  %233 = getelementptr inbounds [3 x i64], [3 x i64]* %232, i64 0, i64 4, !dbg !1405
  %234 = bitcast i64* %233 to i1 ({}*, i32)**, !dbg !1405
  br label %235, !dbg !1409

235:                                              ; preds = %238, %230
  %236 = phi i64 [ 0, %230 ], [ %239, %238 ], !dbg !1405
  %237 = icmp eq i64 %236, %206, !dbg !1410
  br i1 %237, label %242, label %238, !dbg !1413

238:                                              ; preds = %235
  %239 = add i64 %236, 1, !dbg !1414
  %240 = load i1 ({}*, i32)*, i1 ({}*, i32)** %234, align 8, !dbg !1417, !invariant.load !4, !alias.scope !1418, !nonnull !4
  %241 = tail call zeroext i1 %240({}* nonnull align 1 %231, i32 %223), !dbg !1417, !noalias !1418
  br i1 %241, label %265, label %235, !dbg !1421

242:                                              ; preds = %235
  store i32 %160, i32* %159, align 4, !dbg !1422
  store i8 %162, i8* %161, align 8, !dbg !1423
  br label %265, !dbg !1313

243:                                              ; preds = %183
  %244 = load i32, i32* %182, align 4, !dbg !1424, !range !1378
; call core::fmt::Formatter::pad_integral::write_prefix
  %245 = tail call fastcc zeroext i1 @_ZN4core3fmt9Formatter12pad_integral12write_prefix17h89d94f6859d81915E(%"core::fmt::Formatter"* nonnull align 8 dereferenceable(64) %0, i32 %22, i8* noalias readonly align 1 %124, i64 %3), !dbg !1425
  br i1 %245, label %265, label %246, !dbg !1426

246:                                              ; preds = %243
  %247 = load {}*, {}** %179, align 8, !dbg !1427, !nonnull !4
  %248 = bitcast [3 x i64]** %180 to i1 ({}*, [0 x i8]*, i64)***, !dbg !1427
  %249 = load i1 ({}*, [0 x i8]*, i64)**, i1 ({}*, [0 x i8]*, i64)*** %248, align 8, !dbg !1427, !nonnull !4
  %250 = getelementptr inbounds i1 ({}*, [0 x i8]*, i64)*, i1 ({}*, [0 x i8]*, i64)** %249, i64 3, !dbg !1427
  %251 = load i1 ({}*, [0 x i8]*, i64)*, i1 ({}*, [0 x i8]*, i64)** %250, align 8, !dbg !1427, !invariant.load !4, !nonnull !4
  %252 = tail call zeroext i1 %251({}* nonnull align 1 %247, [0 x i8]* noalias nonnull readonly align 1 %4, i64 %5), !dbg !1427
  br i1 %252, label %265, label %253, !dbg !1428

253:                                              ; preds = %246
  %254 = load {}*, {}** %179, align 8, !dbg !1429, !nonnull !4
  %255 = load [3 x i64]*, [3 x i64]** %180, align 8, !dbg !1429, !nonnull !4
  %256 = getelementptr inbounds [3 x i64], [3 x i64]* %255, i64 0, i64 4, !dbg !1430
  %257 = bitcast i64* %256 to i1 ({}*, i32)**, !dbg !1430
  br label %258, !dbg !1432

258:                                              ; preds = %261, %253
  %259 = phi i64 [ 0, %253 ], [ %262, %261 ], !dbg !1430
  %260 = icmp eq i64 %259, %177, !dbg !1433
  br i1 %260, label %265, label %261, !dbg !1436

261:                                              ; preds = %258
  %262 = add i64 %259, 1, !dbg !1437
  %263 = load i1 ({}*, i32)*, i1 ({}*, i32)** %257, align 8, !dbg !1440, !invariant.load !4, !alias.scope !1441, !nonnull !4
  %264 = tail call zeroext i1 %263({}* nonnull align 1 %254, i32 %244), !dbg !1440, !noalias !1441
  br i1 %264, label %265, label %258, !dbg !1444

265:                                              ; preds = %261, %258, %246, %243, %242, %238, %222, %214, %186, %158, %149, %144, %131, %129
  %266 = phi i1 [ %139, %131 ], [ %157, %149 ], [ false, %242 ], [ true, %129 ], [ true, %144 ], [ true, %158 ], [ true, %222 ], [ true, %243 ], [ true, %246 ], [ true, %261 ], [ false, %258 ], [ true, %186 ], [ true, %238 ], [ true, %214 ], !dbg !1216
  ret i1 %266, !dbg !1445
}

; Function Attrs: argmemonly nounwind willreturn
declare void @llvm.lifetime.end.p0i8(i64 immarg, i8* nocapture) #8

; Function Attrs: nounwind readnone willreturn
declare i64 @llvm.experimental.vector.reduce.add.v2i64(<2 x i64>) #9

; core::fmt::Formatter::pad_integral::write_prefix
; Function Attrs: noinline nounwind nonlazybind uwtable
define internal fastcc zeroext i1 @_ZN4core3fmt9Formatter12pad_integral12write_prefix17h89d94f6859d81915E(%"core::fmt::Formatter"* nocapture readonly align 8 dereferenceable(64) %0, i32 %1, i8* noalias readonly align 1 %2, i64 %3) unnamed_addr #18 !dbg !1446 {
  %5 = icmp eq i32 %1, 1114112, !dbg !1448
  br i1 %5, label %15, label %6, !dbg !1448

6:                                                ; preds = %4
  %7 = getelementptr inbounds %"core::fmt::Formatter", %"core::fmt::Formatter"* %0, i64 0, i32 5, i32 0, !dbg !1449
  %8 = load {}*, {}** %7, align 8, !dbg !1449, !nonnull !4
  %9 = getelementptr inbounds %"core::fmt::Formatter", %"core::fmt::Formatter"* %0, i64 0, i32 5, i32 1, !dbg !1449
  %10 = bitcast [3 x i64]** %9 to i1 ({}*, i32)***, !dbg !1449
  %11 = load i1 ({}*, i32)**, i1 ({}*, i32)*** %10, align 8, !dbg !1449, !nonnull !4
  %12 = getelementptr inbounds i1 ({}*, i32)*, i1 ({}*, i32)** %11, i64 4, !dbg !1449
  %13 = load i1 ({}*, i32)*, i1 ({}*, i32)** %12, align 8, !dbg !1449, !invariant.load !4, !nonnull !4
  %14 = tail call zeroext i1 %13({}* nonnull align 1 %8, i32 %1), !dbg !1449
  br i1 %14, label %27, label %15, !dbg !1450

15:                                               ; preds = %6, %4
  %16 = icmp eq i8* %2, null, !dbg !1451
  br i1 %16, label %27, label %17, !dbg !1451

17:                                               ; preds = %15
  %18 = bitcast i8* %2 to [0 x i8]*, !dbg !1452
  %19 = getelementptr inbounds %"core::fmt::Formatter", %"core::fmt::Formatter"* %0, i64 0, i32 5, i32 0, !dbg !1453
  %20 = load {}*, {}** %19, align 8, !dbg !1453, !nonnull !4
  %21 = getelementptr inbounds %"core::fmt::Formatter", %"core::fmt::Formatter"* %0, i64 0, i32 5, i32 1, !dbg !1453
  %22 = bitcast [3 x i64]** %21 to i1 ({}*, [0 x i8]*, i64)***, !dbg !1453
  %23 = load i1 ({}*, [0 x i8]*, i64)**, i1 ({}*, [0 x i8]*, i64)*** %22, align 8, !dbg !1453, !nonnull !4
  %24 = getelementptr inbounds i1 ({}*, [0 x i8]*, i64)*, i1 ({}*, [0 x i8]*, i64)** %23, i64 3, !dbg !1453
  %25 = load i1 ({}*, [0 x i8]*, i64)*, i1 ({}*, [0 x i8]*, i64)** %24, align 8, !dbg !1453, !invariant.load !4, !nonnull !4
  %26 = tail call zeroext i1 %25({}* nonnull align 1 %20, [0 x i8]* noalias nonnull readonly align 1 %18, i64 %3), !dbg !1453
  br label %27, !dbg !1454

27:                                               ; preds = %17, %15, %6
  %28 = phi i1 [ %26, %17 ], [ false, %15 ], [ true, %6 ]
  ret i1 %28, !dbg !1455
}

; core::slice::index::slice_end_index_len_fail
; Function Attrs: cold noinline noreturn nounwind nonlazybind uwtable
define internal void @_ZN4core5slice5index24slice_end_index_len_fail17h76d9198f7f9a8157E(i64 %0, i64 %1, %"core::panic::Location"* noalias readonly align 8 dereferenceable(24) %2) unnamed_addr #14 !dbg !1456 {
  %4 = alloca [2 x { i8*, i64* }], align 8
  %5 = alloca %"core::fmt::Arguments", align 8
  %6 = alloca i64, align 8
  %7 = alloca i64, align 8
  store i64 %0, i64* %7, align 8
  store i64 %1, i64* %6, align 8
  %8 = bitcast %"core::fmt::Arguments"* %5 to i8*, !dbg !1458
  call void @llvm.lifetime.start.p0i8(i64 48, i8* nonnull %8), !dbg !1458
  %9 = bitcast [2 x { i8*, i64* }]* %4 to i8*, !dbg !1458
  call void @llvm.lifetime.start.p0i8(i64 32, i8* nonnull %9), !dbg !1458
  %10 = bitcast [2 x { i8*, i64* }]* %4 to i64**, !dbg !1458
  store i64* %7, i64** %10, align 8, !dbg !1458
  %11 = getelementptr inbounds [2 x { i8*, i64* }], [2 x { i8*, i64* }]* %4, i64 0, i64 0, i32 1, !dbg !1458
  store i64* bitcast (i1 (i64*, %"core::fmt::Formatter"*)* @"_ZN4core3fmt3num3imp52_$LT$impl$u20$core..fmt..Display$u20$for$u20$u64$GT$3fmt17h48d894a52c575073E" to i64*), i64** %11, align 8, !dbg !1458
  %12 = getelementptr inbounds [2 x { i8*, i64* }], [2 x { i8*, i64* }]* %4, i64 0, i64 1, i32 0, !dbg !1458
  %13 = bitcast i8** %12 to i64**, !dbg !1458
  store i64* %6, i64** %13, align 8, !dbg !1458
  %14 = getelementptr inbounds [2 x { i8*, i64* }], [2 x { i8*, i64* }]* %4, i64 0, i64 1, i32 1, !dbg !1458
  store i64* bitcast (i1 (i64*, %"core::fmt::Formatter"*)* @"_ZN4core3fmt3num3imp52_$LT$impl$u20$core..fmt..Display$u20$for$u20$u64$GT$3fmt17h48d894a52c575073E" to i64*), i64** %14, align 8, !dbg !1458
  %15 = bitcast %"core::fmt::Arguments"* %5 to [0 x { [0 x i8]*, i64 }]**, !dbg !1459
  store [0 x { [0 x i8]*, i64 }]* bitcast (<{ i8*, [8 x i8], i8*, [8 x i8] }>* @anon.965c706604096d42e5b155eaa3c30edf.247 to [0 x { [0 x i8]*, i64 }]*), [0 x { [0 x i8]*, i64 }]** %15, align 8, !dbg !1459, !alias.scope !1461, !noalias !1464
  %16 = getelementptr inbounds %"core::fmt::Arguments", %"core::fmt::Arguments"* %5, i64 0, i32 1, i32 1, !dbg !1459
  store i64 2, i64* %16, align 8, !dbg !1459, !alias.scope !1461, !noalias !1464
  %17 = getelementptr inbounds %"core::fmt::Arguments", %"core::fmt::Arguments"* %5, i64 0, i32 3, i32 0, !dbg !1459
  store i64* null, i64** %17, align 8, !dbg !1459, !alias.scope !1461, !noalias !1464
  %18 = getelementptr inbounds %"core::fmt::Arguments", %"core::fmt::Arguments"* %5, i64 0, i32 5, i32 0, !dbg !1459
  %19 = bitcast [0 x { i8*, i64* }]** %18 to [2 x { i8*, i64* }]**, !dbg !1459
  store [2 x { i8*, i64* }]* %4, [2 x { i8*, i64* }]** %19, align 8, !dbg !1459, !alias.scope !1461, !noalias !1464
  %20 = getelementptr inbounds %"core::fmt::Arguments", %"core::fmt::Arguments"* %5, i64 0, i32 5, i32 1, !dbg !1459
  store i64 2, i64* %20, align 8, !dbg !1459, !alias.scope !1461, !noalias !1464
; call core::panicking::panic_fmt
  call void @_ZN4core9panicking9panic_fmt17hcd56f7f635f62c74E(%"core::fmt::Arguments"* noalias nocapture nonnull dereferenceable(48) %5, %"core::panic::Location"* noalias nonnull readonly align 8 dereferenceable(24) %2), !dbg !1458
  unreachable, !dbg !1458
}

; core::fmt::Formatter::pad
; Function Attrs: nounwind nonlazybind uwtable
define internal zeroext i1 @_ZN4core3fmt9Formatter3pad17h2bed62c7a96ce09cE(%"core::fmt::Formatter"* nocapture readonly align 8 dereferenceable(64) %0, [0 x i8]* noalias nonnull readonly align 1 %1, i64 %2) unnamed_addr #15 personality i32 (...)* @rust_eh_personality !dbg !1467 {
  %4 = getelementptr inbounds %"core::fmt::Formatter", %"core::fmt::Formatter"* %0, i64 0, i32 0, i64 0, !dbg !1468
  %5 = load i64, i64* %4, align 8, !dbg !1468
  %6 = icmp eq i64 %5, 1, !dbg !1469
  %7 = getelementptr inbounds %"core::fmt::Formatter", %"core::fmt::Formatter"* %0, i64 0, i32 3, i32 0, !dbg !1476
  %8 = load i64, i64* %7, align 8, !dbg !1476
  %9 = icmp eq i64 %8, 1, !dbg !1476
  br i1 %6, label %10, label %11, !dbg !1468

10:                                               ; preds = %3
  br i1 %9, label %21, label %169, !dbg !1477

11:                                               ; preds = %3
  br i1 %9, label %21, label %12, !dbg !1468

12:                                               ; preds = %11
  %13 = getelementptr inbounds %"core::fmt::Formatter", %"core::fmt::Formatter"* %0, i64 0, i32 5, i32 0, !dbg !1478
  %14 = load {}*, {}** %13, align 8, !dbg !1478, !nonnull !4
  %15 = getelementptr inbounds %"core::fmt::Formatter", %"core::fmt::Formatter"* %0, i64 0, i32 5, i32 1, !dbg !1478
  %16 = bitcast [3 x i64]** %15 to i1 ({}*, [0 x i8]*, i64)***, !dbg !1478
  %17 = load i1 ({}*, [0 x i8]*, i64)**, i1 ({}*, [0 x i8]*, i64)*** %16, align 8, !dbg !1478, !nonnull !4
  %18 = getelementptr inbounds i1 ({}*, [0 x i8]*, i64)*, i1 ({}*, [0 x i8]*, i64)** %17, i64 3, !dbg !1478
  %19 = load i1 ({}*, [0 x i8]*, i64)*, i1 ({}*, [0 x i8]*, i64)** %18, align 8, !dbg !1478, !invariant.load !4, !nonnull !4
  %20 = tail call zeroext i1 %19({}* nonnull align 1 %14, [0 x i8]* noalias nonnull readonly align 1 %1, i64 %2), !dbg !1478
  br label %425, !dbg !1479

21:                                               ; preds = %11, %10
  %22 = getelementptr inbounds %"core::fmt::Formatter", %"core::fmt::Formatter"* %0, i64 0, i32 3, i32 1, !dbg !1482
  %23 = load i64, i64* %22, align 8, !dbg !1482
  %24 = getelementptr [0 x i8], [0 x i8]* %1, i64 0, i64 0, !dbg !1483
  %25 = getelementptr inbounds [0 x i8], [0 x i8]* %1, i64 0, i64 %2, !dbg !1490
  %26 = ptrtoint [0 x i8]* %1 to i64, !dbg !1493
  %27 = icmp eq i64 %23, 0, !dbg !1494
  br i1 %27, label %91, label %28, !dbg !1501

28:                                               ; preds = %86, %21
  %29 = phi i64 [ %89, %86 ], [ 0, %21 ], !dbg !1476
  %30 = phi i64 [ %87, %86 ], [ %26, %21 ], !dbg !1502
  %31 = phi i64 [ %32, %86 ], [ 0, %21 ]
  %32 = add nuw i64 %31, 1, !dbg !1507
  %33 = inttoptr i64 %30 to i8*, !dbg !1510
  %34 = icmp eq i8* %25, %33, !dbg !1510
  br i1 %34, label %156, label %35, !dbg !1516

35:                                               ; preds = %28
  %36 = getelementptr inbounds i8, i8* %33, i64 1, !dbg !1517
  %37 = load i8, i8* %33, align 1, !dbg !1520
  %38 = icmp sgt i8 %37, -1, !dbg !1521
  %39 = ptrtoint i8* %36 to i64, !dbg !1522
  br i1 %38, label %86, label %40, !dbg !1522

40:                                               ; preds = %35
  %41 = zext i8 %37 to i32, !dbg !1523
  %42 = icmp eq i8* %36, %25, !dbg !1526
  br i1 %42, label %49, label %43, !dbg !1528

43:                                               ; preds = %40
  %44 = getelementptr inbounds i8, i8* %33, i64 2, !dbg !1529
  %45 = load i8, i8* %36, align 1, !dbg !1532, !alias.scope !1535
  %46 = and i8 %45, 63, !dbg !1538
  %47 = zext i8 %46 to i32, !dbg !1538
  %48 = ptrtoint i8* %44 to i64, !dbg !1538
  br label %49, !dbg !1538

49:                                               ; preds = %43, %40
  %50 = phi i64 [ %48, %43 ], [ %39, %40 ]
  %51 = phi i8* [ %44, %43 ], [ %25, %40 ]
  %52 = phi i32 [ %47, %43 ], [ 0, %40 ]
  %53 = icmp ugt i8 %37, -33, !dbg !1539
  br i1 %53, label %54, label %86, !dbg !1540

54:                                               ; preds = %49
  %55 = icmp eq i8* %51, %25, !dbg !1541
  br i1 %55, label %62, label %56, !dbg !1543

56:                                               ; preds = %54
  %57 = getelementptr inbounds i8, i8* %51, i64 1, !dbg !1544
  %58 = load i8, i8* %51, align 1, !dbg !1547, !alias.scope !1549
  %59 = and i8 %58, 63, !dbg !1552
  %60 = zext i8 %59 to i32, !dbg !1552
  %61 = ptrtoint i8* %57 to i64, !dbg !1552
  br label %62, !dbg !1552

62:                                               ; preds = %56, %54
  %63 = phi i64 [ %61, %56 ], [ %50, %54 ]
  %64 = phi i8* [ %57, %56 ], [ %25, %54 ]
  %65 = phi i32 [ %60, %56 ], [ 0, %54 ]
  %66 = icmp ugt i8 %37, -17, !dbg !1553
  br i1 %66, label %67, label %86, !dbg !1554

67:                                               ; preds = %62
  %68 = icmp eq i8* %64, %25, !dbg !1555
  br i1 %68, label %75, label %69, !dbg !1557

69:                                               ; preds = %67
  %70 = getelementptr inbounds i8, i8* %64, i64 1, !dbg !1558
  %71 = load i8, i8* %64, align 1, !dbg !1561, !alias.scope !1563
  %72 = and i8 %71, 63, !dbg !1566
  %73 = zext i8 %72 to i32, !dbg !1566
  %74 = ptrtoint i8* %70 to i64, !dbg !1566
  br label %75, !dbg !1566

75:                                               ; preds = %69, %67
  %76 = phi i64 [ %74, %69 ], [ %63, %67 ]
  %77 = phi i32 [ %73, %69 ], [ 0, %67 ]
  %78 = shl nuw nsw i32 %41, 18, !dbg !1567
  %79 = and i32 %78, 1835008, !dbg !1567
  %80 = shl nuw nsw i32 %52, 12, !dbg !1568
  %81 = shl nuw nsw i32 %65, 6, !dbg !1568
  %82 = or i32 %80, %79, !dbg !1568
  %83 = or i32 %82, %81, !dbg !1568
  %84 = or i32 %83, %77, !dbg !1571
  %85 = icmp eq i32 %84, 1114112, !dbg !1572
  br i1 %85, label %156, label %86, !dbg !1572

86:                                               ; preds = %75, %62, %49, %35
  %87 = phi i64 [ %76, %75 ], [ %63, %62 ], [ %50, %49 ], [ %39, %35 ]
  %88 = sub i64 %87, %30, !dbg !1573
  %89 = add i64 %88, %29, !dbg !1574
  %90 = icmp eq i64 %32, %23, !dbg !1494
  br i1 %90, label %91, label %28, !dbg !1501

91:                                               ; preds = %86, %21
  %92 = phi i64 [ 0, %21 ], [ %89, %86 ], !dbg !1476
  %93 = phi i64 [ %26, %21 ], [ %87, %86 ], !dbg !1575
  %94 = inttoptr i64 %93 to i8*, !dbg !1578
  %95 = icmp eq i8* %25, %94, !dbg !1578
  br i1 %95, label %156, label %96, !dbg !1582

96:                                               ; preds = %91
  %97 = getelementptr inbounds i8, i8* %94, i64 1, !dbg !1583
  %98 = load i8, i8* %94, align 1, !dbg !1586
  %99 = icmp sgt i8 %98, -1, !dbg !1587
  br i1 %99, label %139, label %100, !dbg !1588

100:                                              ; preds = %96
  %101 = zext i8 %98 to i32, !dbg !1589
  %102 = icmp eq i8* %97, %25, !dbg !1591
  br i1 %102, label %109, label %103, !dbg !1593

103:                                              ; preds = %100
  %104 = getelementptr inbounds i8, i8* %94, i64 2, !dbg !1594
  %105 = load i8, i8* %97, align 1, !dbg !1597, !alias.scope !1599
  %106 = and i8 %105, 63, !dbg !1602
  %107 = zext i8 %106 to i32, !dbg !1602
  %108 = shl nuw nsw i32 %107, 6, !dbg !1602
  br label %109, !dbg !1602

109:                                              ; preds = %103, %100
  %110 = phi i8* [ %104, %103 ], [ %25, %100 ]
  %111 = phi i32 [ %108, %103 ], [ 0, %100 ]
  %112 = icmp ugt i8 %98, -33, !dbg !1603
  br i1 %112, label %113, label %139, !dbg !1604

113:                                              ; preds = %109
  %114 = icmp eq i8* %110, %25, !dbg !1605
  br i1 %114, label %120, label %115, !dbg !1607

115:                                              ; preds = %113
  %116 = getelementptr inbounds i8, i8* %110, i64 1, !dbg !1608
  %117 = load i8, i8* %110, align 1, !dbg !1611, !alias.scope !1613
  %118 = and i8 %117, 63, !dbg !1616
  %119 = zext i8 %118 to i32, !dbg !1616
  br label %120, !dbg !1616

120:                                              ; preds = %115, %113
  %121 = phi i8* [ %116, %115 ], [ %25, %113 ]
  %122 = phi i32 [ %119, %115 ], [ 0, %113 ]
  %123 = or i32 %122, %111, !dbg !1617
  %124 = icmp ugt i8 %98, -17, !dbg !1619
  br i1 %124, label %125, label %139, !dbg !1620

125:                                              ; preds = %120
  %126 = icmp eq i8* %121, %25, !dbg !1621
  br i1 %126, label %131, label %127, !dbg !1623

127:                                              ; preds = %125
  %128 = load i8, i8* %121, align 1, !dbg !1624, !alias.scope !1626
  %129 = and i8 %128, 63, !dbg !1629
  %130 = zext i8 %129 to i32, !dbg !1629
  br label %131, !dbg !1629

131:                                              ; preds = %127, %125
  %132 = phi i32 [ %130, %127 ], [ 0, %125 ]
  %133 = shl nuw nsw i32 %101, 18, !dbg !1630
  %134 = and i32 %133, 1835008, !dbg !1630
  %135 = shl nuw nsw i32 %123, 6, !dbg !1631
  %136 = or i32 %135, %134, !dbg !1631
  %137 = or i32 %136, %132, !dbg !1633
  %138 = icmp eq i32 %137, 1114112, !dbg !1634
  br i1 %138, label %156, label %139, !dbg !1634

139:                                              ; preds = %131, %120, %109, %96
  %140 = icmp eq i64 %92, 0, !dbg !1635
  %141 = icmp eq i64 %92, %2
  %142 = or i1 %140, %141, !dbg !1635
  br i1 %142, label %149, label %143, !dbg !1635

143:                                              ; preds = %139
  %144 = icmp ult i64 %92, %2, !dbg !1645
  br i1 %144, label %145, label %150, !dbg !1650

145:                                              ; preds = %143
  %146 = getelementptr inbounds [0 x i8], [0 x i8]* %1, i64 0, i64 %92
  %147 = load i8, i8* %146, align 1, !dbg !1651, !alias.scope !1652
  %148 = icmp sgt i8 %147, -65, !dbg !1659
  br i1 %148, label %149, label %150, !dbg !1660

149:                                              ; preds = %145, %139
  br label %150, !dbg !1660

150:                                              ; preds = %149, %145, %143
  %151 = phi i8* [ %24, %149 ], [ null, %145 ], [ null, %143 ], !dbg !1661
  %152 = icmp eq i8* %151, null, !dbg !1662
  %153 = bitcast i8* %151 to [0 x i8]*, !dbg !1662
  %154 = select i1 %152, [0 x i8]* %1, [0 x i8]* %153, !dbg !1662
  %155 = select i1 %152, i64 %2, i64 %92, !dbg !1662
  br label %156, !dbg !1665

156:                                              ; preds = %150, %131, %91, %75, %28
  %157 = phi [0 x i8]* [ %154, %150 ], [ %1, %131 ], [ %1, %91 ], [ %1, %28 ], [ %1, %75 ], !dbg !1476
  %158 = phi i64 [ %155, %150 ], [ %2, %131 ], [ %2, %91 ], [ %2, %28 ], [ %2, %75 ], !dbg !1476
  br i1 %6, label %169, label %159, !dbg !1666

159:                                              ; preds = %156
  %160 = getelementptr inbounds %"core::fmt::Formatter", %"core::fmt::Formatter"* %0, i64 0, i32 5, i32 0, !dbg !1667
  %161 = load {}*, {}** %160, align 8, !dbg !1667, !nonnull !4
  %162 = getelementptr inbounds %"core::fmt::Formatter", %"core::fmt::Formatter"* %0, i64 0, i32 5, i32 1, !dbg !1667
  %163 = bitcast [3 x i64]** %162 to i1 ({}*, [0 x i8]*, i64)***, !dbg !1667
  %164 = load i1 ({}*, [0 x i8]*, i64)**, i1 ({}*, [0 x i8]*, i64)*** %163, align 8, !dbg !1667, !nonnull !4
  %165 = icmp ne [0 x i8]* %157, null
  tail call void @llvm.assume(i1 %165)
  %166 = getelementptr inbounds i1 ({}*, [0 x i8]*, i64)*, i1 ({}*, [0 x i8]*, i64)** %164, i64 3, !dbg !1667
  %167 = load i1 ({}*, [0 x i8]*, i64)*, i1 ({}*, [0 x i8]*, i64)** %166, align 8, !dbg !1667, !invariant.load !4, !nonnull !4
  %168 = tail call zeroext i1 %167({}* nonnull align 1 %161, [0 x i8]* noalias nonnull readonly align 1 %157, i64 %158), !dbg !1667
  br label %425, !dbg !1668

169:                                              ; preds = %156, %10
  %170 = phi i64 [ %158, %156 ], [ %2, %10 ]
  %171 = phi [0 x i8]* [ %157, %156 ], [ %1, %10 ]
  %172 = getelementptr inbounds %"core::fmt::Formatter", %"core::fmt::Formatter"* %0, i64 0, i32 1, i32 1, !dbg !1669
  %173 = icmp ne [0 x i8]* %171, null
  tail call void @llvm.assume(i1 %173)
  %174 = getelementptr [0 x i8], [0 x i8]* %171, i64 0, i64 0, !dbg !1670
  %175 = getelementptr inbounds [0 x i8], [0 x i8]* %171, i64 0, i64 %170, !dbg !1675
  %176 = icmp eq i64 %170, 0, !dbg !1678
  br i1 %176, label %351, label %177, !dbg !1686

177:                                              ; preds = %169
  %178 = icmp ult i64 %170, 4, !dbg !1686
  br i1 %178, label %254, label %179, !dbg !1686

179:                                              ; preds = %177
  %180 = and i64 %170, -4, !dbg !1686
  %181 = getelementptr [0 x i8], [0 x i8]* %171, i64 0, i64 %180, !dbg !1686
  %182 = add i64 %180, -4, !dbg !1686
  %183 = lshr exact i64 %182, 2, !dbg !1686
  %184 = add nuw nsw i64 %183, 1, !dbg !1686
  %185 = and i64 %184, 1, !dbg !1686
  %186 = icmp eq i64 %182, 0, !dbg !1686
  br i1 %186, label %226, label %187, !dbg !1686

187:                                              ; preds = %179
  %188 = and i64 %184, 9223372036854775806, !dbg !1686
  br label %189, !dbg !1686

189:                                              ; preds = %189, %187
  %190 = phi i64 [ 0, %187 ], [ %223, %189 ]
  %191 = phi <2 x i64> [ zeroinitializer, %187 ], [ %221, %189 ]
  %192 = phi <2 x i64> [ zeroinitializer, %187 ], [ %222, %189 ]
  %193 = phi i64 [ %188, %187 ], [ %224, %189 ]
  %194 = getelementptr [0 x i8], [0 x i8]* %171, i64 0, i64 %190
  %195 = bitcast i8* %194 to <2 x i8>*, !dbg !1687
  %196 = load <2 x i8>, <2 x i8>* %195, align 1, !dbg !1687, !alias.scope !1688
  %197 = getelementptr i8, i8* %194, i64 2, !dbg !1687
  %198 = bitcast i8* %197 to <2 x i8>*, !dbg !1687
  %199 = load <2 x i8>, <2 x i8>* %198, align 1, !dbg !1687, !alias.scope !1688
  %200 = and <2 x i8> %196, <i8 -64, i8 -64>, !dbg !1691
  %201 = and <2 x i8> %199, <i8 -64, i8 -64>, !dbg !1691
  %202 = icmp ne <2 x i8> %200, <i8 -128, i8 -128>, !dbg !1691
  %203 = icmp ne <2 x i8> %201, <i8 -128, i8 -128>, !dbg !1691
  %204 = zext <2 x i1> %202 to <2 x i64>, !dbg !1696
  %205 = zext <2 x i1> %203 to <2 x i64>, !dbg !1696
  %206 = add <2 x i64> %191, %204, !dbg !1697
  %207 = add <2 x i64> %192, %205, !dbg !1697
  %208 = or i64 %190, 4
  %209 = getelementptr [0 x i8], [0 x i8]* %171, i64 0, i64 %208
  %210 = bitcast i8* %209 to <2 x i8>*, !dbg !1687
  %211 = load <2 x i8>, <2 x i8>* %210, align 1, !dbg !1687, !alias.scope !1688
  %212 = getelementptr i8, i8* %209, i64 2, !dbg !1687
  %213 = bitcast i8* %212 to <2 x i8>*, !dbg !1687
  %214 = load <2 x i8>, <2 x i8>* %213, align 1, !dbg !1687, !alias.scope !1688
  %215 = and <2 x i8> %211, <i8 -64, i8 -64>, !dbg !1691
  %216 = and <2 x i8> %214, <i8 -64, i8 -64>, !dbg !1691
  %217 = icmp ne <2 x i8> %215, <i8 -128, i8 -128>, !dbg !1691
  %218 = icmp ne <2 x i8> %216, <i8 -128, i8 -128>, !dbg !1691
  %219 = zext <2 x i1> %217 to <2 x i64>, !dbg !1696
  %220 = zext <2 x i1> %218 to <2 x i64>, !dbg !1696
  %221 = add <2 x i64> %206, %219, !dbg !1697
  %222 = add <2 x i64> %207, %220, !dbg !1697
  %223 = add i64 %190, 8
  %224 = add i64 %193, -2
  %225 = icmp eq i64 %224, 0
  br i1 %225, label %226, label %189, !llvm.loop !1700

226:                                              ; preds = %189, %179
  %227 = phi <2 x i64> [ undef, %179 ], [ %221, %189 ]
  %228 = phi <2 x i64> [ undef, %179 ], [ %222, %189 ]
  %229 = phi i64 [ 0, %179 ], [ %223, %189 ]
  %230 = phi <2 x i64> [ zeroinitializer, %179 ], [ %221, %189 ]
  %231 = phi <2 x i64> [ zeroinitializer, %179 ], [ %222, %189 ]
  %232 = icmp eq i64 %185, 0
  br i1 %232, label %248, label %233

233:                                              ; preds = %226
  %234 = getelementptr [0 x i8], [0 x i8]* %171, i64 0, i64 %229
  %235 = getelementptr i8, i8* %234, i64 2, !dbg !1687
  %236 = bitcast i8* %235 to <2 x i8>*, !dbg !1687
  %237 = load <2 x i8>, <2 x i8>* %236, align 1, !dbg !1687, !alias.scope !1688
  %238 = and <2 x i8> %237, <i8 -64, i8 -64>, !dbg !1691
  %239 = icmp ne <2 x i8> %238, <i8 -128, i8 -128>, !dbg !1691
  %240 = zext <2 x i1> %239 to <2 x i64>, !dbg !1696
  %241 = add <2 x i64> %231, %240, !dbg !1697
  %242 = bitcast i8* %234 to <2 x i8>*, !dbg !1687
  %243 = load <2 x i8>, <2 x i8>* %242, align 1, !dbg !1687, !alias.scope !1688
  %244 = and <2 x i8> %243, <i8 -64, i8 -64>, !dbg !1691
  %245 = icmp ne <2 x i8> %244, <i8 -128, i8 -128>, !dbg !1691
  %246 = zext <2 x i1> %245 to <2 x i64>, !dbg !1696
  %247 = add <2 x i64> %230, %246, !dbg !1697
  br label %248, !dbg !1686

248:                                              ; preds = %233, %226
  %249 = phi <2 x i64> [ %227, %226 ], [ %247, %233 ], !dbg !1697
  %250 = phi <2 x i64> [ %228, %226 ], [ %241, %233 ], !dbg !1697
  %251 = add <2 x i64> %250, %249, !dbg !1686
  %252 = call i64 @llvm.experimental.vector.reduce.add.v2i64(<2 x i64> %251), !dbg !1686
  %253 = icmp eq i64 %170, %180, !dbg !1686
  br i1 %253, label %267, label %254, !dbg !1686

254:                                              ; preds = %248, %177
  %255 = phi i64 [ 0, %177 ], [ %252, %248 ]
  %256 = phi i8* [ %174, %177 ], [ %181, %248 ]
  br label %257, !dbg !1686

257:                                              ; preds = %257, %254
  %258 = phi i64 [ %265, %257 ], [ %255, %254 ]
  %259 = phi i8* [ %260, %257 ], [ %256, %254 ]
  %260 = getelementptr inbounds i8, i8* %259, i64 1, !dbg !1701
  %261 = load i8, i8* %259, align 1, !dbg !1687, !alias.scope !1688
  %262 = and i8 %261, -64, !dbg !1691
  %263 = icmp ne i8 %262, -128, !dbg !1691
  %264 = zext i1 %263 to i64, !dbg !1696
  %265 = add i64 %258, %264, !dbg !1697
  %266 = icmp eq i8* %260, %175, !dbg !1678
  br i1 %266, label %267, label %257, !dbg !1686, !llvm.loop !1704

267:                                              ; preds = %257, %248
  %268 = phi i64 [ %252, %248 ], [ %265, %257 ], !dbg !1697
  %269 = load i64, i64* %172, align 8, !dbg !1705
  %270 = icmp ult i64 %268, %269, !dbg !1706
  br i1 %270, label %271, label %354, !dbg !1706

271:                                              ; preds = %267
  %272 = icmp ult i64 %170, 4, !dbg !1707
  br i1 %272, label %273, label %276, !dbg !1707

273:                                              ; preds = %345, %271
  %274 = phi i64 [ 0, %271 ], [ %349, %345 ]
  %275 = phi i8* [ %174, %271 ], [ %278, %345 ]
  br label %363, !dbg !1707

276:                                              ; preds = %271
  %277 = and i64 %170, -4, !dbg !1707
  %278 = getelementptr [0 x i8], [0 x i8]* %171, i64 0, i64 %277, !dbg !1707
  %279 = add i64 %277, -4, !dbg !1707
  %280 = lshr exact i64 %279, 2, !dbg !1707
  %281 = add nuw nsw i64 %280, 1, !dbg !1707
  %282 = and i64 %281, 1, !dbg !1707
  %283 = icmp eq i64 %279, 0, !dbg !1707
  br i1 %283, label %323, label %284, !dbg !1707

284:                                              ; preds = %276
  %285 = and i64 %281, 9223372036854775806, !dbg !1707
  br label %286, !dbg !1707

286:                                              ; preds = %286, %284
  %287 = phi i64 [ 0, %284 ], [ %320, %286 ]
  %288 = phi <2 x i64> [ zeroinitializer, %284 ], [ %318, %286 ]
  %289 = phi <2 x i64> [ zeroinitializer, %284 ], [ %319, %286 ]
  %290 = phi i64 [ %285, %284 ], [ %321, %286 ]
  %291 = getelementptr [0 x i8], [0 x i8]* %171, i64 0, i64 %287
  %292 = bitcast i8* %291 to <2 x i8>*, !dbg !1715
  %293 = load <2 x i8>, <2 x i8>* %292, align 1, !dbg !1715, !alias.scope !1716
  %294 = getelementptr i8, i8* %291, i64 2, !dbg !1715
  %295 = bitcast i8* %294 to <2 x i8>*, !dbg !1715
  %296 = load <2 x i8>, <2 x i8>* %295, align 1, !dbg !1715, !alias.scope !1716
  %297 = and <2 x i8> %293, <i8 -64, i8 -64>, !dbg !1719
  %298 = and <2 x i8> %296, <i8 -64, i8 -64>, !dbg !1719
  %299 = icmp ne <2 x i8> %297, <i8 -128, i8 -128>, !dbg !1719
  %300 = icmp ne <2 x i8> %298, <i8 -128, i8 -128>, !dbg !1719
  %301 = zext <2 x i1> %299 to <2 x i64>, !dbg !1724
  %302 = zext <2 x i1> %300 to <2 x i64>, !dbg !1724
  %303 = add <2 x i64> %288, %301, !dbg !1725
  %304 = add <2 x i64> %289, %302, !dbg !1725
  %305 = or i64 %287, 4
  %306 = getelementptr [0 x i8], [0 x i8]* %171, i64 0, i64 %305
  %307 = bitcast i8* %306 to <2 x i8>*, !dbg !1715
  %308 = load <2 x i8>, <2 x i8>* %307, align 1, !dbg !1715, !alias.scope !1716
  %309 = getelementptr i8, i8* %306, i64 2, !dbg !1715
  %310 = bitcast i8* %309 to <2 x i8>*, !dbg !1715
  %311 = load <2 x i8>, <2 x i8>* %310, align 1, !dbg !1715, !alias.scope !1716
  %312 = and <2 x i8> %308, <i8 -64, i8 -64>, !dbg !1719
  %313 = and <2 x i8> %311, <i8 -64, i8 -64>, !dbg !1719
  %314 = icmp ne <2 x i8> %312, <i8 -128, i8 -128>, !dbg !1719
  %315 = icmp ne <2 x i8> %313, <i8 -128, i8 -128>, !dbg !1719
  %316 = zext <2 x i1> %314 to <2 x i64>, !dbg !1724
  %317 = zext <2 x i1> %315 to <2 x i64>, !dbg !1724
  %318 = add <2 x i64> %303, %316, !dbg !1725
  %319 = add <2 x i64> %304, %317, !dbg !1725
  %320 = add i64 %287, 8
  %321 = add i64 %290, -2
  %322 = icmp eq i64 %321, 0
  br i1 %322, label %323, label %286, !llvm.loop !1728

323:                                              ; preds = %286, %276
  %324 = phi <2 x i64> [ undef, %276 ], [ %318, %286 ]
  %325 = phi <2 x i64> [ undef, %276 ], [ %319, %286 ]
  %326 = phi i64 [ 0, %276 ], [ %320, %286 ]
  %327 = phi <2 x i64> [ zeroinitializer, %276 ], [ %318, %286 ]
  %328 = phi <2 x i64> [ zeroinitializer, %276 ], [ %319, %286 ]
  %329 = icmp eq i64 %282, 0
  br i1 %329, label %345, label %330

330:                                              ; preds = %323
  %331 = getelementptr [0 x i8], [0 x i8]* %171, i64 0, i64 %326
  %332 = getelementptr i8, i8* %331, i64 2, !dbg !1715
  %333 = bitcast i8* %332 to <2 x i8>*, !dbg !1715
  %334 = load <2 x i8>, <2 x i8>* %333, align 1, !dbg !1715, !alias.scope !1716
  %335 = and <2 x i8> %334, <i8 -64, i8 -64>, !dbg !1719
  %336 = icmp ne <2 x i8> %335, <i8 -128, i8 -128>, !dbg !1719
  %337 = zext <2 x i1> %336 to <2 x i64>, !dbg !1724
  %338 = add <2 x i64> %328, %337, !dbg !1725
  %339 = bitcast i8* %331 to <2 x i8>*, !dbg !1715
  %340 = load <2 x i8>, <2 x i8>* %339, align 1, !dbg !1715, !alias.scope !1716
  %341 = and <2 x i8> %340, <i8 -64, i8 -64>, !dbg !1719
  %342 = icmp ne <2 x i8> %341, <i8 -128, i8 -128>, !dbg !1719
  %343 = zext <2 x i1> %342 to <2 x i64>, !dbg !1724
  %344 = add <2 x i64> %327, %343, !dbg !1725
  br label %345, !dbg !1707

345:                                              ; preds = %330, %323
  %346 = phi <2 x i64> [ %324, %323 ], [ %344, %330 ], !dbg !1725
  %347 = phi <2 x i64> [ %325, %323 ], [ %338, %330 ], !dbg !1725
  %348 = add <2 x i64> %347, %346, !dbg !1707
  %349 = call i64 @llvm.experimental.vector.reduce.add.v2i64(<2 x i64> %348), !dbg !1707
  %350 = icmp eq i64 %170, %277, !dbg !1707
  br i1 %350, label %373, label %273, !dbg !1707

351:                                              ; preds = %169
  %352 = load i64, i64* %172, align 8, !dbg !1705
  %353 = icmp eq i64 %352, 0, !dbg !1706
  br i1 %353, label %354, label %373, !dbg !1706

354:                                              ; preds = %351, %267
  %355 = getelementptr inbounds %"core::fmt::Formatter", %"core::fmt::Formatter"* %0, i64 0, i32 5, i32 0, !dbg !1729
  %356 = load {}*, {}** %355, align 8, !dbg !1729, !nonnull !4
  %357 = getelementptr inbounds %"core::fmt::Formatter", %"core::fmt::Formatter"* %0, i64 0, i32 5, i32 1, !dbg !1729
  %358 = bitcast [3 x i64]** %357 to i1 ({}*, [0 x i8]*, i64)***, !dbg !1729
  %359 = load i1 ({}*, [0 x i8]*, i64)**, i1 ({}*, [0 x i8]*, i64)*** %358, align 8, !dbg !1729, !nonnull !4
  %360 = getelementptr inbounds i1 ({}*, [0 x i8]*, i64)*, i1 ({}*, [0 x i8]*, i64)** %359, i64 3, !dbg !1729
  %361 = load i1 ({}*, [0 x i8]*, i64)*, i1 ({}*, [0 x i8]*, i64)** %360, align 8, !dbg !1729, !invariant.load !4, !nonnull !4
  %362 = tail call zeroext i1 %361({}* nonnull align 1 %356, [0 x i8]* noalias nonnull readonly align 1 %171, i64 %170), !dbg !1729
  br label %425, !dbg !1668

363:                                              ; preds = %363, %273
  %364 = phi i64 [ %371, %363 ], [ %274, %273 ]
  %365 = phi i8* [ %366, %363 ], [ %275, %273 ]
  %366 = getelementptr inbounds i8, i8* %365, i64 1, !dbg !1730
  %367 = load i8, i8* %365, align 1, !dbg !1715, !alias.scope !1716
  %368 = and i8 %367, -64, !dbg !1719
  %369 = icmp ne i8 %368, -128, !dbg !1719
  %370 = zext i1 %369 to i64, !dbg !1724
  %371 = add i64 %364, %370, !dbg !1725
  %372 = icmp eq i8* %366, %175, !dbg !1733
  br i1 %372, label %373, label %363, !dbg !1707, !llvm.loop !1734

373:                                              ; preds = %363, %351, %345
  %374 = phi i64 [ %352, %351 ], [ %269, %345 ], [ %269, %363 ]
  %375 = phi i64 [ 0, %351 ], [ %349, %345 ], [ %371, %363 ], !dbg !1735
  %376 = sub i64 %374, %375, !dbg !1736
  %377 = getelementptr inbounds %"core::fmt::Formatter", %"core::fmt::Formatter"* %0, i64 0, i32 11, !dbg !1737
  %378 = load i8, i8* %377, align 8, !dbg !1737, !range !1353
  %379 = icmp eq i8 %378, 3, !dbg !1737
  %380 = select i1 %379, i8 0, i8 %378, !dbg !1739
  switch i8 %380, label %385 [
    i8 0, label %387
    i8 1, label %386
    i8 2, label %381
    i8 3, label %386
  ], !dbg !1740

381:                                              ; preds = %373
  %382 = lshr i64 %376, 1, !dbg !1741
  %383 = add i64 %376, 1, !dbg !1742
  %384 = lshr i64 %383, 1, !dbg !1742
  br label %387, !dbg !1743

385:                                              ; preds = %373
  unreachable, !dbg !1744

386:                                              ; preds = %373, %373
  br label %387, !dbg !1743

387:                                              ; preds = %386, %381, %373
  %388 = phi i64 [ %384, %381 ], [ 0, %386 ], [ %376, %373 ], !dbg !1745
  %389 = phi i64 [ %382, %381 ], [ %376, %386 ], [ 0, %373 ], !dbg !1745
  %390 = getelementptr inbounds %"core::fmt::Formatter", %"core::fmt::Formatter"* %0, i64 0, i32 5, i32 0, !dbg !1745
  %391 = getelementptr inbounds %"core::fmt::Formatter", %"core::fmt::Formatter"* %0, i64 0, i32 5, i32 1, !dbg !1745
  %392 = bitcast [3 x i64]** %391 to i1 ({}*, i32)***, !dbg !1745
  %393 = getelementptr inbounds %"core::fmt::Formatter", %"core::fmt::Formatter"* %0, i64 0, i32 9, !dbg !1745
  br label %394, !dbg !1746

394:                                              ; preds = %397, %387
  %395 = phi i64 [ 0, %387 ], [ %398, %397 ], !dbg !1745
  %396 = icmp eq i64 %395, %389, !dbg !1747
  br i1 %396, label %405, label %397, !dbg !1750

397:                                              ; preds = %394
  %398 = add i64 %395, 1, !dbg !1751
  %399 = load {}*, {}** %390, align 8, !dbg !1754, !nonnull !4
  %400 = load i1 ({}*, i32)**, i1 ({}*, i32)*** %392, align 8, !dbg !1754, !nonnull !4
  %401 = load i32, i32* %393, align 4, !dbg !1755, !range !1378
  %402 = getelementptr inbounds i1 ({}*, i32)*, i1 ({}*, i32)** %400, i64 4, !dbg !1754
  %403 = load i1 ({}*, i32)*, i1 ({}*, i32)** %402, align 8, !dbg !1754, !invariant.load !4, !nonnull !4
  %404 = tail call zeroext i1 %403({}* nonnull align 1 %399, i32 %401), !dbg !1754
  br i1 %404, label %425, label %394, !dbg !1756

405:                                              ; preds = %394
  %406 = load i32, i32* %393, align 4, !dbg !1757, !range !1378
  %407 = load {}*, {}** %390, align 8, !dbg !1758, !nonnull !4
  %408 = bitcast [3 x i64]** %391 to i1 ({}*, [0 x i8]*, i64)***, !dbg !1758
  %409 = load i1 ({}*, [0 x i8]*, i64)**, i1 ({}*, [0 x i8]*, i64)*** %408, align 8, !dbg !1758, !nonnull !4
  %410 = getelementptr inbounds i1 ({}*, [0 x i8]*, i64)*, i1 ({}*, [0 x i8]*, i64)** %409, i64 3, !dbg !1758
  %411 = load i1 ({}*, [0 x i8]*, i64)*, i1 ({}*, [0 x i8]*, i64)** %410, align 8, !dbg !1758, !invariant.load !4, !nonnull !4
  %412 = tail call zeroext i1 %411({}* nonnull align 1 %407, [0 x i8]* noalias nonnull readonly align 1 %171, i64 %170), !dbg !1758
  br i1 %412, label %425, label %413, !dbg !1759

413:                                              ; preds = %405
  %414 = load {}*, {}** %390, align 8, !dbg !1760, !nonnull !4
  %415 = load [3 x i64]*, [3 x i64]** %391, align 8, !dbg !1760, !nonnull !4
  %416 = getelementptr inbounds [3 x i64], [3 x i64]* %415, i64 0, i64 4, !dbg !1761
  %417 = bitcast i64* %416 to i1 ({}*, i32)**, !dbg !1761
  br label %418, !dbg !1763

418:                                              ; preds = %421, %413
  %419 = phi i64 [ 0, %413 ], [ %422, %421 ], !dbg !1761
  %420 = icmp eq i64 %419, %388, !dbg !1764
  br i1 %420, label %425, label %421, !dbg !1767

421:                                              ; preds = %418
  %422 = add i64 %419, 1, !dbg !1768
  %423 = load i1 ({}*, i32)*, i1 ({}*, i32)** %417, align 8, !dbg !1771, !invariant.load !4, !alias.scope !1772, !nonnull !4
  %424 = tail call zeroext i1 %423({}* nonnull align 1 %414, i32 %406), !dbg !1771, !noalias !1772
  br i1 %424, label %425, label %418, !dbg !1775

425:                                              ; preds = %421, %418, %405, %397, %354, %159, %12
  %426 = phi i1 [ %20, %12 ], [ %168, %159 ], [ %362, %354 ], [ true, %405 ], [ true, %421 ], [ false, %418 ], [ true, %397 ], !dbg !1476
  ret i1 %426, !dbg !1776
}

; Function Attrs: nounwind willreturn
declare void @llvm.assume(i1) #19

; core::str::slice_error_fail
; Function Attrs: cold noinline noreturn nounwind nonlazybind uwtable
define internal void @_ZN4core3str16slice_error_fail17h3dfd55b8eb058100E([0 x i8]* noalias nonnull readonly align 1 %0, i64 %1, i64 %2, i64 %3, %"core::panic::Location"* noalias readonly align 8 dereferenceable(24) %4) unnamed_addr #14 !dbg !1777 {
  %6 = alloca [5 x { i8*, i64* }], align 8
  %7 = alloca %"core::fmt::Arguments", align 8
  %8 = alloca { i64, i64 }, align 8
  %9 = alloca i32, align 4
  %10 = alloca i64, align 8
  %11 = alloca [4 x { i8*, i64* }], align 8
  %12 = alloca %"core::fmt::Arguments", align 8
  %13 = alloca [3 x { i8*, i64* }], align 8
  %14 = alloca %"core::fmt::Arguments", align 8
  %15 = alloca i64, align 8
  %16 = alloca { [0 x i8]*, i64 }, align 8
  %17 = alloca { [0 x i8]*, i64 }, align 8
  %18 = alloca i64, align 8
  %19 = alloca i64, align 8
  store i64 %2, i64* %19, align 8
  store i64 %3, i64* %18, align 8
  %20 = icmp ult i64 %1, 257, !dbg !1778
  br i1 %20, label %33, label %21, !dbg !1781

21:                                               ; preds = %28, %5
  %22 = phi i64 [ %29, %28 ], [ 256, %5 ]
  %23 = icmp ult i64 %22, %1, !dbg !1782
  br i1 %23, label %24, label %28, !dbg !1786

24:                                               ; preds = %21
  %25 = getelementptr inbounds [0 x i8], [0 x i8]* %0, i64 0, i64 %22
  %26 = load i8, i8* %25, align 1, !dbg !1787, !alias.scope !1788, !noalias !1793
  %27 = icmp sgt i8 %26, -65, !dbg !1795
  br i1 %27, label %33, label %28, !dbg !1796

28:                                               ; preds = %24, %21
  %29 = add nsw i64 %22, -1, !dbg !1797
  %30 = icmp eq i64 %29, 0, !dbg !1798
  %31 = icmp eq i64 %29, %1
  %32 = or i1 %30, %31, !dbg !1798
  br i1 %32, label %33, label %21, !dbg !1798

33:                                               ; preds = %28, %24, %5
  %34 = phi i64 [ %1, %5 ], [ %29, %28 ], [ %22, %24 ], !dbg !1799
  %35 = phi i1 [ true, %5 ], [ false, %24 ], [ false, %28 ], !dbg !1799
  %36 = ptrtoint [0 x i8]* %0 to i64, !dbg !1799
  %37 = bitcast { [0 x i8]*, i64 }* %17 to i8*, !dbg !1800
  call void @llvm.lifetime.start.p0i8(i64 16, i8* nonnull %37), !dbg !1800
  %38 = bitcast { [0 x i8]*, i64 }* %17 to i64*, !dbg !1800
  store i64 %36, i64* %38, align 8, !dbg !1800
  %39 = getelementptr inbounds { [0 x i8]*, i64 }, { [0 x i8]*, i64 }* %17, i64 0, i32 1, !dbg !1800
  store i64 %34, i64* %39, align 8, !dbg !1800
  %40 = bitcast { [0 x i8]*, i64 }* %16 to i8*, !dbg !1801
  call void @llvm.lifetime.start.p0i8(i64 16, i8* nonnull %40), !dbg !1801
  %41 = getelementptr inbounds { [0 x i8]*, i64 }, { [0 x i8]*, i64 }* %16, i64 0, i32 0, !dbg !1802
  %42 = select i1 %35, [0 x i8]* getelementptr inbounds (<{ [0 x i8] }>, <{ [0 x i8] }>* @anon.965c706604096d42e5b155eaa3c30edf.12, i32 0, i32 0), [0 x i8]* bitcast (<{ [5 x i8] }>* @anon.965c706604096d42e5b155eaa3c30edf.308 to [0 x i8]*), !dbg !1803
  %43 = select i1 %35, i64 0, i64 5, !dbg !1803
  store [0 x i8]* %42, [0 x i8]** %41, align 8, !dbg !1802
  %44 = getelementptr inbounds { [0 x i8]*, i64 }, { [0 x i8]*, i64 }* %16, i64 0, i32 1, !dbg !1804
  store i64 %43, i64* %44, align 8, !dbg !1804
  %45 = icmp ugt i64 %2, %1, !dbg !1805
  %46 = icmp ugt i64 %3, %1
  %47 = or i1 %45, %46, !dbg !1805
  br i1 %47, label %48, label %67, !dbg !1805

48:                                               ; preds = %33
  %49 = bitcast i64* %15 to i8*, !dbg !1806
  call void @llvm.lifetime.start.p0i8(i64 8, i8* nonnull %49), !dbg !1806
  %50 = select i1 %45, i64 %2, i64 %3, !dbg !1802
  store i64 %50, i64* %15, align 8, !dbg !1802
  %51 = bitcast %"core::fmt::Arguments"* %14 to i8*, !dbg !1807
  call void @llvm.lifetime.start.p0i8(i64 48, i8* nonnull %51), !dbg !1807
  %52 = bitcast [3 x { i8*, i64* }]* %13 to i8*, !dbg !1807
  call void @llvm.lifetime.start.p0i8(i64 48, i8* nonnull %52), !dbg !1807
  %53 = bitcast [3 x { i8*, i64* }]* %13 to i64**, !dbg !1807
  store i64* %15, i64** %53, align 8, !dbg !1807
  %54 = getelementptr inbounds [3 x { i8*, i64* }], [3 x { i8*, i64* }]* %13, i64 0, i64 0, i32 1, !dbg !1807
  store i64* bitcast (i1 (i64*, %"core::fmt::Formatter"*)* @"_ZN4core3fmt3num3imp52_$LT$impl$u20$core..fmt..Display$u20$for$u20$u64$GT$3fmt17h48d894a52c575073E" to i64*), i64** %54, align 8, !dbg !1807
  %55 = getelementptr inbounds [3 x { i8*, i64* }], [3 x { i8*, i64* }]* %13, i64 0, i64 1, i32 0, !dbg !1807
  %56 = bitcast i8** %55 to { [0 x i8]*, i64 }**, !dbg !1807
  store { [0 x i8]*, i64 }* %17, { [0 x i8]*, i64 }** %56, align 8, !dbg !1807
  %57 = getelementptr inbounds [3 x { i8*, i64* }], [3 x { i8*, i64* }]* %13, i64 0, i64 1, i32 1, !dbg !1807
  store i64* bitcast (i1 ({ [0 x i8]*, i64 }*, %"core::fmt::Formatter"*)* @"_ZN44_$LT$$RF$T$u20$as$u20$core..fmt..Display$GT$3fmt17h905d9d1f052b2751E" to i64*), i64** %57, align 8, !dbg !1807
  %58 = getelementptr inbounds [3 x { i8*, i64* }], [3 x { i8*, i64* }]* %13, i64 0, i64 2, i32 0, !dbg !1807
  %59 = bitcast i8** %58 to { [0 x i8]*, i64 }**, !dbg !1807
  store { [0 x i8]*, i64 }* %16, { [0 x i8]*, i64 }** %59, align 8, !dbg !1807
  %60 = getelementptr inbounds [3 x { i8*, i64* }], [3 x { i8*, i64* }]* %13, i64 0, i64 2, i32 1, !dbg !1807
  store i64* bitcast (i1 ({ [0 x i8]*, i64 }*, %"core::fmt::Formatter"*)* @"_ZN44_$LT$$RF$T$u20$as$u20$core..fmt..Display$GT$3fmt17h905d9d1f052b2751E" to i64*), i64** %60, align 8, !dbg !1807
  %61 = bitcast %"core::fmt::Arguments"* %14 to [0 x { [0 x i8]*, i64 }]**, !dbg !1808
  store [0 x { [0 x i8]*, i64 }]* bitcast (<{ i8*, [8 x i8], i8*, [8 x i8], i8*, [8 x i8] }>* @anon.965c706604096d42e5b155eaa3c30edf.311 to [0 x { [0 x i8]*, i64 }]*), [0 x { [0 x i8]*, i64 }]** %61, align 8, !dbg !1808, !alias.scope !1810, !noalias !1813
  %62 = getelementptr inbounds %"core::fmt::Arguments", %"core::fmt::Arguments"* %14, i64 0, i32 1, i32 1, !dbg !1808
  store i64 3, i64* %62, align 8, !dbg !1808, !alias.scope !1810, !noalias !1813
  %63 = getelementptr inbounds %"core::fmt::Arguments", %"core::fmt::Arguments"* %14, i64 0, i32 3, i32 0, !dbg !1808
  store i64* null, i64** %63, align 8, !dbg !1808, !alias.scope !1810, !noalias !1813
  %64 = getelementptr inbounds %"core::fmt::Arguments", %"core::fmt::Arguments"* %14, i64 0, i32 5, i32 0, !dbg !1808
  %65 = bitcast [0 x { i8*, i64* }]** %64 to [3 x { i8*, i64* }]**, !dbg !1808
  store [3 x { i8*, i64* }]* %13, [3 x { i8*, i64* }]** %65, align 8, !dbg !1808, !alias.scope !1810, !noalias !1813
  %66 = getelementptr inbounds %"core::fmt::Arguments", %"core::fmt::Arguments"* %14, i64 0, i32 5, i32 1, !dbg !1808
  store i64 3, i64* %66, align 8, !dbg !1808, !alias.scope !1810, !noalias !1813
; call core::panicking::panic_fmt
  call void @_ZN4core9panicking9panic_fmt17hcd56f7f635f62c74E(%"core::fmt::Arguments"* noalias nocapture nonnull dereferenceable(48) %14, %"core::panic::Location"* noalias nonnull readonly align 8 dereferenceable(24) %4), !dbg !1807
  unreachable, !dbg !1807

67:                                               ; preds = %33
  %68 = icmp ugt i64 %2, %3, !dbg !1816
  br i1 %68, label %69, label %89, !dbg !1817

69:                                               ; preds = %67
  %70 = bitcast %"core::fmt::Arguments"* %12 to i8*, !dbg !1817
  call void @llvm.lifetime.start.p0i8(i64 48, i8* nonnull %70), !dbg !1817
  %71 = bitcast [4 x { i8*, i64* }]* %11 to i8*, !dbg !1817
  call void @llvm.lifetime.start.p0i8(i64 64, i8* nonnull %71), !dbg !1817
  %72 = bitcast [4 x { i8*, i64* }]* %11 to i64**, !dbg !1817
  store i64* %19, i64** %72, align 8, !dbg !1817
  %73 = getelementptr inbounds [4 x { i8*, i64* }], [4 x { i8*, i64* }]* %11, i64 0, i64 0, i32 1, !dbg !1817
  store i64* bitcast (i1 (i64*, %"core::fmt::Formatter"*)* @"_ZN4core3fmt3num3imp52_$LT$impl$u20$core..fmt..Display$u20$for$u20$u64$GT$3fmt17h48d894a52c575073E" to i64*), i64** %73, align 8, !dbg !1817
  %74 = getelementptr inbounds [4 x { i8*, i64* }], [4 x { i8*, i64* }]* %11, i64 0, i64 1, i32 0, !dbg !1817
  %75 = bitcast i8** %74 to i64**, !dbg !1817
  store i64* %18, i64** %75, align 8, !dbg !1817
  %76 = getelementptr inbounds [4 x { i8*, i64* }], [4 x { i8*, i64* }]* %11, i64 0, i64 1, i32 1, !dbg !1817
  store i64* bitcast (i1 (i64*, %"core::fmt::Formatter"*)* @"_ZN4core3fmt3num3imp52_$LT$impl$u20$core..fmt..Display$u20$for$u20$u64$GT$3fmt17h48d894a52c575073E" to i64*), i64** %76, align 8, !dbg !1817
  %77 = getelementptr inbounds [4 x { i8*, i64* }], [4 x { i8*, i64* }]* %11, i64 0, i64 2, i32 0, !dbg !1817
  %78 = bitcast i8** %77 to { [0 x i8]*, i64 }**, !dbg !1817
  store { [0 x i8]*, i64 }* %17, { [0 x i8]*, i64 }** %78, align 8, !dbg !1817
  %79 = getelementptr inbounds [4 x { i8*, i64* }], [4 x { i8*, i64* }]* %11, i64 0, i64 2, i32 1, !dbg !1817
  store i64* bitcast (i1 ({ [0 x i8]*, i64 }*, %"core::fmt::Formatter"*)* @"_ZN44_$LT$$RF$T$u20$as$u20$core..fmt..Display$GT$3fmt17h905d9d1f052b2751E" to i64*), i64** %79, align 8, !dbg !1817
  %80 = getelementptr inbounds [4 x { i8*, i64* }], [4 x { i8*, i64* }]* %11, i64 0, i64 3, i32 0, !dbg !1817
  %81 = bitcast i8** %80 to { [0 x i8]*, i64 }**, !dbg !1817
  store { [0 x i8]*, i64 }* %16, { [0 x i8]*, i64 }** %81, align 8, !dbg !1817
  %82 = getelementptr inbounds [4 x { i8*, i64* }], [4 x { i8*, i64* }]* %11, i64 0, i64 3, i32 1, !dbg !1817
  store i64* bitcast (i1 ({ [0 x i8]*, i64 }*, %"core::fmt::Formatter"*)* @"_ZN44_$LT$$RF$T$u20$as$u20$core..fmt..Display$GT$3fmt17h905d9d1f052b2751E" to i64*), i64** %82, align 8, !dbg !1817
  %83 = bitcast %"core::fmt::Arguments"* %12 to [0 x { [0 x i8]*, i64 }]**, !dbg !1818
  store [0 x { [0 x i8]*, i64 }]* bitcast (<{ i8*, [8 x i8], i8*, [8 x i8], i8*, [8 x i8], i8*, [8 x i8] }>* @anon.965c706604096d42e5b155eaa3c30edf.315 to [0 x { [0 x i8]*, i64 }]*), [0 x { [0 x i8]*, i64 }]** %83, align 8, !dbg !1818, !alias.scope !1820, !noalias !1823
  %84 = getelementptr inbounds %"core::fmt::Arguments", %"core::fmt::Arguments"* %12, i64 0, i32 1, i32 1, !dbg !1818
  store i64 4, i64* %84, align 8, !dbg !1818, !alias.scope !1820, !noalias !1823
  %85 = getelementptr inbounds %"core::fmt::Arguments", %"core::fmt::Arguments"* %12, i64 0, i32 3, i32 0, !dbg !1818
  store i64* null, i64** %85, align 8, !dbg !1818, !alias.scope !1820, !noalias !1823
  %86 = getelementptr inbounds %"core::fmt::Arguments", %"core::fmt::Arguments"* %12, i64 0, i32 5, i32 0, !dbg !1818
  %87 = bitcast [0 x { i8*, i64* }]** %86 to [4 x { i8*, i64* }]**, !dbg !1818
  store [4 x { i8*, i64* }]* %11, [4 x { i8*, i64* }]** %87, align 8, !dbg !1818, !alias.scope !1820, !noalias !1823
  %88 = getelementptr inbounds %"core::fmt::Arguments", %"core::fmt::Arguments"* %12, i64 0, i32 5, i32 1, !dbg !1818
  store i64 4, i64* %88, align 8, !dbg !1818, !alias.scope !1820, !noalias !1823
; call core::panicking::panic_fmt
  call void @_ZN4core9panicking9panic_fmt17hcd56f7f635f62c74E(%"core::fmt::Arguments"* noalias nocapture nonnull dereferenceable(48) %12, %"core::panic::Location"* noalias nonnull readonly align 8 dereferenceable(24) %4), !dbg !1817
  unreachable, !dbg !1817

89:                                               ; preds = %67
  %90 = bitcast i64* %10 to i8*, !dbg !1826
  call void @llvm.lifetime.start.p0i8(i64 8, i8* nonnull %90), !dbg !1826
  %91 = icmp eq i64 %2, 0, !dbg !1827
  %92 = icmp eq i64 %1, %2
  %93 = or i1 %91, %92, !dbg !1827
  br i1 %93, label %100, label %94, !dbg !1827

94:                                               ; preds = %89
  %95 = icmp ugt i64 %1, %2, !dbg !1829
  br i1 %95, label %96, label %101, !dbg !1832

96:                                               ; preds = %94
  %97 = getelementptr inbounds [0 x i8], [0 x i8]* %0, i64 0, i64 %2
  %98 = load i8, i8* %97, align 1, !dbg !1833, !alias.scope !1834
  %99 = icmp sgt i8 %98, -65, !dbg !1837
  br i1 %99, label %100, label %101, !dbg !1838

100:                                              ; preds = %96, %89
  br label %101, !dbg !1838

101:                                              ; preds = %100, %96, %94
  %102 = phi i64 [ %3, %100 ], [ %2, %96 ], [ %2, %94 ], !dbg !1802
  store i64 %102, i64* %10, align 8, !dbg !1802
  %103 = icmp eq i64 %102, 0, !dbg !1839
  %104 = icmp eq i64 %102, %1
  %105 = or i1 %103, %104, !dbg !1839
  br i1 %105, label %106, label %109, !dbg !1839

106:                                              ; preds = %211, %101
  %107 = phi i64 [ %102, %101 ], [ %212, %211 ], !dbg !1802
  %108 = bitcast i32* %9 to i8*, !dbg !1841
  call void @llvm.lifetime.start.p0i8(i64 4, i8* nonnull %108), !dbg !1841
  br label %118, !dbg !1842

109:                                              ; preds = %211, %101
  %110 = phi i64 [ %212, %211 ], [ %102, %101 ]
  %111 = icmp ult i64 %110, %1, !dbg !1850
  br i1 %111, label %112, label %211, !dbg !1853

112:                                              ; preds = %109
  %113 = getelementptr inbounds [0 x i8], [0 x i8]* %0, i64 0, i64 %110
  %114 = load i8, i8* %113, align 1, !dbg !1854, !alias.scope !1855
  %115 = icmp sgt i8 %114, -65, !dbg !1858
  br i1 %115, label %116, label %211, !dbg !1859

116:                                              ; preds = %112
  %117 = bitcast i32* %9 to i8*, !dbg !1841
  call void @llvm.lifetime.start.p0i8(i64 4, i8* nonnull %117), !dbg !1841
  br label %118, !dbg !1860

118:                                              ; preds = %116, %106
  %119 = phi i64 [ %107, %106 ], [ %110, %116 ]
  %120 = phi i8* [ %108, %106 ], [ %117, %116 ]
  %121 = getelementptr inbounds [0 x i8], [0 x i8]* %0, i64 0, i64 %119, !dbg !1861
  %122 = getelementptr inbounds [0 x i8], [0 x i8]* %0, i64 0, i64 %1, !dbg !1866
  %123 = icmp eq i64 %119, %1, !dbg !1872
  br i1 %123, label %175, label %124, !dbg !1876

124:                                              ; preds = %118
  %125 = getelementptr inbounds i8, i8* %121, i64 1, !dbg !1877
  %126 = load i8, i8* %121, align 1, !dbg !1880
  %127 = icmp sgt i8 %126, -1, !dbg !1881
  br i1 %127, label %128, label %131, !dbg !1882

128:                                              ; preds = %124
  %129 = zext i8 %126 to i32, !dbg !1883
  store i32 %129, i32* %9, align 4, !dbg !1884
  %130 = bitcast { i64, i64 }* %8 to i8*, !dbg !1885
  call void @llvm.lifetime.start.p0i8(i64 16, i8* nonnull %130), !dbg !1885
  br label %185, !dbg !1886

131:                                              ; preds = %124
  %132 = and i8 %126, 31, !dbg !1895
  %133 = zext i8 %132 to i32, !dbg !1895
  %134 = icmp eq i8* %125, %122, !dbg !1897
  br i1 %134, label %140, label %135, !dbg !1899

135:                                              ; preds = %131
  %136 = getelementptr inbounds i8, i8* %121, i64 2, !dbg !1900
  %137 = load i8, i8* %125, align 1, !dbg !1903, !alias.scope !1905
  %138 = and i8 %137, 63, !dbg !1908
  %139 = zext i8 %138 to i32, !dbg !1908
  br label %140, !dbg !1908

140:                                              ; preds = %135, %131
  %141 = phi i8* [ %136, %135 ], [ %122, %131 ]
  %142 = phi i32 [ %139, %135 ], [ 0, %131 ]
  %143 = shl nuw nsw i32 %133, 6, !dbg !1909
  %144 = or i32 %142, %143, !dbg !1909
  %145 = icmp ugt i8 %126, -33, !dbg !1911
  br i1 %145, label %146, label %176, !dbg !1912

146:                                              ; preds = %140
  %147 = icmp eq i8* %141, %122, !dbg !1913
  br i1 %147, label %153, label %148, !dbg !1915

148:                                              ; preds = %146
  %149 = getelementptr inbounds i8, i8* %141, i64 1, !dbg !1916
  %150 = load i8, i8* %141, align 1, !dbg !1919, !alias.scope !1921
  %151 = and i8 %150, 63, !dbg !1924
  %152 = zext i8 %151 to i32, !dbg !1924
  br label %153, !dbg !1924

153:                                              ; preds = %148, %146
  %154 = phi i8* [ %149, %148 ], [ %122, %146 ]
  %155 = phi i32 [ %152, %148 ], [ 0, %146 ]
  %156 = shl nuw nsw i32 %142, 6, !dbg !1925
  %157 = or i32 %155, %156, !dbg !1925
  %158 = shl nuw nsw i32 %133, 12, !dbg !1927
  %159 = or i32 %157, %158, !dbg !1928
  %160 = icmp ugt i8 %126, -17, !dbg !1929
  br i1 %160, label %161, label %176, !dbg !1930

161:                                              ; preds = %153
  %162 = icmp eq i8* %154, %122, !dbg !1931
  br i1 %162, label %167, label %163, !dbg !1933

163:                                              ; preds = %161
  %164 = load i8, i8* %154, align 1, !dbg !1934, !alias.scope !1936
  %165 = and i8 %164, 63, !dbg !1939
  %166 = zext i8 %165 to i32, !dbg !1939
  br label %167, !dbg !1939

167:                                              ; preds = %163, %161
  %168 = phi i32 [ %166, %163 ], [ 0, %161 ]
  %169 = shl nuw nsw i32 %133, 18, !dbg !1940
  %170 = and i32 %169, 1835008, !dbg !1940
  %171 = shl nuw nsw i32 %157, 6, !dbg !1941
  %172 = or i32 %171, %170, !dbg !1941
  %173 = or i32 %172, %168, !dbg !1943
  %174 = icmp eq i32 %173, 1114112, !dbg !1944
  br i1 %174, label %175, label %176, !dbg !1944

175:                                              ; preds = %167, %118
; call core::panicking::panic
  tail call void @_ZN4core9panicking5panic17h07405d6be4bce887E([0 x i8]* noalias nonnull readonly align 1 bitcast (<{ [43 x i8] }>* @anon.965c706604096d42e5b155eaa3c30edf.173 to [0 x i8]*), i64 43, %"core::panic::Location"* noalias nonnull readonly align 8 dereferenceable(24) %4), !dbg !1947
  unreachable, !dbg !1947

176:                                              ; preds = %167, %153, %140
  %177 = phi i32 [ %173, %167 ], [ %159, %153 ], [ %144, %140 ]
  store i32 %177, i32* %9, align 4, !dbg !1884
  %178 = bitcast { i64, i64 }* %8 to i8*, !dbg !1885
  call void @llvm.lifetime.start.p0i8(i64 16, i8* nonnull %178), !dbg !1885
  %179 = icmp ult i32 %177, 128, !dbg !1948
  br i1 %179, label %185, label %180, !dbg !1886

180:                                              ; preds = %176
  %181 = icmp ult i32 %177, 2048, !dbg !1949
  br i1 %181, label %185, label %182, !dbg !1950

182:                                              ; preds = %180
  %183 = icmp ult i32 %177, 65536, !dbg !1951
  %184 = select i1 %183, i64 3, i64 4, !dbg !1952
  br label %185, !dbg !1952

185:                                              ; preds = %182, %180, %176, %128
  %186 = phi i8* [ %178, %176 ], [ %178, %180 ], [ %178, %182 ], [ %130, %128 ]
  %187 = phi i64 [ 1, %176 ], [ 2, %180 ], [ %184, %182 ], [ 1, %128 ], !dbg !1953
  %188 = add i64 %187, %119, !dbg !1954
  %189 = getelementptr inbounds { i64, i64 }, { i64, i64 }* %8, i64 0, i32 0, !dbg !1955
  store i64 %119, i64* %189, align 8, !dbg !1955
  %190 = getelementptr inbounds { i64, i64 }, { i64, i64 }* %8, i64 0, i32 1, !dbg !1955
  store i64 %188, i64* %190, align 8, !dbg !1955
  %191 = bitcast %"core::fmt::Arguments"* %7 to i8*, !dbg !1956
  call void @llvm.lifetime.start.p0i8(i64 48, i8* nonnull %191), !dbg !1956
  %192 = bitcast [5 x { i8*, i64* }]* %6 to i8*, !dbg !1956
  call void @llvm.lifetime.start.p0i8(i64 80, i8* nonnull %192), !dbg !1956
  %193 = bitcast [5 x { i8*, i64* }]* %6 to i64**, !dbg !1956
  store i64* %10, i64** %193, align 8, !dbg !1956
  %194 = getelementptr inbounds [5 x { i8*, i64* }], [5 x { i8*, i64* }]* %6, i64 0, i64 0, i32 1, !dbg !1956
  store i64* bitcast (i1 (i64*, %"core::fmt::Formatter"*)* @"_ZN4core3fmt3num3imp52_$LT$impl$u20$core..fmt..Display$u20$for$u20$u64$GT$3fmt17h48d894a52c575073E" to i64*), i64** %194, align 8, !dbg !1956
  %195 = getelementptr inbounds [5 x { i8*, i64* }], [5 x { i8*, i64* }]* %6, i64 0, i64 1, i32 0, !dbg !1956
  store i8* %120, i8** %195, align 8, !dbg !1956
  %196 = getelementptr inbounds [5 x { i8*, i64* }], [5 x { i8*, i64* }]* %6, i64 0, i64 1, i32 1, !dbg !1956
  store i64* bitcast (i1 (i32*, %"core::fmt::Formatter"*)* @"_ZN41_$LT$char$u20$as$u20$core..fmt..Debug$GT$3fmt17h719f0c734842b405E" to i64*), i64** %196, align 8, !dbg !1956
  %197 = getelementptr inbounds [5 x { i8*, i64* }], [5 x { i8*, i64* }]* %6, i64 0, i64 2, i32 0, !dbg !1956
  store i8* %186, i8** %197, align 8, !dbg !1956
  %198 = getelementptr inbounds [5 x { i8*, i64* }], [5 x { i8*, i64* }]* %6, i64 0, i64 2, i32 1, !dbg !1956
  store i64* bitcast (i1 ({ i64, i64 }*, %"core::fmt::Formatter"*)* @"_ZN71_$LT$core..ops..range..Range$LT$Idx$GT$$u20$as$u20$core..fmt..Debug$GT$3fmt17h1ed9b67004ff43bcE" to i64*), i64** %198, align 8, !dbg !1956
  %199 = getelementptr inbounds [5 x { i8*, i64* }], [5 x { i8*, i64* }]* %6, i64 0, i64 3, i32 0, !dbg !1956
  %200 = bitcast i8** %199 to { [0 x i8]*, i64 }**, !dbg !1956
  store { [0 x i8]*, i64 }* %17, { [0 x i8]*, i64 }** %200, align 8, !dbg !1956
  %201 = getelementptr inbounds [5 x { i8*, i64* }], [5 x { i8*, i64* }]* %6, i64 0, i64 3, i32 1, !dbg !1956
  store i64* bitcast (i1 ({ [0 x i8]*, i64 }*, %"core::fmt::Formatter"*)* @"_ZN44_$LT$$RF$T$u20$as$u20$core..fmt..Display$GT$3fmt17h905d9d1f052b2751E" to i64*), i64** %201, align 8, !dbg !1956
  %202 = getelementptr inbounds [5 x { i8*, i64* }], [5 x { i8*, i64* }]* %6, i64 0, i64 4, i32 0, !dbg !1956
  %203 = bitcast i8** %202 to { [0 x i8]*, i64 }**, !dbg !1956
  store { [0 x i8]*, i64 }* %16, { [0 x i8]*, i64 }** %203, align 8, !dbg !1956
  %204 = getelementptr inbounds [5 x { i8*, i64* }], [5 x { i8*, i64* }]* %6, i64 0, i64 4, i32 1, !dbg !1956
  store i64* bitcast (i1 ({ [0 x i8]*, i64 }*, %"core::fmt::Formatter"*)* @"_ZN44_$LT$$RF$T$u20$as$u20$core..fmt..Display$GT$3fmt17h905d9d1f052b2751E" to i64*), i64** %204, align 8, !dbg !1956
  %205 = bitcast %"core::fmt::Arguments"* %7 to [0 x { [0 x i8]*, i64 }]**, !dbg !1957
  store [0 x { [0 x i8]*, i64 }]* bitcast (<{ i8*, [8 x i8], i8*, [8 x i8], i8*, [8 x i8], i8*, [8 x i8], i8*, [8 x i8] }>* @anon.965c706604096d42e5b155eaa3c30edf.319 to [0 x { [0 x i8]*, i64 }]*), [0 x { [0 x i8]*, i64 }]** %205, align 8, !dbg !1957, !alias.scope !1959, !noalias !1962
  %206 = getelementptr inbounds %"core::fmt::Arguments", %"core::fmt::Arguments"* %7, i64 0, i32 1, i32 1, !dbg !1957
  store i64 5, i64* %206, align 8, !dbg !1957, !alias.scope !1959, !noalias !1962
  %207 = getelementptr inbounds %"core::fmt::Arguments", %"core::fmt::Arguments"* %7, i64 0, i32 3, i32 0, !dbg !1957
  store i64* null, i64** %207, align 8, !dbg !1957, !alias.scope !1959, !noalias !1962
  %208 = getelementptr inbounds %"core::fmt::Arguments", %"core::fmt::Arguments"* %7, i64 0, i32 5, i32 0, !dbg !1957
  %209 = bitcast [0 x { i8*, i64* }]** %208 to [5 x { i8*, i64* }]**, !dbg !1957
  store [5 x { i8*, i64* }]* %6, [5 x { i8*, i64* }]** %209, align 8, !dbg !1957, !alias.scope !1959, !noalias !1962
  %210 = getelementptr inbounds %"core::fmt::Arguments", %"core::fmt::Arguments"* %7, i64 0, i32 5, i32 1, !dbg !1957
  store i64 5, i64* %210, align 8, !dbg !1957, !alias.scope !1959, !noalias !1962
; call core::panicking::panic_fmt
  call void @_ZN4core9panicking9panic_fmt17hcd56f7f635f62c74E(%"core::fmt::Arguments"* noalias nocapture nonnull dereferenceable(48) %7, %"core::panic::Location"* noalias nonnull readonly align 8 dereferenceable(24) %4), !dbg !1956
  unreachable, !dbg !1956

211:                                              ; preds = %112, %109
  %212 = add i64 %110, -1, !dbg !1965
  %213 = icmp eq i64 %212, 0, !dbg !1839
  %214 = icmp eq i64 %212, %1
  %215 = or i1 %213, %214, !dbg !1839
  br i1 %215, label %106, label %109, !dbg !1839
}

; <&T as core::fmt::Display>::fmt
; Function Attrs: nounwind nonlazybind uwtable
define internal zeroext i1 @"_ZN44_$LT$$RF$T$u20$as$u20$core..fmt..Display$GT$3fmt17h905d9d1f052b2751E"({ [0 x i8]*, i64 }* noalias nocapture readonly align 8 dereferenceable(16) %0, %"core::fmt::Formatter"* nocapture readonly align 8 dereferenceable(64) %1) unnamed_addr #15 !dbg !1966 {
  %3 = getelementptr inbounds { [0 x i8]*, i64 }, { [0 x i8]*, i64 }* %0, i64 0, i32 0, !dbg !1967
  %4 = load [0 x i8]*, [0 x i8]** %3, align 8, !dbg !1967, !nonnull !4
  %5 = getelementptr inbounds { [0 x i8]*, i64 }, { [0 x i8]*, i64 }* %0, i64 0, i32 1, !dbg !1967
  %6 = load i64, i64* %5, align 8, !dbg !1967
; call core::fmt::Formatter::pad
  %7 = tail call zeroext i1 @_ZN4core3fmt9Formatter3pad17h2bed62c7a96ce09cE(%"core::fmt::Formatter"* nonnull align 8 dereferenceable(64) %1, [0 x i8]* noalias nonnull readonly align 1 %4, i64 %6), !dbg !1968
  ret i1 %7, !dbg !1971
}

; <char as core::fmt::Debug>::fmt
; Function Attrs: nounwind nonlazybind uwtable
define internal zeroext i1 @"_ZN41_$LT$char$u20$as$u20$core..fmt..Debug$GT$3fmt17h719f0c734842b405E"(i32* noalias nocapture readonly align 4 dereferenceable(4) %0, %"core::fmt::Formatter"* nocapture readonly align 8 dereferenceable(64) %1) unnamed_addr #15 !dbg !1972 {
  %3 = getelementptr inbounds %"core::fmt::Formatter", %"core::fmt::Formatter"* %1, i64 0, i32 5, i32 0, !dbg !1973
  %4 = load {}*, {}** %3, align 8, !dbg !1973, !nonnull !4
  %5 = getelementptr inbounds %"core::fmt::Formatter", %"core::fmt::Formatter"* %1, i64 0, i32 5, i32 1, !dbg !1973
  %6 = bitcast [3 x i64]** %5 to i1 ({}*, i32)***, !dbg !1973
  %7 = load i1 ({}*, i32)**, i1 ({}*, i32)*** %6, align 8, !dbg !1973, !nonnull !4
  %8 = getelementptr inbounds i1 ({}*, i32)*, i1 ({}*, i32)** %7, i64 4, !dbg !1973
  %9 = load i1 ({}*, i32)*, i1 ({}*, i32)** %8, align 8, !dbg !1973, !invariant.load !4, !nonnull !4
  %10 = tail call zeroext i1 %9({}* nonnull align 1 %4, i32 39), !dbg !1973
  br i1 %10, label %101, label %11, !dbg !1976

11:                                               ; preds = %2
  %12 = load i32, i32* %0, align 4, !dbg !1977, !range !1378
  switch i32 %12, label %16 [
    i32 9, label %40
    i32 13, label %13
    i32 10, label %14
    i32 92, label %15
    i32 39, label %15
    i32 34, label %15
  ], !dbg !1978

13:                                               ; preds = %11
  br label %40, !dbg !1983

14:                                               ; preds = %11
  br label %40, !dbg !1983

15:                                               ; preds = %11, %11, %11
  br label %40, !dbg !1983

16:                                               ; preds = %11
; call core::unicode::unicode_data::grapheme_extend::lookup
  %17 = tail call zeroext i1 @_ZN4core7unicode12unicode_data15grapheme_extend6lookup17h28f040caa93359bbE(i32 %12), !dbg !1984, !noalias !1987
  br i1 %17, label %20, label %18, !dbg !1992

18:                                               ; preds = %16
; call core::unicode::printable::is_printable
  %19 = tail call zeroext i1 @_ZN4core7unicode9printable12is_printable17h485b5a131fb2a9eaE(i32 %12), !dbg !1993, !noalias !1987
  br i1 %19, label %40, label %30, !dbg !1993

20:                                               ; preds = %16
  %21 = or i32 %12, 1, !dbg !1994
  %22 = tail call i32 @llvm.ctlz.i32(i32 %21, i1 true) #26, !dbg !1997, !range !2000
  %23 = lshr i32 %22, 2, !dbg !2001
  %24 = xor i32 %23, 7, !dbg !2001
  %25 = zext i32 %12 to i128, !dbg !2002
  %26 = shl nuw nsw i128 %25, 64, !dbg !2002
  %27 = zext i32 %24 to i128, !dbg !2002
  %28 = or i128 %26, %27, !dbg !2002
  %29 = or i128 %28, 396140812571321687967719751680, !dbg !2002
  br label %40, !dbg !1983

30:                                               ; preds = %18
  %31 = or i32 %12, 1, !dbg !2003
  %32 = tail call i32 @llvm.ctlz.i32(i32 %31, i1 true) #26, !dbg !2005, !range !2000
  %33 = lshr i32 %32, 2, !dbg !2007
  %34 = xor i32 %33, 7, !dbg !2007
  %35 = zext i32 %12 to i128, !dbg !2008
  %36 = shl nuw nsw i128 %35, 64, !dbg !2008
  %37 = zext i32 %34 to i128, !dbg !2008
  %38 = or i128 %36, %37, !dbg !2008
  %39 = or i128 %38, 396140812571321687967719751680, !dbg !2008
  br label %40, !dbg !1983

40:                                               ; preds = %30, %20, %18, %15, %14, %13, %11
  %41 = phi i128 [ %29, %20 ], [ %39, %30 ], [ undef, %15 ], [ undef, %14 ], [ undef, %13 ], [ undef, %11 ], [ undef, %18 ]
  %42 = phi i32 [ undef, %20 ], [ undef, %30 ], [ %12, %15 ], [ 110, %14 ], [ 114, %13 ], [ 116, %11 ], [ %12, %18 ]
  %43 = phi i32 [ 3, %20 ], [ 3, %30 ], [ 2, %15 ], [ 2, %14 ], [ 2, %13 ], [ 2, %11 ], [ 1, %18 ], !dbg !2009
  br label %44, !dbg !2010

44:                                               ; preds = %92, %40
  %45 = phi i32 [ %43, %40 ], [ %95, %92 ], !dbg !1977
  %46 = phi i128 [ %41, %40 ], [ %94, %92 ], !dbg !2011
  switch i32 %45, label %84 [
    i32 0, label %86
    i32 1, label %85
    i32 2, label %92
    i32 3, label %47
  ], !dbg !2012

47:                                               ; preds = %44
  %48 = lshr i128 %46, 96, !dbg !2019
  %49 = trunc i128 %48 to i8, !dbg !2019
  switch i8 %49, label %50 [
    i8 0, label %86
    i8 1, label %82
    i8 2, label %60
    i8 3, label %57
    i8 4, label %54
    i8 5, label %51
  ], !dbg !2019

50:                                               ; preds = %47
  unreachable, !dbg !2022

51:                                               ; preds = %47
  %52 = and i128 %46, -20203181441137406086353707335681, !dbg !2023
  %53 = or i128 %52, 316912650057057350374175801344, !dbg !2023
  br label %92, !dbg !2024

54:                                               ; preds = %47
  %55 = and i128 %46, -20203181441137406086353707335681, !dbg !2025
  %56 = or i128 %55, 237684487542793012780631851008, !dbg !2025
  br label %92, !dbg !2024

57:                                               ; preds = %47
  %58 = and i128 %46, -20203181441137406086353707335681, !dbg !2026
  %59 = or i128 %58, 158456325028528675187087900672, !dbg !2026
  br label %92, !dbg !2024

60:                                               ; preds = %47
  %61 = lshr i128 %46, 64, !dbg !2027
  %62 = trunc i128 %61 to i32, !dbg !2027
  %63 = trunc i128 %46 to i64, !dbg !2028
  %64 = trunc i128 %46 to i32, !dbg !2029
  %65 = shl i32 %64, 2, !dbg !2029
  %66 = and i32 %65, 28, !dbg !2029
  %67 = lshr i32 %62, %66, !dbg !2029
  %68 = and i32 %67, 15, !dbg !2029
  %69 = trunc i32 %68 to i8, !dbg !2030
  %70 = icmp ult i8 %69, 10, !dbg !2035
  %71 = select i1 %70, i32 48, i32 87, !dbg !2036
  %72 = add nuw nsw i32 %71, %68, !dbg !2036
  %73 = icmp eq i64 %63, 0, !dbg !2037
  br i1 %73, label %74, label %77, !dbg !2037

74:                                               ; preds = %60
  %75 = and i128 %46, -20203181441137406086353707335681, !dbg !2038
  %76 = or i128 %75, 79228162514264337593543950336, !dbg !2038
  br label %92, !dbg !2037

77:                                               ; preds = %60
  %78 = add i64 %63, -1, !dbg !2039
  %79 = zext i64 %78 to i128, !dbg !2039
  %80 = and i128 %46, -18446744073709551616, !dbg !2039
  %81 = or i128 %80, %79, !dbg !2039
  br label %92, !dbg !2037

82:                                               ; preds = %47
  %83 = and i128 %46, -20203181441137406086353707335681, !dbg !2040
  br label %92, !dbg !2024

84:                                               ; preds = %44
  unreachable, !dbg !2041

85:                                               ; preds = %44
  br label %92, !dbg !2042

86:                                               ; preds = %47, %44
  %87 = load {}*, {}** %3, align 8, !dbg !2043, !nonnull !4
  %88 = load i1 ({}*, i32)**, i1 ({}*, i32)*** %6, align 8, !dbg !2043, !nonnull !4
  %89 = getelementptr inbounds i1 ({}*, i32)*, i1 ({}*, i32)** %88, i64 4, !dbg !2043
  %90 = load i1 ({}*, i32)*, i1 ({}*, i32)** %89, align 8, !dbg !2043, !invariant.load !4, !nonnull !4
  %91 = tail call zeroext i1 %90({}* nonnull align 1 %87, i32 39), !dbg !2043
  br label %101, !dbg !2045

92:                                               ; preds = %85, %82, %77, %74, %57, %54, %51, %44
  %93 = phi i32 [ %42, %85 ], [ %72, %77 ], [ %72, %74 ], [ 125, %82 ], [ 123, %57 ], [ 117, %54 ], [ 92, %51 ], [ 92, %44 ]
  %94 = phi i128 [ %46, %85 ], [ %81, %77 ], [ %76, %74 ], [ %83, %82 ], [ %59, %57 ], [ %56, %54 ], [ %53, %51 ], [ %46, %44 ]
  %95 = phi i32 [ 0, %85 ], [ 3, %77 ], [ 3, %74 ], [ 3, %82 ], [ 3, %57 ], [ 3, %54 ], [ 3, %51 ], [ 1, %44 ]
  %96 = load {}*, {}** %3, align 8, !dbg !2046, !nonnull !4
  %97 = load i1 ({}*, i32)**, i1 ({}*, i32)*** %6, align 8, !dbg !2046, !nonnull !4
  %98 = getelementptr inbounds i1 ({}*, i32)*, i1 ({}*, i32)** %97, i64 4, !dbg !2046
  %99 = load i1 ({}*, i32)*, i1 ({}*, i32)** %98, align 8, !dbg !2046, !invariant.load !4, !nonnull !4
  %100 = tail call zeroext i1 %99({}* nonnull align 1 %96, i32 %93), !dbg !2046
  br i1 %100, label %101, label %44, !dbg !2048

101:                                              ; preds = %92, %86, %2
  %102 = phi i1 [ %91, %86 ], [ true, %2 ], [ true, %92 ]
  ret i1 %102, !dbg !2045
}

; <core::ops::range::Range<Idx> as core::fmt::Debug>::fmt
; Function Attrs: nounwind nonlazybind uwtable
define internal zeroext i1 @"_ZN71_$LT$core..ops..range..Range$LT$Idx$GT$$u20$as$u20$core..fmt..Debug$GT$3fmt17h1ed9b67004ff43bcE"({ i64, i64 }* noalias nocapture readonly align 8 dereferenceable(16) %0, %"core::fmt::Formatter"* nocapture align 8 dereferenceable(64) %1) unnamed_addr #15 !dbg !2049 {
  %3 = alloca %"core::fmt::Arguments", align 8
  %4 = getelementptr inbounds { i64, i64 }, { i64, i64 }* %0, i64 0, i32 0, !dbg !2052
; call core::fmt::num::<impl core::fmt::Debug for usize>::fmt
  %5 = tail call zeroext i1 @"_ZN4core3fmt3num52_$LT$impl$u20$core..fmt..Debug$u20$for$u20$usize$GT$3fmt17h99c8e5bf1f4ab3f3E"(i64* noalias nonnull readonly align 8 dereferenceable(8) %4, %"core::fmt::Formatter"* nonnull align 8 dereferenceable(64) %1), !dbg !2052
  br i1 %5, label %21, label %6, !dbg !2053

6:                                                ; preds = %2
  %7 = getelementptr inbounds %"core::fmt::Formatter", %"core::fmt::Formatter"* %1, i64 0, i32 5, i32 0, !dbg !2054
  %8 = load {}*, {}** %7, align 8, !dbg !2054, !noalias !2057, !nonnull !4
  %9 = getelementptr inbounds %"core::fmt::Formatter", %"core::fmt::Formatter"* %1, i64 0, i32 5, i32 1, !dbg !2054
  %10 = load [3 x i64]*, [3 x i64]** %9, align 8, !dbg !2054, !noalias !2057, !nonnull !4
  %11 = bitcast %"core::fmt::Arguments"* %3 to i8*, !dbg !2060
  call void @llvm.lifetime.start.p0i8(i64 48, i8* nonnull %11), !dbg !2060, !noalias !2057
  %12 = bitcast %"core::fmt::Arguments"* %3 to [0 x { [0 x i8]*, i64 }]**, !dbg !2060
  store [0 x { [0 x i8]*, i64 }]* bitcast (<{ i8*, [8 x i8] }>* @anon.965c706604096d42e5b155eaa3c30edf.141 to [0 x { [0 x i8]*, i64 }]*), [0 x { [0 x i8]*, i64 }]** %12, align 8, !dbg !2060
  %13 = getelementptr inbounds %"core::fmt::Arguments", %"core::fmt::Arguments"* %3, i64 0, i32 1, i32 1, !dbg !2060
  store i64 1, i64* %13, align 8, !dbg !2060
  %14 = getelementptr inbounds %"core::fmt::Arguments", %"core::fmt::Arguments"* %3, i64 0, i32 3, i32 0, !dbg !2060
  store i64* null, i64** %14, align 8, !dbg !2060
  %15 = getelementptr inbounds %"core::fmt::Arguments", %"core::fmt::Arguments"* %3, i64 0, i32 5, i32 0, !dbg !2060
  store [0 x { i8*, i64* }]* bitcast (<{ [0 x i8] }>* @anon.965c706604096d42e5b155eaa3c30edf.12 to [0 x { i8*, i64* }]*), [0 x { i8*, i64* }]** %15, align 8, !dbg !2060
  %16 = getelementptr inbounds %"core::fmt::Arguments", %"core::fmt::Arguments"* %3, i64 0, i32 5, i32 1, !dbg !2060
  store i64 0, i64* %16, align 8, !dbg !2060
; call core::fmt::write
  %17 = call zeroext i1 @_ZN4core3fmt5write17h89e4288724daa3faE({}* nonnull align 1 %8, [3 x i64]* noalias nonnull readonly align 8 dereferenceable(24) %10, %"core::fmt::Arguments"* noalias nocapture nonnull dereferenceable(48) %3), !dbg !2061, !noalias !2057
  call void @llvm.lifetime.end.p0i8(i64 48, i8* nonnull %11), !dbg !2062, !noalias !2057
  br i1 %17, label %21, label %18, !dbg !2063

18:                                               ; preds = %6
  %19 = getelementptr inbounds { i64, i64 }, { i64, i64 }* %0, i64 0, i32 1, !dbg !2064
; call core::fmt::num::<impl core::fmt::Debug for usize>::fmt
  %20 = tail call zeroext i1 @"_ZN4core3fmt3num52_$LT$impl$u20$core..fmt..Debug$u20$for$u20$usize$GT$3fmt17h99c8e5bf1f4ab3f3E"(i64* noalias nonnull readonly align 8 dereferenceable(8) %19, %"core::fmt::Formatter"* nonnull align 8 dereferenceable(64) %1), !dbg !2064
  ret i1 %20, !dbg !2065

21:                                               ; preds = %6, %2
  ret i1 true, !dbg !2066
}

; core::fmt::num::<impl core::fmt::Debug for usize>::fmt
; Function Attrs: inlinehint nounwind nonlazybind uwtable
define internal zeroext i1 @"_ZN4core3fmt3num52_$LT$impl$u20$core..fmt..Debug$u20$for$u20$usize$GT$3fmt17h99c8e5bf1f4ab3f3E"(i64* noalias nocapture readonly align 8 dereferenceable(8) %0, %"core::fmt::Formatter"* nocapture align 8 dereferenceable(64) %1) unnamed_addr #20 !dbg !2067 {
  %3 = alloca [128 x i8], align 1
  %4 = alloca [39 x i8], align 1
  %5 = getelementptr inbounds %"core::fmt::Formatter", %"core::fmt::Formatter"* %1, i64 0, i32 7, !dbg !2068
  %6 = load i32, i32* %5, align 8, !dbg !2068, !alias.scope !2071
  %7 = and i32 %6, 16, !dbg !2068
  %8 = icmp eq i32 %7, 0, !dbg !2068
  br i1 %8, label %35, label %9, !dbg !2074

9:                                                ; preds = %2
  %10 = load i64, i64* %0, align 8, !dbg !2075, !alias.scope !2078
  %11 = getelementptr inbounds [128 x i8], [128 x i8]* %3, i64 0, i64 0, !dbg !2081
  call void @llvm.lifetime.start.p0i8(i64 128, i8* nonnull %11), !dbg !2081, !noalias !2078
  call void @llvm.memset.p0i8.i64(i8* nonnull align 1 dereferenceable(128) %11, i8 undef, i64 128, i1 false), !dbg !2085, !noalias !2078
  %12 = getelementptr inbounds [128 x i8], [128 x i8]* %3, i64 0, i64 128, !dbg !2086
  br label %13, !dbg !2096

13:                                               ; preds = %13, %9
  %14 = phi i8* [ %12, %9 ], [ %17, %13 ], !dbg !2097
  %15 = phi i64 [ %10, %9 ], [ %18, %13 ]
  %16 = phi i64 [ 128, %9 ], [ %25, %13 ], !dbg !2098
  %17 = getelementptr inbounds i8, i8* %14, i64 -1, !dbg !2099
  %18 = lshr i64 %15, 4, !dbg !2110
  %19 = trunc i64 %15 to i8, !dbg !2113
  %20 = and i8 %19, 15, !dbg !2113
  %21 = icmp ult i8 %20, 10
  %22 = or i8 %20, 48, !dbg !2116
  %23 = add nuw nsw i8 %20, 87, !dbg !2116
  %24 = select i1 %21, i8 %22, i8 %23, !dbg !2116
  store i8 %24, i8* %17, align 1, !dbg !2119, !noalias !2078
  %25 = add nsw i64 %16, -1, !dbg !2124
  %26 = icmp eq i64 %18, 0, !dbg !2125
  br i1 %26, label %27, label %13, !dbg !2128

27:                                               ; preds = %13
  %28 = icmp ugt i64 %25, 128, !dbg !2129
  br i1 %28, label %29, label %30, !dbg !2137

29:                                               ; preds = %27
; call core::slice::index::slice_start_index_len_fail
  tail call void @_ZN4core5slice5index26slice_start_index_len_fail17h1218e2e291e3f22cE(i64 %25, i64 128, %"core::panic::Location"* noalias readonly align 8 dereferenceable(24) bitcast (<{ i8*, [16 x i8] }>* @anon.965c706604096d42e5b155eaa3c30edf.219 to %"core::panic::Location"*)), !dbg !2138, !noalias !2078
  unreachable, !dbg !2138

30:                                               ; preds = %27
  %31 = getelementptr inbounds [128 x i8], [128 x i8]* %3, i64 0, i64 %25, !dbg !2139
  %32 = sub nuw nsw i64 129, %16, !dbg !2148
  %33 = bitcast i8* %31 to [0 x i8]*, !dbg !2149
; call core::fmt::Formatter::pad_integral
  %34 = call zeroext i1 @_ZN4core3fmt9Formatter12pad_integral17h0f9951fc9f2b13b4E(%"core::fmt::Formatter"* nonnull align 8 dereferenceable(64) %1, i1 zeroext true, [0 x i8]* noalias nonnull readonly align 1 bitcast (<{ [2 x i8] }>* @anon.965c706604096d42e5b155eaa3c30edf.222 to [0 x i8]*), i64 2, [0 x i8]* noalias nonnull readonly align 1 %33, i64 %32), !dbg !2152, !noalias !2078
  call void @llvm.lifetime.end.p0i8(i64 128, i8* nonnull %11), !dbg !2153, !noalias !2078
  br label %132, !dbg !2074

35:                                               ; preds = %2
  %36 = and i32 %6, 32, !dbg !2154
  %37 = icmp eq i32 %36, 0, !dbg !2154
  %38 = load i64, i64* %0, align 8, !dbg !2157
  br i1 %37, label %64, label %39, !dbg !2158

39:                                               ; preds = %35
  %40 = getelementptr inbounds [128 x i8], [128 x i8]* %3, i64 0, i64 0, !dbg !2159
  call void @llvm.lifetime.start.p0i8(i64 128, i8* nonnull %40), !dbg !2159, !noalias !2164
  call void @llvm.memset.p0i8.i64(i8* nonnull align 1 dereferenceable(128) %40, i8 undef, i64 128, i1 false), !dbg !2167, !noalias !2164
  %41 = getelementptr inbounds [128 x i8], [128 x i8]* %3, i64 0, i64 128, !dbg !2168
  br label %42, !dbg !2173

42:                                               ; preds = %42, %39
  %43 = phi i8* [ %41, %39 ], [ %46, %42 ], !dbg !2174
  %44 = phi i64 [ %38, %39 ], [ %47, %42 ]
  %45 = phi i64 [ 128, %39 ], [ %54, %42 ], !dbg !2175
  %46 = getelementptr inbounds i8, i8* %43, i64 -1, !dbg !2176
  %47 = lshr i64 %44, 4, !dbg !2181
  %48 = trunc i64 %44 to i8, !dbg !2183
  %49 = and i8 %48, 15, !dbg !2183
  %50 = icmp ult i8 %49, 10
  %51 = or i8 %49, 48, !dbg !2185
  %52 = add nuw nsw i8 %49, 55, !dbg !2185
  %53 = select i1 %50, i8 %51, i8 %52, !dbg !2185
  store i8 %53, i8* %46, align 1, !dbg !2188, !noalias !2164
  %54 = add nsw i64 %45, -1, !dbg !2190
  %55 = icmp eq i64 %47, 0, !dbg !2191
  br i1 %55, label %56, label %42, !dbg !2193

56:                                               ; preds = %42
  %57 = icmp ugt i64 %54, 128, !dbg !2194
  br i1 %57, label %58, label %59, !dbg !2198

58:                                               ; preds = %56
; call core::slice::index::slice_start_index_len_fail
  tail call void @_ZN4core5slice5index26slice_start_index_len_fail17h1218e2e291e3f22cE(i64 %54, i64 128, %"core::panic::Location"* noalias readonly align 8 dereferenceable(24) bitcast (<{ i8*, [16 x i8] }>* @anon.965c706604096d42e5b155eaa3c30edf.219 to %"core::panic::Location"*)), !dbg !2199, !noalias !2164
  unreachable, !dbg !2199

59:                                               ; preds = %56
  %60 = getelementptr inbounds [128 x i8], [128 x i8]* %3, i64 0, i64 %54, !dbg !2200
  %61 = sub nuw nsw i64 129, %45, !dbg !2205
  %62 = bitcast i8* %60 to [0 x i8]*, !dbg !2206
; call core::fmt::Formatter::pad_integral
  %63 = call zeroext i1 @_ZN4core3fmt9Formatter12pad_integral17h0f9951fc9f2b13b4E(%"core::fmt::Formatter"* nonnull align 8 dereferenceable(64) %1, i1 zeroext true, [0 x i8]* noalias nonnull readonly align 1 bitcast (<{ [2 x i8] }>* @anon.965c706604096d42e5b155eaa3c30edf.222 to [0 x i8]*), i64 2, [0 x i8]* noalias nonnull readonly align 1 %62, i64 %61), !dbg !2209, !noalias !2164
  call void @llvm.lifetime.end.p0i8(i64 128, i8* nonnull %40), !dbg !2210, !noalias !2164
  br label %132, !dbg !2158

64:                                               ; preds = %35
  %65 = getelementptr inbounds [39 x i8], [39 x i8]* %4, i64 0, i64 0, !dbg !2211
  call void @llvm.lifetime.start.p0i8(i64 39, i8* nonnull %65), !dbg !2211, !noalias !2215
  call void @llvm.memset.p0i8.i64(i8* nonnull align 1 dereferenceable(39) %65, i8 undef, i64 39, i1 false), !dbg !2218, !noalias !2215
  %66 = icmp ugt i64 %38, 9999, !dbg !2219
  br i1 %66, label %71, label %67, !dbg !2220

67:                                               ; preds = %71, %64
  %68 = phi i64 [ 39, %64 ], [ %83, %71 ], !dbg !2221
  %69 = phi i64 [ %38, %64 ], [ %75, %71 ]
  %70 = icmp sgt i64 %69, 99, !dbg !2222
  br i1 %70, label %96, label %109, !dbg !2223

71:                                               ; preds = %71, %64
  %72 = phi i64 [ %75, %71 ], [ %38, %64 ]
  %73 = phi i64 [ %83, %71 ], [ 39, %64 ]
  %74 = urem i64 %72, 10000, !dbg !2224
  %75 = udiv i64 %72, 10000, !dbg !2225
  %76 = trunc i64 %74 to i16, !dbg !2226
  %77 = udiv i16 %76, 100, !dbg !2226
  %78 = shl nuw nsw i16 %77, 1, !dbg !2226
  %79 = zext i16 %78 to i64, !dbg !2226
  %80 = urem i16 %76, 100, !dbg !2227
  %81 = shl nuw nsw i16 %80, 1, !dbg !2227
  %82 = zext i16 %81 to i64, !dbg !2227
  %83 = add i64 %73, -4, !dbg !2228
  %84 = getelementptr inbounds <{ [200 x i8] }>, <{ [200 x i8] }>* @anon.965c706604096d42e5b155eaa3c30edf.223, i64 0, i32 0, i64 %79, !dbg !2229
  %85 = getelementptr inbounds [39 x i8], [39 x i8]* %4, i64 0, i64 %83, !dbg !2231
  %86 = bitcast i8* %84 to i16*, !dbg !2233
  %87 = bitcast i8* %85 to i16*, !dbg !2233
  %88 = load i16, i16* %86, align 1, !dbg !2233, !noalias !2215
  store i16 %88, i16* %87, align 1, !dbg !2233, !noalias !2215
  %89 = getelementptr inbounds <{ [200 x i8] }>, <{ [200 x i8] }>* @anon.965c706604096d42e5b155eaa3c30edf.223, i64 0, i32 0, i64 %82, !dbg !2235
  %90 = add nsw i64 %73, -2, !dbg !2237
  %91 = getelementptr inbounds [39 x i8], [39 x i8]* %4, i64 0, i64 %90, !dbg !2238
  %92 = bitcast i8* %89 to i16*, !dbg !2240
  %93 = bitcast i8* %91 to i16*, !dbg !2240
  %94 = load i16, i16* %92, align 1, !dbg !2240, !noalias !2215
  store i16 %94, i16* %93, align 1, !dbg !2240, !noalias !2215
  %95 = icmp ugt i64 %72, 99999999, !dbg !2219
  br i1 %95, label %71, label %67, !dbg !2220

96:                                               ; preds = %67
  %97 = trunc i64 %69 to i16, !dbg !2242
  %98 = urem i16 %97, 100, !dbg !2242
  %99 = shl nuw nsw i16 %98, 1, !dbg !2242
  %100 = zext i16 %99 to i64, !dbg !2242
  %101 = udiv i16 %97, 100, !dbg !2243
  %102 = zext i16 %101 to i64, !dbg !2243
  %103 = add i64 %68, -2, !dbg !2244
  %104 = getelementptr inbounds <{ [200 x i8] }>, <{ [200 x i8] }>* @anon.965c706604096d42e5b155eaa3c30edf.223, i64 0, i32 0, i64 %100, !dbg !2245
  %105 = getelementptr inbounds [39 x i8], [39 x i8]* %4, i64 0, i64 %103, !dbg !2247
  %106 = bitcast i8* %104 to i16*, !dbg !2249
  %107 = bitcast i8* %105 to i16*, !dbg !2249
  %108 = load i16, i16* %106, align 1, !dbg !2249, !noalias !2215
  store i16 %108, i16* %107, align 1, !dbg !2249, !noalias !2215
  br label %109, !dbg !2223

109:                                              ; preds = %96, %67
  %110 = phi i64 [ %102, %96 ], [ %69, %67 ], !dbg !2221
  %111 = phi i64 [ %103, %96 ], [ %68, %67 ], !dbg !2221
  %112 = icmp slt i64 %110, 10, !dbg !2251
  br i1 %112, label %113, label %118, !dbg !2252

113:                                              ; preds = %109
  %114 = add i64 %111, -1, !dbg !2253
  %115 = trunc i64 %110 to i8, !dbg !2254
  %116 = getelementptr inbounds [39 x i8], [39 x i8]* %4, i64 0, i64 %114, !dbg !2255
  %117 = add nuw nsw i8 %115, 48, !dbg !2257
  store i8 %117, i8* %116, align 1, !dbg !2257, !noalias !2215
  br label %126, !dbg !2252

118:                                              ; preds = %109
  %119 = shl nuw nsw i64 %110, 1, !dbg !2258
  %120 = add i64 %111, -2, !dbg !2259
  %121 = getelementptr inbounds <{ [200 x i8] }>, <{ [200 x i8] }>* @anon.965c706604096d42e5b155eaa3c30edf.223, i64 0, i32 0, i64 %119, !dbg !2260
  %122 = getelementptr inbounds [39 x i8], [39 x i8]* %4, i64 0, i64 %120, !dbg !2262
  %123 = bitcast i8* %121 to i16*, !dbg !2264
  %124 = bitcast i8* %122 to i16*, !dbg !2264
  %125 = load i16, i16* %123, align 1, !dbg !2264, !noalias !2215
  store i16 %125, i16* %124, align 1, !dbg !2264, !noalias !2215
  br label %126, !dbg !2252

126:                                              ; preds = %118, %113
  %127 = phi i64 [ %114, %113 ], [ %120, %118 ], !dbg !2221
  %128 = getelementptr inbounds [39 x i8], [39 x i8]* %4, i64 0, i64 %127, !dbg !2266
  %129 = sub i64 39, %127, !dbg !2268
  %130 = bitcast i8* %128 to [0 x i8]*, !dbg !2269
; call core::fmt::Formatter::pad_integral
  %131 = call zeroext i1 @_ZN4core3fmt9Formatter12pad_integral17h0f9951fc9f2b13b4E(%"core::fmt::Formatter"* nonnull align 8 dereferenceable(64) %1, i1 zeroext true, [0 x i8]* noalias nonnull readonly align 1 getelementptr inbounds (<{ [0 x i8] }>, <{ [0 x i8] }>* @anon.965c706604096d42e5b155eaa3c30edf.12, i32 0, i32 0), i64 0, [0 x i8]* noalias nonnull readonly align 1 %130, i64 %129), !dbg !2272, !noalias !2215
  call void @llvm.lifetime.end.p0i8(i64 39, i8* nonnull %65), !dbg !2273, !noalias !2215
  br label %132, !dbg !2158

132:                                              ; preds = %126, %59, %30
  %133 = phi i1 [ %34, %30 ], [ %63, %59 ], [ %131, %126 ]
  ret i1 %133, !dbg !2274
}

; core::fmt::write
; Function Attrs: nounwind nonlazybind uwtable
define internal zeroext i1 @_ZN4core3fmt5write17h89e4288724daa3faE({}* nonnull align 1 %0, [3 x i64]* noalias readonly align 8 dereferenceable(24) %1, %"core::fmt::Arguments"* noalias nocapture readonly dereferenceable(48) %2) unnamed_addr #15 personality i32 (...)* @rust_eh_personality !dbg !2275 {
  %4 = alloca %"core::fmt::Formatter", align 8
  %5 = bitcast %"core::fmt::Formatter"* %4 to i8*, !dbg !2276
  call void @llvm.lifetime.start.p0i8(i64 64, i8* nonnull %5), !dbg !2276
  %6 = getelementptr inbounds %"core::fmt::Formatter", %"core::fmt::Formatter"* %4, i64 0, i32 7, !dbg !2277
  store i32 0, i32* %6, align 8, !dbg !2277
  %7 = getelementptr inbounds %"core::fmt::Formatter", %"core::fmt::Formatter"* %4, i64 0, i32 9, !dbg !2277
  store i32 32, i32* %7, align 4, !dbg !2277
  %8 = getelementptr inbounds %"core::fmt::Formatter", %"core::fmt::Formatter"* %4, i64 0, i32 11, !dbg !2277
  store i8 3, i8* %8, align 8, !dbg !2277
  %9 = getelementptr inbounds %"core::fmt::Formatter", %"core::fmt::Formatter"* %4, i64 0, i32 0, i64 0, !dbg !2277
  store i64 0, i64* %9, align 8, !dbg !2277
  %10 = getelementptr inbounds %"core::fmt::Formatter", %"core::fmt::Formatter"* %4, i64 0, i32 3, i32 0, !dbg !2277
  store i64 0, i64* %10, align 8, !dbg !2277
  %11 = getelementptr inbounds %"core::fmt::Formatter", %"core::fmt::Formatter"* %4, i64 0, i32 5, i32 0, !dbg !2277
  store {}* %0, {}** %11, align 8, !dbg !2277
  %12 = getelementptr inbounds %"core::fmt::Formatter", %"core::fmt::Formatter"* %4, i64 0, i32 5, i32 1, !dbg !2277
  store [3 x i64]* %1, [3 x i64]** %12, align 8, !dbg !2277
  %13 = getelementptr inbounds %"core::fmt::Arguments", %"core::fmt::Arguments"* %2, i64 0, i32 3, !dbg !2278
  %14 = bitcast { i64*, i64 }* %13 to {}**, !dbg !2278
  %15 = load {}*, {}** %14, align 8, !dbg !2278
  %16 = icmp eq {}* %15, null, !dbg !2278
  %17 = bitcast {}* %15 to %"fmt::rt::v1::Argument"*, !dbg !2278
  br i1 %16, label %45, label %18, !dbg !2278

18:                                               ; preds = %3
  %19 = getelementptr inbounds %"core::fmt::Arguments", %"core::fmt::Arguments"* %2, i64 0, i32 3, i32 1, !dbg !2279
  %20 = load i64, i64* %19, align 8, !dbg !2279
  %21 = bitcast %"core::fmt::Arguments"* %2 to { [0 x i8]*, i64 }**, !dbg !2280
  %22 = load { [0 x i8]*, i64 }*, { [0 x i8]*, i64 }** %21, align 8, !dbg !2280, !nonnull !4
  %23 = getelementptr inbounds %"core::fmt::Arguments", %"core::fmt::Arguments"* %2, i64 0, i32 1, i32 1, !dbg !2280
  %24 = load i64, i64* %23, align 8, !dbg !2280
  %25 = icmp ugt i64 %20, %24, !dbg !2281
  %26 = select i1 %25, i64 %24, i64 %20, !dbg !2299
  %27 = icmp eq i64 %26, 0, !dbg !2300
  %28 = bitcast { [0 x i8]*, i64 }* %22 to [0 x { [0 x i8]*, i64 }]*, !dbg !2305
  br i1 %27, label %165, label %29, !dbg !2305

29:                                               ; preds = %18
  %30 = bitcast [3 x i64]** %12 to i1 ({}*, [0 x i8]*, i64)***, !dbg !2306
  %31 = getelementptr inbounds %"core::fmt::Arguments", %"core::fmt::Arguments"* %2, i64 0, i32 5, i32 0, !dbg !2306
  %32 = getelementptr inbounds %"core::fmt::Formatter", %"core::fmt::Formatter"* %4, i64 0, i32 1, i32 1, !dbg !2307
  %33 = getelementptr inbounds %"core::fmt::Formatter", %"core::fmt::Formatter"* %4, i64 0, i32 3, i32 1, !dbg !2307
  %34 = getelementptr inbounds { [0 x i8]*, i64 }, { [0 x i8]*, i64 }* %22, i64 0, i32 0, !dbg !2310
  %35 = load [0 x i8]*, [0 x i8]** %34, align 8, !dbg !2310, !nonnull !4
  %36 = getelementptr inbounds { [0 x i8]*, i64 }, { [0 x i8]*, i64 }* %22, i64 0, i32 1, !dbg !2310
  %37 = load i64, i64* %36, align 8, !dbg !2310
  %38 = getelementptr inbounds [3 x i64], [3 x i64]* %1, i64 0, i64 3, !dbg !2311
  %39 = bitcast i64* %38 to i1 ({}*, [0 x i8]*, i64)**, !dbg !2311
  %40 = load i1 ({}*, [0 x i8]*, i64)*, i1 ({}*, [0 x i8]*, i64)** %39, align 8, !dbg !2311, !invariant.load !4, !nonnull !4
  %41 = call zeroext i1 %40({}* nonnull align 1 %0, [0 x i8]* noalias nonnull readonly align 1 %35, i64 %37), !dbg !2311
  br i1 %41, label %182, label %42, !dbg !2312

42:                                               ; preds = %29
  %43 = bitcast {}* %15 to i64*, !dbg !2313
  %44 = load [0 x { i8*, i64* }]*, [0 x { i8*, i64* }]** %31, align 8, !dbg !2306, !nonnull !4
  br label %92, !dbg !2312

45:                                               ; preds = %3
  %46 = getelementptr inbounds %"core::fmt::Arguments", %"core::fmt::Arguments"* %2, i64 0, i32 5, i32 0, !dbg !2314
  %47 = bitcast [0 x { i8*, i64* }]** %46 to { i8*, i64* }**, !dbg !2314
  %48 = load { i8*, i64* }*, { i8*, i64* }** %47, align 8, !dbg !2314, !nonnull !4
  %49 = getelementptr inbounds %"core::fmt::Arguments", %"core::fmt::Arguments"* %2, i64 0, i32 5, i32 1, !dbg !2314
  %50 = load i64, i64* %49, align 8, !dbg !2314
  %51 = bitcast %"core::fmt::Arguments"* %2 to { [0 x i8]*, i64 }**, !dbg !2315
  %52 = load { [0 x i8]*, i64 }*, { [0 x i8]*, i64 }** %51, align 8, !dbg !2315, !nonnull !4
  %53 = getelementptr inbounds %"core::fmt::Arguments", %"core::fmt::Arguments"* %2, i64 0, i32 1, i32 1, !dbg !2315
  %54 = load i64, i64* %53, align 8, !dbg !2315
  %55 = icmp ugt i64 %50, %54, !dbg !2316
  %56 = select i1 %55, i64 %54, i64 %50, !dbg !2326
  %57 = icmp eq i64 %56, 0, !dbg !2327
  %58 = bitcast { [0 x i8]*, i64 }* %52 to [0 x { [0 x i8]*, i64 }]*, !dbg !2332
  br i1 %57, label %165, label %59, !dbg !2332

59:                                               ; preds = %45
  %60 = bitcast [3 x i64]** %12 to i1 ({}*, [0 x i8]*, i64)***, !dbg !2306
  %61 = getelementptr inbounds { [0 x i8]*, i64 }, { [0 x i8]*, i64 }* %52, i64 0, i32 0, !dbg !2333
  %62 = load [0 x i8]*, [0 x i8]** %61, align 8, !dbg !2333, !nonnull !4
  %63 = getelementptr inbounds { [0 x i8]*, i64 }, { [0 x i8]*, i64 }* %52, i64 0, i32 1, !dbg !2333
  %64 = load i64, i64* %63, align 8, !dbg !2333
  %65 = getelementptr inbounds [3 x i64], [3 x i64]* %1, i64 0, i64 3, !dbg !2334
  %66 = bitcast i64* %65 to i1 ({}*, [0 x i8]*, i64)**, !dbg !2334
  %67 = load i1 ({}*, [0 x i8]*, i64)*, i1 ({}*, [0 x i8]*, i64)** %66, align 8, !dbg !2334, !invariant.load !4, !nonnull !4
  %68 = call zeroext i1 %67({}* nonnull align 1 %0, [0 x i8]* noalias nonnull readonly align 1 %62, i64 %64), !dbg !2334
  br i1 %68, label %182, label %69, !dbg !2335

69:                                               ; preds = %81, %59
  %70 = phi i64 [ %84, %81 ], [ 1, %59 ]
  %71 = phi i64 [ %70, %81 ], [ 0, %59 ]
  %72 = getelementptr inbounds { i8*, i64* }, { i8*, i64* }* %48, i64 %71, !dbg !2336
  %73 = getelementptr inbounds { i8*, i64* }, { i8*, i64* }* %48, i64 %71, i32 1, !dbg !2343
  %74 = bitcast i64** %73 to i1 ({}*, %"core::fmt::Formatter"*)**, !dbg !2343
  %75 = load i1 ({}*, %"core::fmt::Formatter"*)*, i1 ({}*, %"core::fmt::Formatter"*)** %74, align 8, !dbg !2343, !nonnull !4
  %76 = bitcast { i8*, i64* }* %72 to {}**, !dbg !2344
  %77 = load {}*, {}** %76, align 8, !dbg !2344, !nonnull !4
  %78 = call zeroext i1 %75({}* nonnull align 1 %77, %"core::fmt::Formatter"* nonnull align 8 dereferenceable(64) %4), !dbg !2343
  br i1 %78, label %182, label %79, !dbg !2345

79:                                               ; preds = %69
  %80 = icmp eq i64 %70, %56, !dbg !2327
  br i1 %80, label %165, label %81, !dbg !2332

81:                                               ; preds = %79
  %82 = load {}*, {}** %11, align 8, !dbg !2334
  %83 = load i1 ({}*, [0 x i8]*, i64)**, i1 ({}*, [0 x i8]*, i64)*** %60, align 8, !dbg !2334
  %84 = add nuw i64 %70, 1, !dbg !2346
  %85 = getelementptr inbounds { [0 x i8]*, i64 }, { [0 x i8]*, i64 }* %52, i64 %70, i32 0, !dbg !2333
  %86 = load [0 x i8]*, [0 x i8]** %85, align 8, !dbg !2333, !nonnull !4
  %87 = getelementptr inbounds { [0 x i8]*, i64 }, { [0 x i8]*, i64 }* %52, i64 %70, i32 1, !dbg !2333
  %88 = load i64, i64* %87, align 8, !dbg !2333
  %89 = getelementptr inbounds i1 ({}*, [0 x i8]*, i64)*, i1 ({}*, [0 x i8]*, i64)** %83, i64 3, !dbg !2334
  %90 = load i1 ({}*, [0 x i8]*, i64)*, i1 ({}*, [0 x i8]*, i64)** %89, align 8, !dbg !2334, !invariant.load !4, !nonnull !4
  %91 = call zeroext i1 %90({}* nonnull align 1 %82, [0 x i8]* noalias nonnull readonly align 1 %86, i64 %88), !dbg !2334
  br i1 %91, label %182, label %69, !dbg !2335

92:                                               ; preds = %153, %42
  %93 = phi i64* [ %43, %42 ], [ %157, %153 ]
  %94 = phi i64 [ 1, %42 ], [ %156, %153 ]
  %95 = phi i64 [ 0, %42 ], [ %94, %153 ]
  %96 = bitcast i64* %93 to %"fmt::rt::v1::Argument"*, !dbg !2347
  %97 = getelementptr inbounds %"fmt::rt::v1::Argument", %"fmt::rt::v1::Argument"* %17, i64 %95, i32 0, i64 5, !dbg !2348
  %98 = bitcast i64* %97 to i32*, !dbg !2348
  %99 = load i32, i32* %98, align 8, !dbg !2348, !range !1378, !alias.scope !2349, !noalias !2352
  store i32 %99, i32* %7, align 4, !dbg !2354, !noalias !2355
  %100 = getelementptr inbounds %"fmt::rt::v1::Argument", %"fmt::rt::v1::Argument"* %17, i64 %95, i32 0, i64 6, !dbg !2356
  %101 = bitcast i64* %100 to i8*, !dbg !2356
  %102 = load i8, i8* %101, align 8, !dbg !2356, !range !1353, !alias.scope !2349, !noalias !2352
  store i8 %102, i8* %8, align 8, !dbg !2357, !noalias !2355
  %103 = getelementptr inbounds %"fmt::rt::v1::Argument", %"fmt::rt::v1::Argument"* %96, i64 0, i32 3, i32 7, !dbg !2358
  %104 = load i32, i32* %103, align 4, !dbg !2358, !alias.scope !2349, !noalias !2352
  store i32 %104, i32* %6, align 8, !dbg !2359, !noalias !2355
  %105 = getelementptr inbounds %"fmt::rt::v1::Argument", %"fmt::rt::v1::Argument"* %17, i64 %95, i32 0, i64 3, !dbg !2360
  %106 = load i64, i64* %105, align 8, !dbg !2360, !alias.scope !2349, !noalias !2352
  %107 = getelementptr %"fmt::rt::v1::Argument", %"fmt::rt::v1::Argument"* %17, i64 %95, i32 0, i64 4, !dbg !2360
  %108 = load i64, i64* %107, align 8, !dbg !2360, !alias.scope !2349, !noalias !2352
  switch i64 %106, label %119 [
    i64 0, label %120
    i64 1, label %109
    i64 2, label %121
  ], !dbg !2361

109:                                              ; preds = %92
  %110 = getelementptr inbounds [0 x { i8*, i64* }], [0 x { i8*, i64* }]* %44, i64 0, i64 %108, i32 1, !dbg !2364
  %111 = bitcast i64** %110 to i64*, !dbg !2364
  %112 = load i64, i64* %111, align 8, !dbg !2364, !range !2368, !alias.scope !2369, !noalias !2349
  %113 = icmp eq i64 %112, ptrtoint (i1 (i64*, %"core::fmt::Formatter"*)* @_ZN4core3ops8function6FnOnce9call_once17h00ad4a2ce289a64dE to i64), !dbg !2364
  br i1 %113, label %114, label %121, !dbg !2374

114:                                              ; preds = %109
  %115 = getelementptr inbounds [0 x { i8*, i64* }], [0 x { i8*, i64* }]* %44, i64 0, i64 %108, !dbg !2375
  %116 = bitcast { i8*, i64* }* %115 to i64**, !dbg !2384
  %117 = load i64*, i64** %116, align 8, !dbg !2384, !alias.scope !2369, !noalias !2349, !nonnull !4
  %118 = load i64, i64* %117, align 8, !dbg !2385, !noalias !2386
  br label %121, !dbg !2374

119:                                              ; preds = %92
  unreachable, !dbg !2387

120:                                              ; preds = %92
  br label %121, !dbg !2388

121:                                              ; preds = %120, %114, %109, %92
  %122 = phi i64 [ %108, %120 ], [ undef, %92 ], [ %118, %114 ], [ undef, %109 ]
  %123 = phi i64 [ 1, %120 ], [ 0, %92 ], [ 1, %114 ], [ 0, %109 ], !dbg !2389
  store i64 %123, i64* %9, align 8, !dbg !2390, !noalias !2355
  store i64 %122, i64* %32, align 8, !dbg !2390, !noalias !2355
  %124 = getelementptr inbounds %"fmt::rt::v1::Argument", %"fmt::rt::v1::Argument"* %17, i64 %95, i32 0, i64 1, !dbg !2391
  %125 = load i64, i64* %124, align 8, !dbg !2391, !alias.scope !2349, !noalias !2352
  %126 = getelementptr %"fmt::rt::v1::Argument", %"fmt::rt::v1::Argument"* %17, i64 %95, i32 0, i64 2, !dbg !2391
  %127 = load i64, i64* %126, align 8, !dbg !2391, !alias.scope !2349, !noalias !2352
  switch i64 %125, label %138 [
    i64 0, label %139
    i64 1, label %128
    i64 2, label %140
  ], !dbg !2392

128:                                              ; preds = %121
  %129 = getelementptr inbounds [0 x { i8*, i64* }], [0 x { i8*, i64* }]* %44, i64 0, i64 %127, i32 1, !dbg !2394
  %130 = bitcast i64** %129 to i64*, !dbg !2394
  %131 = load i64, i64* %130, align 8, !dbg !2394, !range !2368, !alias.scope !2396, !noalias !2349
  %132 = icmp eq i64 %131, ptrtoint (i1 (i64*, %"core::fmt::Formatter"*)* @_ZN4core3ops8function6FnOnce9call_once17h00ad4a2ce289a64dE to i64), !dbg !2394
  br i1 %132, label %133, label %140, !dbg !2401

133:                                              ; preds = %128
  %134 = getelementptr inbounds [0 x { i8*, i64* }], [0 x { i8*, i64* }]* %44, i64 0, i64 %127, !dbg !2402
  %135 = bitcast { i8*, i64* }* %134 to i64**, !dbg !2407
  %136 = load i64*, i64** %135, align 8, !dbg !2407, !alias.scope !2396, !noalias !2349, !nonnull !4
  %137 = load i64, i64* %136, align 8, !dbg !2408, !noalias !2409
  br label %140, !dbg !2401

138:                                              ; preds = %121
  unreachable, !dbg !2410

139:                                              ; preds = %121
  br label %140, !dbg !2411

140:                                              ; preds = %139, %133, %128, %121
  %141 = phi i64 [ %127, %139 ], [ undef, %121 ], [ %137, %133 ], [ undef, %128 ]
  %142 = phi i64 [ 1, %139 ], [ 0, %121 ], [ 1, %133 ], [ 0, %128 ], !dbg !2412
  store i64 %142, i64* %10, align 8, !dbg !2413, !noalias !2355
  store i64 %141, i64* %33, align 8, !dbg !2413, !noalias !2355
  %143 = load i64, i64* %93, align 8, !dbg !2414, !alias.scope !2349, !noalias !2352
  %144 = getelementptr inbounds [0 x { i8*, i64* }], [0 x { i8*, i64* }]* %44, i64 0, i64 %143, !dbg !2415
  %145 = getelementptr inbounds [0 x { i8*, i64* }], [0 x { i8*, i64* }]* %44, i64 0, i64 %143, i32 1, !dbg !2420
  %146 = bitcast i64** %145 to i1 ({}*, %"core::fmt::Formatter"*)**, !dbg !2420
  %147 = load i1 ({}*, %"core::fmt::Formatter"*)*, i1 ({}*, %"core::fmt::Formatter"*)** %146, align 8, !dbg !2420, !alias.scope !2352, !noalias !2349, !nonnull !4
  %148 = bitcast { i8*, i64* }* %144 to {}**, !dbg !2421
  %149 = load {}*, {}** %148, align 8, !dbg !2421, !alias.scope !2352, !noalias !2349, !nonnull !4
  %150 = call zeroext i1 %147({}* nonnull align 1 %149, %"core::fmt::Formatter"* nonnull align 8 dereferenceable(64) %4), !dbg !2420, !noalias !2355
  br i1 %150, label %182, label %151, !dbg !2422

151:                                              ; preds = %140
  %152 = icmp eq i64 %94, %26, !dbg !2300
  br i1 %152, label %165, label %153, !dbg !2305

153:                                              ; preds = %151
  %154 = load {}*, {}** %11, align 8, !dbg !2311
  %155 = load i1 ({}*, [0 x i8]*, i64)**, i1 ({}*, [0 x i8]*, i64)*** %30, align 8, !dbg !2311
  %156 = add nuw i64 %94, 1, !dbg !2423
  %157 = getelementptr inbounds %"fmt::rt::v1::Argument", %"fmt::rt::v1::Argument"* %17, i64 %94, i32 0, i64 0, !dbg !2313
  %158 = getelementptr inbounds { [0 x i8]*, i64 }, { [0 x i8]*, i64 }* %22, i64 %94, i32 0, !dbg !2310
  %159 = load [0 x i8]*, [0 x i8]** %158, align 8, !dbg !2310, !nonnull !4
  %160 = getelementptr inbounds { [0 x i8]*, i64 }, { [0 x i8]*, i64 }* %22, i64 %94, i32 1, !dbg !2310
  %161 = load i64, i64* %160, align 8, !dbg !2310
  %162 = getelementptr inbounds i1 ({}*, [0 x i8]*, i64)*, i1 ({}*, [0 x i8]*, i64)** %155, i64 3, !dbg !2311
  %163 = load i1 ({}*, [0 x i8]*, i64)*, i1 ({}*, [0 x i8]*, i64)** %162, align 8, !dbg !2311, !invariant.load !4, !nonnull !4
  %164 = call zeroext i1 %163({}* nonnull align 1 %154, [0 x i8]* noalias nonnull readonly align 1 %159, i64 %161), !dbg !2311
  br i1 %164, label %182, label %92, !dbg !2312

165:                                              ; preds = %151, %79, %45, %18
  %166 = phi i64 [ %54, %45 ], [ %24, %18 ], [ %54, %79 ], [ %24, %151 ], !dbg !2424
  %167 = phi [0 x { [0 x i8]*, i64 }]* [ %58, %45 ], [ %28, %18 ], [ %58, %79 ], [ %28, %151 ], !dbg !2424
  %168 = phi i64 [ 0, %45 ], [ 0, %18 ], [ %56, %79 ], [ %26, %151 ], !dbg !2425
  %169 = icmp ugt i64 %166, %168, !dbg !2426
  br i1 %169, label %170, label %181, !dbg !2431

170:                                              ; preds = %165
  %171 = load {}*, {}** %11, align 8, !dbg !2432, !nonnull !4
  %172 = bitcast [3 x i64]** %12 to i1 ({}*, [0 x i8]*, i64)***, !dbg !2432
  %173 = load i1 ({}*, [0 x i8]*, i64)**, i1 ({}*, [0 x i8]*, i64)*** %172, align 8, !dbg !2432, !nonnull !4
  %174 = getelementptr inbounds [0 x { [0 x i8]*, i64 }], [0 x { [0 x i8]*, i64 }]* %167, i64 0, i64 %168, i32 0, !dbg !2433
  %175 = load [0 x i8]*, [0 x i8]** %174, align 8, !dbg !2433, !nonnull !4
  %176 = getelementptr inbounds [0 x { [0 x i8]*, i64 }], [0 x { [0 x i8]*, i64 }]* %167, i64 0, i64 %168, i32 1, !dbg !2433
  %177 = load i64, i64* %176, align 8, !dbg !2433
  %178 = getelementptr inbounds i1 ({}*, [0 x i8]*, i64)*, i1 ({}*, [0 x i8]*, i64)** %173, i64 3, !dbg !2432
  %179 = load i1 ({}*, [0 x i8]*, i64)*, i1 ({}*, [0 x i8]*, i64)** %178, align 8, !dbg !2432, !invariant.load !4, !nonnull !4
  %180 = call zeroext i1 %179({}* nonnull align 1 %171, [0 x i8]* noalias nonnull readonly align 1 %175, i64 %177), !dbg !2432
  br i1 %180, label %182, label %181, !dbg !2434

181:                                              ; preds = %170, %165
  call void @llvm.lifetime.end.p0i8(i64 64, i8* nonnull %5), !dbg !2435
  br label %183, !dbg !2436

182:                                              ; preds = %170, %153, %140, %81, %69, %59, %29
  call void @llvm.lifetime.end.p0i8(i64 64, i8* nonnull %5), !dbg !2435
  br label %183, !dbg !2436

183:                                              ; preds = %182, %181
  %184 = phi i1 [ false, %181 ], [ true, %182 ]
  ret i1 %184, !dbg !2436
}

; core::slice::index::slice_start_index_len_fail
; Function Attrs: cold noinline noreturn nounwind nonlazybind uwtable
define internal void @_ZN4core5slice5index26slice_start_index_len_fail17h1218e2e291e3f22cE(i64 %0, i64 %1, %"core::panic::Location"* noalias readonly align 8 dereferenceable(24) %2) unnamed_addr #14 !dbg !2437 {
  %4 = alloca [2 x { i8*, i64* }], align 8
  %5 = alloca %"core::fmt::Arguments", align 8
  %6 = alloca i64, align 8
  %7 = alloca i64, align 8
  store i64 %0, i64* %7, align 8
  store i64 %1, i64* %6, align 8
  %8 = bitcast %"core::fmt::Arguments"* %5 to i8*, !dbg !2438
  call void @llvm.lifetime.start.p0i8(i64 48, i8* nonnull %8), !dbg !2438
  %9 = bitcast [2 x { i8*, i64* }]* %4 to i8*, !dbg !2438
  call void @llvm.lifetime.start.p0i8(i64 32, i8* nonnull %9), !dbg !2438
  %10 = bitcast [2 x { i8*, i64* }]* %4 to i64**, !dbg !2438
  store i64* %7, i64** %10, align 8, !dbg !2438
  %11 = getelementptr inbounds [2 x { i8*, i64* }], [2 x { i8*, i64* }]* %4, i64 0, i64 0, i32 1, !dbg !2438
  store i64* bitcast (i1 (i64*, %"core::fmt::Formatter"*)* @"_ZN4core3fmt3num3imp52_$LT$impl$u20$core..fmt..Display$u20$for$u20$u64$GT$3fmt17h48d894a52c575073E" to i64*), i64** %11, align 8, !dbg !2438
  %12 = getelementptr inbounds [2 x { i8*, i64* }], [2 x { i8*, i64* }]* %4, i64 0, i64 1, i32 0, !dbg !2438
  %13 = bitcast i8** %12 to i64**, !dbg !2438
  store i64* %6, i64** %13, align 8, !dbg !2438
  %14 = getelementptr inbounds [2 x { i8*, i64* }], [2 x { i8*, i64* }]* %4, i64 0, i64 1, i32 1, !dbg !2438
