; ModuleID = '/home/ubuntu/container-data/fact/target/debug/deps/fact-ccf4edac9aa028c8.ll'
source_filename = "fact.3prfii8p-cgu.0"
target datalayout = "e-m:e-p270:32:32-p271:32:32-p272:64:64-i64:64-f80:128-n8:16:32:64-S128"
target triple = "x86_64-unknown-linux-gnu"

%"core::fmt::Formatter" = type { [0 x i64], { i64, i64 }, [0 x i64], { i64, i64 }, [0 x i64], { {}*, [3 x i64]* }, [0 x i32], i32, [0 x i32], i32, [0 x i8], i8, [7 x i8] }
%"core::fmt::Arguments" = type { [0 x i64], { [0 x { [0 x i8]*, i64 }]*, i64 }, [0 x i64], { i64*, i64 }, [0 x i64], { [0 x { i8*, i64* }]*, i64 }, [0 x i64] }
%"core::option::Option<usize>::Some" = type { [1 x i64], i64, [0 x i64] }
%"klee_sys::CStr" = type { [0 x i8], [0 x i8] }
%"core::panic::Location" = type { [0 x i64], { [0 x i8]*, i64 }, [0 x i32], i32, [0 x i32], i32, [0 x i32] }
%"panic::PanicInfo" = type { [0 x i64], { {}*, [3 x i64]* }, [0 x i64], i64*, [0 x i64], %"core::panic::Location"*, [0 x i64] }
%"core::mem::MaybeUninit<core::ptr::swap_nonoverlapping_bytes::UnalignedBlock>" = type { [4 x i64] }
%"hash::sip::State" = type { [0 x i64], i64, [0 x i64], i64, [0 x i64], i64, [0 x i64], i64, [0 x i64] }

@alloc22 = private unnamed_addr constant <{ [11 x i8] }> <{ [11 x i8] c"src/main.rs" }>, align 1
@alloc17 = private unnamed_addr constant <{ i8*, [16 x i8] }> <{ i8* getelementptr inbounds (<{ [11 x i8] }>, <{ [11 x i8] }>* @alloc22, i32 0, i32 0, i32 0), [16 x i8] c"\0B\00\00\00\00\00\00\00\0C\00\00\00\16\00\00\00" }>, align 8
@str.0 = internal constant [33 x i8] c"attempt to subtract with overflow"
@alloc19 = private unnamed_addr constant <{ i8*, [16 x i8] }> <{ i8* getelementptr inbounds (<{ [11 x i8] }>, <{ [11 x i8] }>* @alloc22, i32 0, i32 0, i32 0), [16 x i8] c"\0B\00\00\00\00\00\00\00\0C\00\00\00\09\00\00\00" }>, align 8
@str.1 = internal constant [33 x i8] c"attempt to multiply with overflow"
@alloc21 = private unnamed_addr constant <{ i8*, [16 x i8] }> <{ i8* getelementptr inbounds (<{ [11 x i8] }>, <{ [11 x i8] }>* @alloc22, i32 0, i32 0, i32 0), [16 x i8] c"\0B\00\00\00\00\00\00\00\17\00\00\00\0D\00\00\00" }>, align 8
@alloc5 = private unnamed_addr constant <{ [45 x i8] }> <{ [45 x i8] c"assertion failed: `(left == right)`\0A  left: `" }>, align 1
@alloc7 = private unnamed_addr constant <{ [12 x i8] }> <{ [12 x i8] c"`,\0A right: `" }>, align 1
@alloc8 = private unnamed_addr constant <{ [1 x i8] }> <{ [1 x i8] c"`" }>, align 1
@alloc6 = private unnamed_addr constant <{ i8*, [8 x i8], i8*, [8 x i8], i8*, [8 x i8] }> <{ i8* getelementptr inbounds (<{ [45 x i8] }>, <{ [45 x i8] }>* @alloc5, i32 0, i32 0, i32 0), [8 x i8] c"-\00\00\00\00\00\00\00", i8* getelementptr inbounds (<{ [12 x i8] }>, <{ [12 x i8] }>* @alloc7, i32 0, i32 0, i32 0), [8 x i8] c"\0C\00\00\00\00\00\00\00", i8* getelementptr inbounds (<{ [1 x i8] }>, <{ [1 x i8] }>* @alloc8, i32 0, i32 0, i32 0), [8 x i8] c"\01\00\00\00\00\00\00\00" }>, align 8
@alloc23 = private unnamed_addr constant <{ i8*, [16 x i8] }> <{ i8* getelementptr inbounds (<{ [11 x i8] }>, <{ [11 x i8] }>* @alloc22, i32 0, i32 0, i32 0), [16 x i8] c"\0B\00\00\00\00\00\00\00\1F\00\00\00\05\00\00\00" }>, align 8
@alloc24 = private unnamed_addr constant <{ [2 x i8] }> <{ [2 x i8] c"n\00" }>, align 1
@anon.965c706604096d42e5b155eaa3c30edf.12 = private unnamed_addr constant <{ [0 x i8] }> zeroinitializer, align 8
@anon.965c706604096d42e5b155eaa3c30edf.177 = private unnamed_addr constant { void ({}*)*, i64, i64, i64 ({}*)* } { void ({}*)* bitcast (void ({ i8*, i8* }**)* @"_ZN4core3ptr102drop_in_place$LT$$RF$core..iter..adapters..copied..Copied$LT$core..slice..iter..Iter$LT$u8$GT$$GT$$GT$17h5913dccf4681891cE" to void ({}*)*), i64 0, i64 1, i64 ({}*)* @"_ZN36_$LT$T$u20$as$u20$core..any..Any$GT$7type_id17h108f63b8120e9c9cE" }, align 8
@anon.965c706604096d42e5b155eaa3c30edf.223 = private unnamed_addr constant <{ [200 x i8] }> <{ [200 x i8] c"00010203040506070809101112131415161718192021222324252627282930313233343536373839404142434445464748495051525354555657585960616263646566676869707172737475767778798081828384858687888990919293949596979899" }>, align 1
@anon.965c706604096d42e5b155eaa3c30edf.244 = private unnamed_addr constant <{ [34 x i8] }> <{ [34 x i8] c" out of range for slice of length " }>, align 1
@anon.965c706604096d42e5b155eaa3c30edf.219 = private unnamed_addr constant <{ i8*, [16 x i8] }> <{ i8* getelementptr inbounds (<{ [27 x i8] }>, <{ [27 x i8] }>* @anon.965c706604096d42e5b155eaa3c30edf.218, i32 0, i32 0, i32 0), [16 x i8] c"\1B\00\00\00\00\00\00\00e\00\00\00\14\00\00\00" }>, align 8
@anon.965c706604096d42e5b155eaa3c30edf.222 = private unnamed_addr constant <{ [2 x i8] }> <{ [2 x i8] c"0x" }>, align 1
@anon.965c706604096d42e5b155eaa3c30edf.245 = private unnamed_addr constant <{ i8*, [8 x i8], i8*, [8 x i8] }> <{ i8* getelementptr inbounds (<{ [18 x i8] }>, <{ [18 x i8] }>* @anon.965c706604096d42e5b155eaa3c30edf.243, i32 0, i32 0, i32 0), [8 x i8] c"\12\00\00\00\00\00\00\00", i8* getelementptr inbounds (<{ [34 x i8] }>, <{ [34 x i8] }>* @anon.965c706604096d42e5b155eaa3c30edf.244, i32 0, i32 0, i32 0), [8 x i8] c"\22\00\00\00\00\00\00\00" }>, align 8
@anon.965c706604096d42e5b155eaa3c30edf.243 = private unnamed_addr constant <{ [18 x i8] }> <{ [18 x i8] c"range start index " }>, align 1
@anon.965c706604096d42e5b155eaa3c30edf.218 = private unnamed_addr constant <{ [27 x i8] }> <{ [27 x i8] c"library/core/src/fmt/num.rs" }>, align 1

@"_ZN4core3fmt3num55_$LT$impl$u20$core..fmt..LowerHex$u20$for$u20$usize$GT$3fmt17hc5d551cc331a3d29E" = internal unnamed_addr alias i1 (i64*, %"core::fmt::Formatter"*), i1 (i64*, %"core::fmt::Formatter"*)* @"_ZN4core3fmt3num53_$LT$impl$u20$core..fmt..LowerHex$u20$for$u20$i64$GT$3fmt17hc386b79478f7220bE"
@"_ZN4core3fmt3num55_$LT$impl$u20$core..fmt..UpperHex$u20$for$u20$usize$GT$3fmt17h7b9678389d8e4dbaE" = internal unnamed_addr alias i1 (i64*, %"core::fmt::Formatter"*), i1 (i64*, %"core::fmt::Formatter"*)* @"_ZN4core3fmt3num53_$LT$impl$u20$core..fmt..UpperHex$u20$for$u20$i64$GT$3fmt17h5804edae826a5de1E"
@"_ZN4core3fmt3num3imp54_$LT$impl$u20$core..fmt..Display$u20$for$u20$usize$GT$3fmt17hdf38f9e8c4c02304E" = internal unnamed_addr alias i1 (i64*, %"core::fmt::Formatter"*), i1 (i64*, %"core::fmt::Formatter"*)* @"_ZN4core3fmt3num3imp52_$LT$impl$u20$core..fmt..Display$u20$for$u20$u64$GT$3fmt17h48d894a52c575073E"

; Function Attrs: inlinehint norecurse nounwind nonlazybind readnone
define internal i64 @"_ZN49_$LT$usize$u20$as$u20$core..iter..range..Step$GT$17forward_unchecked17h8b9fb1dc7c11c73cE"(i64 %start1, i64 %n) unnamed_addr #0 !dbg !392 {
start:
  %n.dbg.spill = alloca i64, align 8
  %start.dbg.spill = alloca i64, align 8
  store i64 %start1, i64* %start.dbg.spill, align 8
  call void @llvm.dbg.declare(metadata i64* %start.dbg.spill, metadata !400, metadata !DIExpression()), !dbg !402
  store i64 %n, i64* %n.dbg.spill, align 8
  call void @llvm.dbg.declare(metadata i64* %n.dbg.spill, metadata !401, metadata !DIExpression()), !dbg !403
  %0 = call i64 @"_ZN4core3num23_$LT$impl$u20$usize$GT$13unchecked_add17h9899d7dca507955bE"(i64 %start1, i64 %n), !dbg !404
  ret i64 %0, !dbg !405
}

; Function Attrs: inlinehint norecurse nounwind nonlazybind readonly
define internal zeroext i1 @"_ZN4core3cmp5impls57_$LT$impl$u20$core..cmp..PartialOrd$u20$for$u20$usize$GT$2lt17hd1a65a55b9a723ccE"(i64* noalias readonly align 8 dereferenceable(8) %self, i64* noalias readonly align 8 dereferenceable(8) %other) unnamed_addr #1 !dbg !406 {
start:
  %other.dbg.spill = alloca i64*, align 8
  %self.dbg.spill = alloca i64*, align 8
  store i64* %self, i64** %self.dbg.spill, align 8
  call void @llvm.dbg.declare(metadata i64** %self.dbg.spill, metadata !414, metadata !DIExpression()), !dbg !416
  store i64* %other, i64** %other.dbg.spill, align 8
  call void @llvm.dbg.declare(metadata i64** %other.dbg.spill, metadata !415, metadata !DIExpression()), !dbg !417
  %_3 = load i64, i64* %self, align 8, !dbg !418
  %_4 = load i64, i64* %other, align 8, !dbg !419
  %0 = icmp ult i64 %_3, %_4, !dbg !418
  ret i1 %0, !dbg !420
}

; Function Attrs: inlinehint nofree norecurse nounwind nonlazybind writeonly
define internal void @_ZN4core3fmt9Arguments6new_v117hdff1995a1908b6f3E(%"core::fmt::Arguments"* noalias nocapture sret dereferenceable(48) %0, [0 x { [0 x i8]*, i64 }]* noalias nonnull readonly align 8 %pieces.0, i64 %pieces.1, [0 x { i8*, i64* }]* noalias nonnull readonly align 8 %args.0, i64 %args.1) unnamed_addr #2 !dbg !421 {
start:
  %args.dbg.spill = alloca { [0 x { i8*, i64* }]*, i64 }, align 8
  %pieces.dbg.spill = alloca { [0 x { [0 x i8]*, i64 }]*, i64 }, align 8
  %_4 = alloca { i64*, i64 }, align 8
  %1 = getelementptr inbounds { [0 x { [0 x i8]*, i64 }]*, i64 }, { [0 x { [0 x i8]*, i64 }]*, i64 }* %pieces.dbg.spill, i32 0, i32 0
  store [0 x { [0 x i8]*, i64 }]* %pieces.0, [0 x { [0 x i8]*, i64 }]** %1, align 8
  %2 = getelementptr inbounds { [0 x { [0 x i8]*, i64 }]*, i64 }, { [0 x { [0 x i8]*, i64 }]*, i64 }* %pieces.dbg.spill, i32 0, i32 1
  store i64 %pieces.1, i64* %2, align 8
  call void @llvm.dbg.declare(metadata { [0 x { [0 x i8]*, i64 }]*, i64 }* %pieces.dbg.spill, metadata !526, metadata !DIExpression()), !dbg !528
  %3 = getelementptr inbounds { [0 x { i8*, i64* }]*, i64 }, { [0 x { i8*, i64* }]*, i64 }* %args.dbg.spill, i32 0, i32 0
  store [0 x { i8*, i64* }]* %args.0, [0 x { i8*, i64* }]** %3, align 8
  %4 = getelementptr inbounds { [0 x { i8*, i64* }]*, i64 }, { [0 x { i8*, i64* }]*, i64 }* %args.dbg.spill, i32 0, i32 1
  store i64 %args.1, i64* %4, align 8
  call void @llvm.dbg.declare(metadata { [0 x { i8*, i64* }]*, i64 }* %args.dbg.spill, metadata !527, metadata !DIExpression()), !dbg !529
  %5 = bitcast { i64*, i64 }* %_4 to {}**, !dbg !530
  store {}* null, {}** %5, align 8, !dbg !530
  %6 = bitcast %"core::fmt::Arguments"* %0 to { [0 x { [0 x i8]*, i64 }]*, i64 }*, !dbg !531
  %7 = getelementptr inbounds { [0 x { [0 x i8]*, i64 }]*, i64 }, { [0 x { [0 x i8]*, i64 }]*, i64 }* %6, i32 0, i32 0, !dbg !531
  store [0 x { [0 x i8]*, i64 }]* %pieces.0, [0 x { [0 x i8]*, i64 }]** %7, align 8, !dbg !531
  %8 = getelementptr inbounds { [0 x { [0 x i8]*, i64 }]*, i64 }, { [0 x { [0 x i8]*, i64 }]*, i64 }* %6, i32 0, i32 1, !dbg !531
  store i64 %pieces.1, i64* %8, align 8, !dbg !531
  %9 = getelementptr inbounds %"core::fmt::Arguments", %"core::fmt::Arguments"* %0, i32 0, i32 3, !dbg !531
  %10 = getelementptr inbounds { i64*, i64 }, { i64*, i64 }* %_4, i32 0, i32 0, !dbg !531
  %11 = load i64*, i64** %10, align 8, !dbg !531
  %12 = getelementptr inbounds { i64*, i64 }, { i64*, i64 }* %_4, i32 0, i32 1, !dbg !531
  %13 = load i64, i64* %12, align 8, !dbg !531
  %14 = getelementptr inbounds { i64*, i64 }, { i64*, i64 }* %9, i32 0, i32 0, !dbg !531
  store i64* %11, i64** %14, align 8, !dbg !531
  %15 = getelementptr inbounds { i64*, i64 }, { i64*, i64 }* %9, i32 0, i32 1, !dbg !531
  store i64 %13, i64* %15, align 8, !dbg !531
  %16 = getelementptr inbounds %"core::fmt::Arguments", %"core::fmt::Arguments"* %0, i32 0, i32 5, !dbg !531
  %17 = getelementptr inbounds { [0 x { i8*, i64* }]*, i64 }, { [0 x { i8*, i64* }]*, i64 }* %16, i32 0, i32 0, !dbg !531
  store [0 x { i8*, i64* }]* %args.0, [0 x { i8*, i64* }]** %17, align 8, !dbg !531
  %18 = getelementptr inbounds { [0 x { i8*, i64* }]*, i64 }, { [0 x { i8*, i64* }]*, i64 }* %16, i32 0, i32 1, !dbg !531
  store i64 %args.1, i64* %18, align 8, !dbg !531
  ret void, !dbg !532
}

; Function Attrs: inlinehint norecurse nounwind nonlazybind readnone
define internal i64 @"_ZN4core3num23_$LT$impl$u20$usize$GT$13unchecked_add17h9899d7dca507955bE"(i64 %self, i64 %rhs) unnamed_addr #0 !dbg !533 {
start:
  %0 = alloca i64, align 8
  %rhs.dbg.spill = alloca i64, align 8
  %self.dbg.spill = alloca i64, align 8
  store i64 %self, i64* %self.dbg.spill, align 8
  call void @llvm.dbg.declare(metadata i64* %self.dbg.spill, metadata !538, metadata !DIExpression()), !dbg !540
  store i64 %rhs, i64* %rhs.dbg.spill, align 8
  call void @llvm.dbg.declare(metadata i64* %rhs.dbg.spill, metadata !539, metadata !DIExpression()), !dbg !541
  %1 = add nuw i64 %self, %rhs, !dbg !542
  store i64 %1, i64* %0, align 8, !dbg !542
  %2 = load i64, i64* %0, align 8, !dbg !542
  ret i64 %2, !dbg !543
}

; Function Attrs: inlinehint nounwind nonlazybind
define internal { i64, i64 } @"_ZN4core4iter5range101_$LT$impl$u20$core..iter..traits..iterator..Iterator$u20$for$u20$core..ops..range..Range$LT$A$GT$$GT$4next17h64554391fe200e92E"({ i64, i64 }* align 8 dereferenceable(16) %self) unnamed_addr #3 !dbg !544 {
start:
  %n.dbg.spill = alloca i64, align 8
  %self.dbg.spill = alloca { i64, i64 }*, align 8
  %0 = alloca { i64, i64 }, align 8
  store { i64, i64 }* %self, { i64, i64 }** %self.dbg.spill, align 8
  call void @llvm.dbg.declare(metadata { i64, i64 }** %self.dbg.spill, metadata !557, metadata !DIExpression()), !dbg !562
  %_3 = bitcast { i64, i64 }* %self to i64*, !dbg !563
  %_4 = getelementptr inbounds { i64, i64 }, { i64, i64 }* %self, i32 0, i32 1, !dbg !564
  %_2 = call zeroext i1 @"_ZN4core3cmp5impls57_$LT$impl$u20$core..cmp..PartialOrd$u20$for$u20$usize$GT$2lt17hd1a65a55b9a723ccE"(i64* noalias readonly align 8 dereferenceable(8) %_3, i64* noalias readonly align 8 dereferenceable(8) %_4), !dbg !563
  br i1 %_2, label %bb2, label %bb3, !dbg !565

bb2:                                              ; preds = %start
  %_7 = bitcast { i64, i64 }* %self to i64*, !dbg !566
  %_6 = call i64 @"_ZN4core5clone5impls54_$LT$impl$u20$core..clone..Clone$u20$for$u20$usize$GT$5clone17h7a6ffaa75f79ab0bE"(i64* noalias readonly align 8 dereferenceable(8) %_7), !dbg !566
  %n = call i64 @"_ZN49_$LT$usize$u20$as$u20$core..iter..range..Step$GT$17forward_unchecked17h8b9fb1dc7c11c73cE"(i64 %_6, i64 1), !dbg !567
  store i64 %n, i64* %n.dbg.spill, align 8, !dbg !567
  call void @llvm.dbg.declare(metadata i64* %n.dbg.spill, metadata !558, metadata !DIExpression()), !dbg !568
  %_10 = bitcast { i64, i64 }* %self to i64*, !dbg !569
  %_8 = call i64 @_ZN4core3mem7replace17hf3b6497db9e66a68E(i64* align 8 dereferenceable(8) %_10, i64 %n), !dbg !570
  %1 = bitcast { i64, i64 }* %0 to %"core::option::Option<usize>::Some"*, !dbg !571
  %2 = getelementptr inbounds %"core::option::Option<usize>::Some", %"core::option::Option<usize>::Some"* %1, i32 0, i32 1, !dbg !571
  store i64 %_8, i64* %2, align 8, !dbg !571
  %3 = bitcast { i64, i64 }* %0 to i64*, !dbg !571
  store i64 1, i64* %3, align 8, !dbg !571
  br label %bb7, !dbg !565

bb3:                                              ; preds = %start
  %4 = bitcast { i64, i64 }* %0 to i64*, !dbg !572
  store i64 0, i64* %4, align 8, !dbg !572
  br label %bb7, !dbg !565

bb7:                                              ; preds = %bb3, %bb2
  %5 = getelementptr inbounds { i64, i64 }, { i64, i64 }* %0, i32 0, i32 0, !dbg !573
  %6 = load i64, i64* %5, align 8, !dbg !573, !range !574
  %7 = getelementptr inbounds { i64, i64 }, { i64, i64 }* %0, i32 0, i32 1, !dbg !573
  %8 = load i64, i64* %7, align 8, !dbg !573
  %9 = insertvalue { i64, i64 } undef, i64 %6, 0, !dbg !573
  %10 = insertvalue { i64, i64 } %9, i64 %8, 1, !dbg !573
  ret { i64, i64 } %10, !dbg !573
}

; Function Attrs: inlinehint norecurse nounwind nonlazybind readonly
define internal i64 @"_ZN4core5clone5impls54_$LT$impl$u20$core..clone..Clone$u20$for$u20$usize$GT$5clone17h7a6ffaa75f79ab0bE"(i64* noalias readonly align 8 dereferenceable(8) %self) unnamed_addr #1 !dbg !575 {
start:
  %self.dbg.spill = alloca i64*, align 8
  store i64* %self, i64** %self.dbg.spill, align 8
  call void @llvm.dbg.declare(metadata i64** %self.dbg.spill, metadata !583, metadata !DIExpression()), !dbg !584
  %0 = load i64, i64* %self, align 8, !dbg !585
  ret i64 %0, !dbg !586
}

; Function Attrs: norecurse nounwind nonlazybind readnone
define internal { i64, i64 } @"_ZN63_$LT$I$u20$as$u20$core..iter..traits..collect..IntoIterator$GT$9into_iter17h12b824c37dd70ccaE"(i64 %self.0, i64 %self.1) unnamed_addr #4 !dbg !587 {
start:
  %self.dbg.spill = alloca { i64, i64 }, align 8
  %0 = getelementptr inbounds { i64, i64 }, { i64, i64 }* %self.dbg.spill, i32 0, i32 0
  store i64 %self.0, i64* %0, align 8
  %1 = getelementptr inbounds { i64, i64 }, { i64, i64 }* %self.dbg.spill, i32 0, i32 1
  store i64 %self.1, i64* %1, align 8
  call void @llvm.dbg.declare(metadata { i64, i64 }* %self.dbg.spill, metadata !595, metadata !DIExpression()), !dbg !598
  %2 = insertvalue { i64, i64 } undef, i64 %self.0, 0, !dbg !599
  %3 = insertvalue { i64, i64 } %2, i64 %self.1, 1, !dbg !599
  ret { i64, i64 } %3, !dbg !599
}

; Function Attrs: inlinehint norecurse nounwind nonlazybind readnone
define internal { %"klee_sys::CStr"*, i64 } @_ZN9cstr_core4CStr29from_bytes_with_nul_unchecked17hc5c7ee9b72f6f886E([0 x i8]* noalias nonnull readonly align 1 %bytes.0, i64 %bytes.1) unnamed_addr #0 !dbg !600 {
start:
  %bytes.dbg.spill = alloca { [0 x i8]*, i64 }, align 8
  %0 = getelementptr inbounds { [0 x i8]*, i64 }, { [0 x i8]*, i64 }* %bytes.dbg.spill, i32 0, i32 0
  store [0 x i8]* %bytes.0, [0 x i8]** %0, align 8
  %1 = getelementptr inbounds { [0 x i8]*, i64 }, { [0 x i8]*, i64 }* %bytes.dbg.spill, i32 0, i32 1
  store i64 %bytes.1, i64* %1, align 8
  call void @llvm.dbg.declare(metadata { [0 x i8]*, i64 }* %bytes.dbg.spill, metadata !616, metadata !DIExpression()), !dbg !617
  %_2.0 = bitcast [0 x i8]* %bytes.0 to %"klee_sys::CStr"*, !dbg !618
  %2 = insertvalue { %"klee_sys::CStr"*, i64 } undef, %"klee_sys::CStr"* %_2.0, 0, !dbg !619
  %3 = insertvalue { %"klee_sys::CStr"*, i64 } %2, i64 %bytes.1, 1, !dbg !619
  ret { %"klee_sys::CStr"*, i64 } %3, !dbg !619
}

; Function Attrs: inlinehint norecurse nounwind nonlazybind readnone
define internal nonnull i8* @_ZN9cstr_core4CStr6as_ptr17hbd2976e9ba5ef15eE(%"klee_sys::CStr"* noalias nonnull readonly align 1 %self.0, i64 %self.1) unnamed_addr #0 !dbg !620 {
start:
  %self.dbg.spill = alloca { %"klee_sys::CStr"*, i64 }, align 8
  %0 = getelementptr inbounds { %"klee_sys::CStr"*, i64 }, { %"klee_sys::CStr"*, i64 }* %self.dbg.spill, i32 0, i32 0
  store %"klee_sys::CStr"* %self.0, %"klee_sys::CStr"** %0, align 8
  %1 = getelementptr inbounds { %"klee_sys::CStr"*, i64 }, { %"klee_sys::CStr"*, i64 }* %self.dbg.spill, i32 0, i32 1
  store i64 %self.1, i64* %1, align 8
  call void @llvm.dbg.declare(metadata { %"klee_sys::CStr"*, i64 }* %self.dbg.spill, metadata !625, metadata !DIExpression()), !dbg !626
  %_2.0 = bitcast %"klee_sys::CStr"* %self.0 to [0 x i8]*, !dbg !627
  %2 = call i8* @"_ZN4core5slice29_$LT$impl$u20$$u5b$T$u5d$$GT$6as_ptr17hc11cd399229b063eE"([0 x i8]* noalias nonnull readonly align 1 %_2.0, i64 %self.1), !dbg !627
  ret i8* %2, !dbg !628
}

; Function Attrs: nounwind nonlazybind
define internal i64 @_ZN4fact8fact_rec17hdf4d9bb7eb76daaaE(i64 %n) unnamed_addr #5 !dbg !629 {
start:
  %n.dbg.spill = alloca i64, align 8
  %_2 = alloca i8, align 1
  %0 = alloca i64, align 8
  store i64 %n, i64* %n.dbg.spill, align 8
  call void @llvm.dbg.declare(metadata i64* %n.dbg.spill, metadata !635, metadata !DIExpression()), !dbg !636
  %switch = icmp ult i64 %n, 2, !dbg !637
  br i1 %switch, label %bb1, label %bb2, !dbg !637

bb1:                                              ; preds = %start
  store i8 1, i8* %_2, align 1, !dbg !637
  br label %bb4, !dbg !637

bb2:                                              ; preds = %start
  store i8 0, i8* %_2, align 1, !dbg !637
  br label %bb4, !dbg !637

bb4:                                              ; preds = %bb2, %bb1
  %1 = load i8, i8* %_2, align 1, !dbg !638, !range !639
  %2 = trunc i8 %1 to i1, !dbg !638
  br i1 %2, label %bb5, label %bb6, !dbg !638

bb5:                                              ; preds = %bb4
  store i64 1, i64* %0, align 8, !dbg !640
  br label %bb10, !dbg !641

bb6:                                              ; preds = %bb4
  %3 = zext i64 %n to i128, !dbg !642
  %4 = sub i128 %3, 1, !dbg !642
  %5 = icmp ugt i128 %4, 18446744073709551615, !dbg !642
  %6 = trunc i128 %4 to i64, !dbg !642
  %7 = insertvalue { i64, i1 } undef, i64 %6, 0, !dbg !642
  %8 = insertvalue { i64, i1 } %7, i1 %5, 1, !dbg !642
  %_9.0 = extractvalue { i64, i1 } %8, 0, !dbg !642
  %_9.1 = extractvalue { i64, i1 } %8, 1, !dbg !642
  br i1 %_9.1, label %panic, label %bb7, !dbg !642

bb7:                                              ; preds = %bb6
  %_6 = call i64 @_ZN4fact8fact_rec17hdf4d9bb7eb76daaaE(i64 %_9.0), !dbg !643
  %9 = zext i64 %n to i128, !dbg !644
  %10 = zext i64 %_6 to i128, !dbg !644
  %11 = mul i128 %9, %10, !dbg !644
  %12 = icmp ugt i128 %11, 18446744073709551615, !dbg !644
  %13 = trunc i128 %11 to i64, !dbg !644
  %14 = insertvalue { i64, i1 } undef, i64 %13, 0, !dbg !644
  %15 = insertvalue { i64, i1 } %14, i1 %12, 1, !dbg !644
  %_10.0 = extractvalue { i64, i1 } %15, 0, !dbg !644
  %_10.1 = extractvalue { i64, i1 } %15, 1, !dbg !644
  br i1 %_10.1, label %panic1, label %bb9, !dbg !644

bb9:                                              ; preds = %bb7
  store i64 %_10.0, i64* %0, align 8, !dbg !644
  br label %bb10, !dbg !641

bb10:                                             ; preds = %bb9, %bb5
  %16 = load i64, i64* %0, align 8, !dbg !641
  ret i64 %16, !dbg !641

panic:                                            ; preds = %bb6
  call void @_ZN4core9panicking5panic17h07405d6be4bce887E([0 x i8]* noalias nonnull readonly align 1 bitcast ([33 x i8]* @str.0 to [0 x i8]*), i64 33, %"core::panic::Location"* noalias readonly align 8 dereferenceable(24) bitcast (<{ i8*, [16 x i8] }>* @alloc17 to %"core::panic::Location"*)), !dbg !642
  unreachable, !dbg !642

panic1:                                           ; preds = %bb7
  call void @_ZN4core9panicking5panic17h07405d6be4bce887E([0 x i8]* noalias nonnull readonly align 1 bitcast ([33 x i8]* @str.1 to [0 x i8]*), i64 33, %"core::panic::Location"* noalias readonly align 8 dereferenceable(24) bitcast (<{ i8*, [16 x i8] }>* @alloc19 to %"core::panic::Location"*)), !dbg !644
  unreachable, !dbg !644
}

; Function Attrs: nounwind nonlazybind
define internal i64 @_ZN4fact9fact_iter17h44762abafc1662aaE(i64 %n) unnamed_addr #5 !dbg !645 {
start:
  %x.dbg.spill = alloca i64, align 8
  %__next.dbg.spill = alloca i64, align 8
  %val.dbg.spill = alloca i64, align 8
  %n.dbg.spill = alloca i64, align 8
  %_11 = alloca { i64, i64 }, align 8
  %iter = alloca { i64, i64 }, align 8
  %_7 = alloca { i64, i64 }, align 8
  %_3 = alloca i8, align 1
  %prod = alloca i64, align 8
  %0 = alloca i64, align 8
  store i64 %n, i64* %n.dbg.spill, align 8
  call void @llvm.dbg.declare(metadata i64* %n.dbg.spill, metadata !647, metadata !DIExpression()), !dbg !658
  call void @llvm.dbg.declare(metadata i64* %prod, metadata !648, metadata !DIExpression()), !dbg !659
  call void @llvm.dbg.declare(metadata { i64, i64 }* %iter, metadata !650, metadata !DIExpression()), !dbg !660
  store i64 1, i64* %prod, align 8, !dbg !661
  %switch = icmp ult i64 %n, 2, !dbg !662
  br i1 %switch, label %bb1, label %bb2, !dbg !662

bb1:                                              ; preds = %start
  store i8 1, i8* %_3, align 1, !dbg !662
  br label %bb4, !dbg !662

bb2:                                              ; preds = %start
  store i8 0, i8* %_3, align 1, !dbg !662
  br label %bb4, !dbg !662

bb4:                                              ; preds = %bb2, %bb1
  %1 = load i8, i8* %_3, align 1, !dbg !663, !range !639
  %2 = trunc i8 %1 to i1, !dbg !663
  br i1 %2, label %bb5, label %bb6, !dbg !663

bb5:                                              ; preds = %bb4
  %3 = load i64, i64* %prod, align 8, !dbg !664
  store i64 %3, i64* %0, align 8, !dbg !664
  br label %bb14, !dbg !665

bb6:                                              ; preds = %bb4
  %4 = bitcast { i64, i64 }* %_7 to i64*, !dbg !666
  store i64 2, i64* %4, align 8, !dbg !666
  %5 = getelementptr inbounds { i64, i64 }, { i64, i64 }* %_7, i32 0, i32 1, !dbg !666
  store i64 %n, i64* %5, align 8, !dbg !666
  %6 = getelementptr inbounds { i64, i64 }, { i64, i64 }* %_7, i32 0, i32 0, !dbg !666
  %7 = load i64, i64* %6, align 8, !dbg !666
  %8 = getelementptr inbounds { i64, i64 }, { i64, i64 }* %_7, i32 0, i32 1, !dbg !666
  %9 = load i64, i64* %8, align 8, !dbg !666
  %10 = call { i64, i64 } @"_ZN63_$LT$I$u20$as$u20$core..iter..traits..collect..IntoIterator$GT$9into_iter17h12b824c37dd70ccaE"(i64 %7, i64 %9), !dbg !666
  %_6.0 = extractvalue { i64, i64 } %10, 0, !dbg !666
  %_6.1 = extractvalue { i64, i64 } %10, 1, !dbg !666
  %11 = getelementptr inbounds { i64, i64 }, { i64, i64 }* %iter, i32 0, i32 0, !dbg !666
  store i64 %_6.0, i64* %11, align 8, !dbg !666
  %12 = getelementptr inbounds { i64, i64 }, { i64, i64 }* %iter, i32 0, i32 1, !dbg !666
  store i64 %_6.1, i64* %12, align 8, !dbg !666
  br label %bb8, !dbg !667

bb8:                                              ; preds = %bb13, %bb6
  %13 = call { i64, i64 } @"_ZN4core4iter5range101_$LT$impl$u20$core..iter..traits..iterator..Iterator$u20$for$u20$core..ops..range..Range$LT$A$GT$$GT$4next17h64554391fe200e92E"({ i64, i64 }* align 8 dereferenceable(16) %iter), !dbg !668
  store { i64, i64 } %13, { i64, i64 }* %_11, align 8, !dbg !668
  %14 = bitcast { i64, i64 }* %_11 to i64*, !dbg !669
  %_14 = load i64, i64* %14, align 8, !dbg !669, !range !574
  %switch1 = icmp ult i64 %_14, 1, !dbg !669
  br i1 %switch1, label %bb10, label %bb12, !dbg !669

bb10:                                             ; preds = %bb8
  %15 = load i64, i64* %prod, align 8, !dbg !670
  store i64 %15, i64* %0, align 8, !dbg !670
  br label %bb14, !dbg !671

bb12:                                             ; preds = %bb8
  %16 = bitcast { i64, i64 }* %_11 to %"core::option::Option<usize>::Some"*, !dbg !669
  %17 = getelementptr inbounds %"core::option::Option<usize>::Some", %"core::option::Option<usize>::Some"* %16, i32 0, i32 1, !dbg !669
  %val = load i64, i64* %17, align 8, !dbg !669
  store i64 %val, i64* %val.dbg.spill, align 8, !dbg !669
  call void @llvm.dbg.declare(metadata i64* %val.dbg.spill, metadata !654, metadata !DIExpression()), !dbg !672
  store i64 %val, i64* %__next.dbg.spill, align 8, !dbg !672
  call void @llvm.dbg.declare(metadata i64* %__next.dbg.spill, metadata !652, metadata !DIExpression()), !dbg !668
  store i64 %val, i64* %x.dbg.spill, align 8, !dbg !668
  call void @llvm.dbg.declare(metadata i64* %x.dbg.spill, metadata !656, metadata !DIExpression()), !dbg !673
  %18 = load i64, i64* %prod, align 8, !dbg !674
  %19 = zext i64 %18 to i128, !dbg !674
  %20 = zext i64 %val to i128, !dbg !674
  %21 = mul i128 %19, %20, !dbg !674
  %22 = icmp ugt i128 %21, 18446744073709551615, !dbg !674
  %23 = trunc i128 %21 to i64, !dbg !674
  %24 = insertvalue { i64, i1 } undef, i64 %23, 0, !dbg !674
  %25 = insertvalue { i64, i1 } %24, i1 %22, 1, !dbg !674
  %_19.0 = extractvalue { i64, i1 } %25, 0, !dbg !674
  %_19.1 = extractvalue { i64, i1 } %25, 1, !dbg !674
  br i1 %_19.1, label %panic, label %bb13, !dbg !674

bb13:                                             ; preds = %bb12
  store i64 %_19.0, i64* %prod, align 8, !dbg !674
  br label %bb8, !dbg !667

bb14:                                             ; preds = %bb10, %bb5
  %26 = load i64, i64* %0, align 8, !dbg !675
  ret i64 %26, !dbg !675

panic:                                            ; preds = %bb12
  call void @_ZN4core9panicking5panic17h07405d6be4bce887E([0 x i8]* noalias nonnull readonly align 1 bitcast ([33 x i8]* @str.1 to [0 x i8]*), i64 33, %"core::panic::Location"* noalias readonly align 8 dereferenceable(24) bitcast (<{ i8*, [16 x i8] }>* @alloc21 to %"core::panic::Location"*)), !dbg !674
  unreachable, !dbg !674
}

; Function Attrs: nounwind nonlazybind
define internal void @_ZN4fact9fact_test17ha2f44ee6e1c3dbacE(i64 %n) unnamed_addr #5 !dbg !676 {
start:
  %arg1.dbg.spill = alloca i64**, align 8
  %arg0.dbg.spill = alloca i64**, align 8
  %right_val.dbg.spill = alloca i64*, align 8
  %left_val.dbg.spill = alloca i64*, align 8
  %n.dbg.spill = alloca i64, align 8
  %_27 = alloca i64*, align 8
  %_25 = alloca i64*, align 8
  %_23 = alloca { i64*, i64* }, align 8
  %_22 = alloca [2 x { i8*, i64* }], align 8
  %_15 = alloca %"core::fmt::Arguments", align 8
  %_7 = alloca i64, align 8
  %_4 = alloca i64, align 8
  %_2 = alloca { i64*, i64* }, align 8
  store i64 %n, i64* %n.dbg.spill, align 8
  call void @llvm.dbg.declare(metadata i64* %n.dbg.spill, metadata !680, metadata !DIExpression()), !dbg !692
  %0 = call i64 @_ZN4fact8fact_rec17hdf4d9bb7eb76daaaE(i64 %n), !dbg !693
  store i64 %0, i64* %_4, align 8, !dbg !693
  %1 = call i64 @_ZN4fact9fact_iter17h44762abafc1662aaE(i64 %n), !dbg !694
  store i64 %1, i64* %_7, align 8, !dbg !694
  %2 = bitcast { i64*, i64* }* %_2 to i64**, !dbg !695
  store i64* %_4, i64** %2, align 8, !dbg !695
  %3 = getelementptr inbounds { i64*, i64* }, { i64*, i64* }* %_2, i32 0, i32 1, !dbg !695
  store i64* %_7, i64** %3, align 8, !dbg !695
  %4 = bitcast { i64*, i64* }* %_2 to i64**, !dbg !695
  %left_val = load i64*, i64** %4, align 8, !dbg !695, !nonnull !28
  store i64* %left_val, i64** %left_val.dbg.spill, align 8, !dbg !695
  call void @llvm.dbg.declare(metadata i64** %left_val.dbg.spill, metadata !681, metadata !DIExpression()), !dbg !696
  %5 = getelementptr inbounds { i64*, i64* }, { i64*, i64* }* %_2, i32 0, i32 1, !dbg !695
  %right_val = load i64*, i64** %5, align 8, !dbg !695, !nonnull !28
  store i64* %right_val, i64** %right_val.dbg.spill, align 8, !dbg !695
  call void @llvm.dbg.declare(metadata i64** %right_val.dbg.spill, metadata !685, metadata !DIExpression()), !dbg !696
  %_13 = load i64, i64* %left_val, align 8, !dbg !696
  %_14 = load i64, i64* %right_val, align 8, !dbg !696
  %_12 = icmp eq i64 %_13, %_14, !dbg !696
  %_11 = xor i1 %_12, true, !dbg !696
  br i1 %_11, label %bb3, label %bb4, !dbg !696

bb3:                                              ; preds = %start
  store i64* %left_val, i64** %_25, align 8, !dbg !696
  store i64* %right_val, i64** %_27, align 8, !dbg !696
  %6 = bitcast { i64*, i64* }* %_23 to i64***, !dbg !696
  store i64** %_25, i64*** %6, align 8, !dbg !696
  %7 = getelementptr inbounds { i64*, i64* }, { i64*, i64* }* %_23, i32 0, i32 1, !dbg !696
  %8 = bitcast i64** %7 to i64***, !dbg !696
  store i64** %_27, i64*** %8, align 8, !dbg !696
  %9 = bitcast { i64*, i64* }* %_23 to i64***, !dbg !696
  %arg0 = load i64**, i64*** %9, align 8, !dbg !696, !nonnull !28
  store i64** %arg0, i64*** %arg0.dbg.spill, align 8, !dbg !696
  call void @llvm.dbg.declare(metadata i64*** %arg0.dbg.spill, metadata !686, metadata !DIExpression()), !dbg !697
  %10 = getelementptr inbounds { i64*, i64* }, { i64*, i64* }* %_23, i32 0, i32 1, !dbg !696
  %11 = bitcast i64** %10 to i64***, !dbg !696
  %arg1 = load i64**, i64*** %11, align 8, !dbg !696, !nonnull !28
  store i64** %arg1, i64*** %arg1.dbg.spill, align 8, !dbg !696
  call void @llvm.dbg.declare(metadata i64*** %arg1.dbg.spill, metadata !691, metadata !DIExpression()), !dbg !697
  %12 = call { i8*, i64* } @_ZN4core3fmt10ArgumentV13new17h60ff897c4c2134a0E(i64** noalias readonly align 8 dereferenceable(8) %arg0, i1 (i64**, %"core::fmt::Formatter"*)* nonnull @"_ZN42_$LT$$RF$T$u20$as$u20$core..fmt..Debug$GT$3fmt17hc3f3636480f0d00dE"), !dbg !697
  %_30.0 = extractvalue { i8*, i64* } %12, 0, !dbg !697
  %_30.1 = extractvalue { i8*, i64* } %12, 1, !dbg !697
  %13 = call { i8*, i64* } @_ZN4core3fmt10ArgumentV13new17h60ff897c4c2134a0E(i64** noalias readonly align 8 dereferenceable(8) %arg1, i1 (i64**, %"core::fmt::Formatter"*)* nonnull @"_ZN42_$LT$$RF$T$u20$as$u20$core..fmt..Debug$GT$3fmt17hc3f3636480f0d00dE"), !dbg !697
  %_33.0 = extractvalue { i8*, i64* } %13, 0, !dbg !697
  %_33.1 = extractvalue { i8*, i64* } %13, 1, !dbg !697
  %14 = bitcast [2 x { i8*, i64* }]* %_22 to { i8*, i64* }*, !dbg !697
  %15 = getelementptr inbounds { i8*, i64* }, { i8*, i64* }* %14, i32 0, i32 0, !dbg !697
  store i8* %_30.0, i8** %15, align 8, !dbg !697
  %16 = getelementptr inbounds { i8*, i64* }, { i8*, i64* }* %14, i32 0, i32 1, !dbg !697
  store i64* %_30.1, i64** %16, align 8, !dbg !697
  %17 = getelementptr inbounds [2 x { i8*, i64* }], [2 x { i8*, i64* }]* %_22, i32 0, i32 1, !dbg !697
  %18 = getelementptr inbounds { i8*, i64* }, { i8*, i64* }* %17, i32 0, i32 0, !dbg !697
  store i8* %_33.0, i8** %18, align 8, !dbg !697
  %19 = getelementptr inbounds { i8*, i64* }, { i8*, i64* }* %17, i32 0, i32 1, !dbg !697
  store i64* %_33.1, i64** %19, align 8, !dbg !697
  %_19.0 = bitcast [2 x { i8*, i64* }]* %_22 to [0 x { i8*, i64* }]*, !dbg !696
  call void @_ZN4core3fmt9Arguments6new_v117hdff1995a1908b6f3E(%"core::fmt::Arguments"* noalias nocapture sret dereferenceable(48) %_15, [0 x { [0 x i8]*, i64 }]* noalias nonnull readonly align 8 bitcast (<{ i8*, [8 x i8], i8*, [8 x i8], i8*, [8 x i8] }>* @alloc6 to [0 x { [0 x i8]*, i64 }]*), i64 3, [0 x { i8*, i64* }]* noalias nonnull readonly align 8 %_19.0, i64 2), !dbg !696
  call void @_ZN4core9panicking9panic_fmt17hcd56f7f635f62c74E(%"core::fmt::Arguments"* noalias nocapture dereferenceable(48) %_15, %"core::panic::Location"* noalias readonly align 8 dereferenceable(24) bitcast (<{ i8*, [16 x i8] }>* @alloc23 to %"core::panic::Location"*)), !dbg !696
  unreachable, !dbg !696

bb4:                                              ; preds = %start
  ret void, !dbg !698
}

; Function Attrs: nounwind nonlazybind
define void @main() unnamed_addr #5 !dbg !699 {
start:
  %name.dbg.spill.i = alloca { %"klee_sys::CStr"*, i64 }, align 8
  %t.dbg.spill.i = alloca i64*, align 8
  %0 = alloca { [0 x i8]*, i64 }, align 8
  %self.dbg.spill.i = alloca { [0 x i8]*, i64 }, align 8
  %n = alloca i64, align 8
  call void @llvm.dbg.declare(metadata i64* %n, metadata !703, metadata !DIExpression()), !dbg !705
  store i64 12, i64* %n, align 8, !dbg !706
  %1 = getelementptr inbounds { [0 x i8]*, i64 }, { [0 x i8]*, i64 }* %self.dbg.spill.i, i32 0, i32 0
  store [0 x i8]* bitcast (<{ [2 x i8] }>* @alloc24 to [0 x i8]*), [0 x i8]** %1, align 8, !noalias !707
  %2 = getelementptr inbounds { [0 x i8]*, i64 }, { [0 x i8]*, i64 }* %self.dbg.spill.i, i32 0, i32 1
  store i64 2, i64* %2, align 8, !noalias !707
  call void @llvm.dbg.declare(metadata { [0 x i8]*, i64 }* %self.dbg.spill.i, metadata !710, metadata !DIExpression()), !dbg !718
  %3 = getelementptr inbounds { [0 x i8]*, i64 }, { [0 x i8]*, i64 }* %0, i32 0, i32 0, !dbg !720
  store [0 x i8]* bitcast (<{ [2 x i8] }>* @alloc24 to [0 x i8]*), [0 x i8]** %3, align 8, !dbg !720, !noalias !707
  %4 = getelementptr inbounds { [0 x i8]*, i64 }, { [0 x i8]*, i64 }* %0, i32 0, i32 1, !dbg !720
  store i64 2, i64* %4, align 8, !dbg !720, !noalias !707
  %5 = getelementptr inbounds { [0 x i8]*, i64 }, { [0 x i8]*, i64 }* %0, i32 0, i32 0, !dbg !720
  %6 = load [0 x i8]*, [0 x i8]** %5, align 8, !dbg !720, !noalias !707, !nonnull !28
  %7 = getelementptr inbounds { [0 x i8]*, i64 }, { [0 x i8]*, i64 }* %0, i32 0, i32 1, !dbg !720
  %8 = load i64, i64* %7, align 8, !dbg !720, !noalias !707
  %9 = insertvalue { [0 x i8]*, i64 } undef, [0 x i8]* %6, 0, !dbg !721
  %10 = insertvalue { [0 x i8]*, i64 } %9, i64 %8, 1, !dbg !721
  %_9.0 = extractvalue { [0 x i8]*, i64 } %10, 0, !dbg !722
  %_9.1 = extractvalue { [0 x i8]*, i64 } %10, 1, !dbg !722
  %11 = call { %"klee_sys::CStr"*, i64 } @_ZN9cstr_core4CStr29from_bytes_with_nul_unchecked17hc5c7ee9b72f6f886E([0 x i8]* noalias nonnull readonly align 1 %_9.0, i64 %_9.1), !dbg !722
  %_7.0 = extractvalue { %"klee_sys::CStr"*, i64 } %11, 0, !dbg !722
  %_7.1 = extractvalue { %"klee_sys::CStr"*, i64 } %11, 1, !dbg !722
  store i64* %n, i64** %t.dbg.spill.i, align 8, !noalias !723
  call void @llvm.dbg.declare(metadata i64** %t.dbg.spill.i, metadata !726, metadata !DIExpression()) #19, !dbg !736
  %12 = getelementptr inbounds { %"klee_sys::CStr"*, i64 }, { %"klee_sys::CStr"*, i64 }* %name.dbg.spill.i, i32 0, i32 0
  store %"klee_sys::CStr"* %_7.0, %"klee_sys::CStr"** %12, align 8, !noalias !723
  %13 = getelementptr inbounds { %"klee_sys::CStr"*, i64 }, { %"klee_sys::CStr"*, i64 }* %name.dbg.spill.i, i32 0, i32 1
  store i64 %_7.1, i64* %13, align 8, !noalias !723
  call void @llvm.dbg.declare(metadata { %"klee_sys::CStr"*, i64 }* %name.dbg.spill.i, metadata !735, metadata !DIExpression()) #19, !dbg !738
  %_3.i = bitcast i64* %n to i8*, !dbg !739
  %_6.i = call i8* @_ZN9cstr_core4CStr6as_ptr17hbd2976e9ba5ef15eE(%"klee_sys::CStr"* noalias nonnull readonly align 1 %_7.0, i64 %_7.1) #19, !dbg !740
  call void @klee_make_symbolic(i8* %_3.i, i64 8, i8* %_6.i) #19, !dbg !741
  %_13 = load i64, i64* %n, align 8, !dbg !742
  call void @_ZN4fact9fact_test17ha2f44ee6e1c3dbacE(i64 %_13), !dbg !743
  ret void, !dbg !744
}

; Function Attrs: nounwind readnone speculatable willreturn
declare void @llvm.dbg.declare(metadata, metadata, metadata) #6

; Function Attrs: nounwind nonlazybind
declare void @klee_make_symbolic(i8*, i64, i8*) unnamed_addr #5

; Function Attrs: nounwind readnone speculatable willreturn
declare { i64, i1 } @llvm.usub.with.overflow.i64(i64, i64) #6

; Function Attrs: nounwind readnone willreturn
declare i1 @llvm.expect.i1(i1, i1) #7

; Function Attrs: nounwind readnone speculatable willreturn
declare { i64, i1 } @llvm.umul.with.overflow.i64(i64, i64) #6

; Function Attrs: nounwind nonlazybind
declare i32 @rust_eh_personality(...) unnamed_addr #8

; Function Attrs: cold noinline noreturn nounwind nonlazybind uwtable
define internal void @_ZN4core9panicking5panic17h07405d6be4bce887E([0 x i8]* noalias nonnull readonly align 1 %0, i64 %1, %"core::panic::Location"* noalias readonly align 8 dereferenceable(24) %2) unnamed_addr #9 !dbg !745 {
  %4 = alloca [1 x { [0 x i8]*, i64 }], align 8
  %5 = alloca %"core::fmt::Arguments", align 8
  %6 = bitcast %"core::fmt::Arguments"* %5 to i8*, !dbg !749
  %7 = bitcast [1 x { [0 x i8]*, i64 }]* %4 to i8*, !dbg !750
  %8 = getelementptr inbounds [1 x { [0 x i8]*, i64 }], [1 x { [0 x i8]*, i64 }]* %4, i64 0, i64 0, i32 0, !dbg !750
  store [0 x i8]* %0, [0 x i8]** %8, align 8, !dbg !750
  %9 = getelementptr inbounds [1 x { [0 x i8]*, i64 }], [1 x { [0 x i8]*, i64 }]* %4, i64 0, i64 0, i32 1, !dbg !750
  store i64 %1, i64* %9, align 8, !dbg !750
  %10 = bitcast %"core::fmt::Arguments"* %5 to [1 x { [0 x i8]*, i64 }]**, !dbg !751
  store [1 x { [0 x i8]*, i64 }]* %4, [1 x { [0 x i8]*, i64 }]** %10, align 8, !dbg !751, !alias.scope !756, !noalias !759
  %11 = getelementptr inbounds %"core::fmt::Arguments", %"core::fmt::Arguments"* %5, i64 0, i32 1, i32 1, !dbg !751
  store i64 1, i64* %11, align 8, !dbg !751, !alias.scope !756, !noalias !759
  %12 = getelementptr inbounds %"core::fmt::Arguments", %"core::fmt::Arguments"* %5, i64 0, i32 3, i32 0, !dbg !751
  store i64* null, i64** %12, align 8, !dbg !751, !alias.scope !756, !noalias !759
  %13 = getelementptr inbounds %"core::fmt::Arguments", %"core::fmt::Arguments"* %5, i64 0, i32 5, i32 0, !dbg !751
  store [0 x { i8*, i64* }]* bitcast (<{ [0 x i8] }>* @anon.965c706604096d42e5b155eaa3c30edf.12 to [0 x { i8*, i64* }]*), [0 x { i8*, i64* }]** %13, align 8, !dbg !751, !alias.scope !756, !noalias !759
  %14 = getelementptr inbounds %"core::fmt::Arguments", %"core::fmt::Arguments"* %5, i64 0, i32 5, i32 1, !dbg !751
  store i64 0, i64* %14, align 8, !dbg !751, !alias.scope !756, !noalias !759
  call void @_ZN4core9panicking9panic_fmt17hcd56f7f635f62c74E(%"core::fmt::Arguments"* noalias nocapture nonnull dereferenceable(48) %5, %"core::panic::Location"* noalias nonnull readonly align 8 dereferenceable(24) %2), !dbg !762
  unreachable, !dbg !762
}

; Function Attrs: argmemonly nounwind willreturn
declare void @llvm.lifetime.start.p0i8(i64 immarg, i8* nocapture) #10

; Function Attrs: nounwind nonlazybind uwtable
define internal zeroext i1 @"_ZN4core3fmt3num3imp52_$LT$impl$u20$core..fmt..Display$u20$for$u20$u64$GT$3fmt17h48d894a52c575073E"(i64* noalias nocapture readonly align 8 dereferenceable(8) %0, %"core::fmt::Formatter"* nocapture align 8 dereferenceable(64) %1) unnamed_addr #11 !dbg !763 {
  %3 = alloca [39 x i8], align 1
  %4 = load i64, i64* %0, align 8, !dbg !768, !alias.scope !772
  %5 = getelementptr inbounds [39 x i8], [39 x i8]* %3, i64 0, i64 0, !dbg !775
  %6 = call i8* @memset(i8* %5, i32 0, i64 39), !dbg !778
  %7 = icmp ugt i64 %4, 9999, !dbg !779
  br i1 %7, label %12, label %8, !dbg !780

8:                                                ; preds = %12, %2
  %9 = phi i64 [ 39, %2 ], [ %24, %12 ], !dbg !781
  %10 = phi i64 [ %4, %2 ], [ %16, %12 ]
  %11 = icmp sgt i64 %10, 99, !dbg !782
  br i1 %11, label %37, label %50, !dbg !783

12:                                               ; preds = %12, %2
  %13 = phi i64 [ %16, %12 ], [ %4, %2 ]
  %14 = phi i64 [ %24, %12 ], [ 39, %2 ]
  %15 = urem i64 %13, 10000, !dbg !784
  %16 = udiv i64 %13, 10000, !dbg !785
  %17 = trunc i64 %15 to i16, !dbg !786
  %18 = udiv i16 %17, 100, !dbg !786
  %19 = shl nuw nsw i16 %18, 1, !dbg !786
  %20 = zext i16 %19 to i64, !dbg !786
  %21 = urem i16 %17, 100, !dbg !787
  %22 = shl nuw nsw i16 %21, 1, !dbg !787
  %23 = zext i16 %22 to i64, !dbg !787
  %24 = add i64 %14, -4, !dbg !788
  %25 = getelementptr inbounds <{ [200 x i8] }>, <{ [200 x i8] }>* @anon.965c706604096d42e5b155eaa3c30edf.223, i64 0, i32 0, i64 %20, !dbg !789
  %26 = getelementptr inbounds [39 x i8], [39 x i8]* %3, i64 0, i64 %24, !dbg !796
  %27 = bitcast i8* %25 to i16*, !dbg !802
  %28 = bitcast i8* %26 to i16*, !dbg !802
  %29 = load i16, i16* %27, align 1, !dbg !802
  store i16 %29, i16* %28, align 1, !dbg !802
  %30 = getelementptr inbounds <{ [200 x i8] }>, <{ [200 x i8] }>* @anon.965c706604096d42e5b155eaa3c30edf.223, i64 0, i32 0, i64 %23, !dbg !807
  %31 = add nsw i64 %14, -2, !dbg !809
  %32 = getelementptr inbounds [39 x i8], [39 x i8]* %3, i64 0, i64 %31, !dbg !810
  %33 = bitcast i8* %30 to i16*, !dbg !812
  %34 = bitcast i8* %32 to i16*, !dbg !812
  %35 = load i16, i16* %33, align 1, !dbg !812
  store i16 %35, i16* %34, align 1, !dbg !812
  %36 = icmp ugt i64 %13, 99999999, !dbg !779
  br i1 %36, label %12, label %8, !dbg !780

37:                                               ; preds = %8
  %38 = trunc i64 %10 to i16, !dbg !814
  %39 = urem i16 %38, 100, !dbg !814
  %40 = shl nuw nsw i16 %39, 1, !dbg !814
  %41 = zext i16 %40 to i64, !dbg !814
  %42 = udiv i16 %38, 100, !dbg !815
  %43 = zext i16 %42 to i64, !dbg !815
  %44 = add i64 %9, -2, !dbg !816
  %45 = getelementptr inbounds <{ [200 x i8] }>, <{ [200 x i8] }>* @anon.965c706604096d42e5b155eaa3c30edf.223, i64 0, i32 0, i64 %41, !dbg !817
  %46 = getelementptr inbounds [39 x i8], [39 x i8]* %3, i64 0, i64 %44, !dbg !819
  %47 = bitcast i8* %45 to i16*, !dbg !821
  %48 = bitcast i8* %46 to i16*, !dbg !821
  %49 = load i16, i16* %47, align 1, !dbg !821
  store i16 %49, i16* %48, align 1, !dbg !821
  br label %50, !dbg !783

50:                                               ; preds = %37, %8
  %51 = phi i64 [ %43, %37 ], [ %10, %8 ], !dbg !781
  %52 = phi i64 [ %44, %37 ], [ %9, %8 ], !dbg !781
  %53 = icmp slt i64 %51, 10, !dbg !823
  br i1 %53, label %54, label %59, !dbg !824

54:                                               ; preds = %50
  %55 = add i64 %52, -1, !dbg !825
  %56 = trunc i64 %51 to i8, !dbg !826
  %57 = getelementptr inbounds [39 x i8], [39 x i8]* %3, i64 0, i64 %55, !dbg !827
  %58 = add nuw nsw i8 %56, 48, !dbg !829
  store i8 %58, i8* %57, align 1, !dbg !829
  br label %67, !dbg !824

59:                                               ; preds = %50
  %60 = shl nuw nsw i64 %51, 1, !dbg !830
  %61 = add i64 %52, -2, !dbg !831
  %62 = getelementptr inbounds <{ [200 x i8] }>, <{ [200 x i8] }>* @anon.965c706604096d42e5b155eaa3c30edf.223, i64 0, i32 0, i64 %60, !dbg !832
  %63 = getelementptr inbounds [39 x i8], [39 x i8]* %3, i64 0, i64 %61, !dbg !834
  %64 = bitcast i8* %62 to i16*, !dbg !836
  %65 = bitcast i8* %63 to i16*, !dbg !836
  %66 = load i16, i16* %64, align 1, !dbg !836
  store i16 %66, i16* %65, align 1, !dbg !836
  br label %67, !dbg !824

67:                                               ; preds = %59, %54
  %68 = phi i64 [ %55, %54 ], [ %61, %59 ], !dbg !781
  %69 = getelementptr inbounds [39 x i8], [39 x i8]* %3, i64 0, i64 %68, !dbg !838
  %70 = sub i64 39, %68, !dbg !840
  %71 = bitcast i8* %69 to [0 x i8]*, !dbg !841
  %72 = call zeroext i1 @_ZN4core3fmt9Formatter12pad_integral17h0f9951fc9f2b13b4E(%"core::fmt::Formatter"* nonnull align 8 dereferenceable(64) %1, i1 zeroext true, [0 x i8]* noalias nonnull readonly align 1 getelementptr inbounds (<{ [0 x i8] }>, <{ [0 x i8] }>* @anon.965c706604096d42e5b155eaa3c30edf.12, i32 0, i32 0), i64 0, [0 x i8]* noalias nonnull readonly align 1 %71, i64 %70), !dbg !850
  ret i1 %72, !dbg !851
}

; Function Attrs: cold noinline noreturn nounwind nonlazybind uwtable
define internal void @_ZN4core9panicking9panic_fmt17hcd56f7f635f62c74E(%"core::fmt::Arguments"* noalias nocapture dereferenceable(48) %0, %"core::panic::Location"* noalias readonly align 8 dereferenceable(24) %1) unnamed_addr #9 !dbg !852 {
  %3 = alloca %"panic::PanicInfo", align 8
  %4 = bitcast %"panic::PanicInfo"* %3 to i8*, !dbg !853
  %5 = getelementptr inbounds %"core::fmt::Arguments", %"core::fmt::Arguments"* %0, i64 0, i32 0, i64 0, !dbg !854
  %6 = bitcast %"panic::PanicInfo"* %3 to {}**, !dbg !855
  store {}* bitcast (<{ [0 x i8] }>* @anon.965c706604096d42e5b155eaa3c30edf.12 to {}*), {}** %6, align 8, !dbg !855, !alias.scope !861, !noalias !864
  %7 = getelementptr inbounds %"panic::PanicInfo", %"panic::PanicInfo"* %3, i64 0, i32 1, i32 1, !dbg !855
  store [3 x i64]* bitcast ({ void ({}*)*, i64, i64, i64 ({}*)* }* @anon.965c706604096d42e5b155eaa3c30edf.177 to [3 x i64]*), [3 x i64]** %7, align 8, !dbg !855, !alias.scope !861, !noalias !864
  %8 = getelementptr inbounds %"panic::PanicInfo", %"panic::PanicInfo"* %3, i64 0, i32 3, !dbg !855
  store i64* %5, i64** %8, align 8, !dbg !855, !alias.scope !861, !noalias !864
  %9 = getelementptr inbounds %"panic::PanicInfo", %"panic::PanicInfo"* %3, i64 0, i32 5, !dbg !855
  store %"core::panic::Location"* %1, %"core::panic::Location"** %9, align 8, !dbg !855, !alias.scope !861, !noalias !864
  call void @rust_begin_unwind(%"panic::PanicInfo"* noalias nonnull readonly align 8 dereferenceable(32) %3), !dbg !867
  unreachable, !dbg !867
}

; Function Attrs: inlinehint norecurse nounwind nonlazybind readnone uwtable
define internal void @"_ZN4core3ptr102drop_in_place$LT$$RF$core..iter..adapters..copied..Copied$LT$core..slice..iter..Iter$LT$u8$GT$$GT$$GT$17h5913dccf4681891cE"({ i8*, i8* }** nocapture %0) unnamed_addr #12 !dbg !868 {
  ret void, !dbg !869
}

; Function Attrs: norecurse nounwind nonlazybind readnone uwtable
define internal i64 @"_ZN36_$LT$T$u20$as$u20$core..any..Any$GT$7type_id17h108f63b8120e9c9cE"({}* noalias nocapture nonnull readonly align 1 %0) unnamed_addr #13 !dbg !870 {
  ret i64 6876091270197435960, !dbg !874
}

; Function Attrs: argmemonly nounwind willreturn
declare void @llvm.memset.p0i8.i64(i8* nocapture writeonly, i8, i64, i1 immarg) #10

; Function Attrs: nounwind nonlazybind uwtable
define internal zeroext i1 @_ZN4core3fmt9Formatter12pad_integral17h0f9951fc9f2b13b4E(%"core::fmt::Formatter"* nocapture align 8 dereferenceable(64) %0, i1 zeroext %1, [0 x i8]* noalias nonnull readonly align 1 %2, i64 %3, [0 x i8]* noalias nonnull readonly align 1 %4, i64 %5) unnamed_addr #11 personality i32 (...)* @rust_eh_personality !dbg !875 {
  br i1 %1, label %11, label %7, !dbg !877

7:                                                ; preds = %6
  %8 = add i64 %5, 1, !dbg !878
  %9 = getelementptr inbounds %"core::fmt::Formatter", %"core::fmt::Formatter"* %0, i64 0, i32 7, !dbg !879
  %10 = load i32, i32* %9, align 8, !dbg !882, !alias.scope !883
  br label %20, !dbg !877

11:                                               ; preds = %6
  %12 = getelementptr inbounds %"core::fmt::Formatter", %"core::fmt::Formatter"* %0, i64 0, i32 7, !dbg !886
  %13 = load i32, i32* %12, align 8, !dbg !886, !alias.scope !889
  %14 = and i32 %13, 1, !dbg !886
  %15 = icmp eq i32 %14, 0, !dbg !886
  %16 = select i1 %15, i32 1114112, i32 43, !dbg !892
  %17 = xor i1 %15, true, !dbg !892
  %18 = zext i1 %17 to i64, !dbg !892
  %19 = add i64 %18, %5, !dbg !892
  br label %20, !dbg !892

20:                                               ; preds = %11, %7
  %21 = phi i32 [ %10, %7 ], [ %13, %11 ], !dbg !882
  %22 = phi i32 [ 45, %7 ], [ %16, %11 ], !dbg !893
  %23 = phi i64 [ %8, %7 ], [ %19, %11 ], !dbg !893
  %24 = and i32 %21, 4, !dbg !882
  %25 = icmp eq i32 %24, 0, !dbg !882
  br i1 %25, label %91, label %26, !dbg !894

26:                                               ; preds = %20
  %27 = getelementptr [0 x i8], [0 x i8]* %2, i64 0, i64 0, !dbg !895
  %28 = getelementptr inbounds [0 x i8], [0 x i8]* %2, i64 0, i64 %3, !dbg !910
  %29 = icmp eq i64 %3, 0, !dbg !914
  br i1 %29, label %88, label %30, !dbg !947

30:                                               ; preds = %26
  %31 = icmp ult i64 %3, 4, !dbg !947
  br i1 %31, label %75, label %32, !dbg !947

32:                                               ; preds = %30
  %33 = and i64 %3, -4, !dbg !947
  %34 = getelementptr [0 x i8], [0 x i8]* %2, i64 0, i64 %33, !dbg !947
  %35 = add i64 %33, -4, !dbg !947
  %36 = lshr exact i64 %35, 2, !dbg !947
  %37 = add nuw nsw i64 %36, 1, !dbg !947
  %38 = and i64 %37, 1, !dbg !947
  %39 = icmp eq i64 %35, 0, !dbg !947
  br i1 %39, label %61, label %40, !dbg !947

40:                                               ; preds = %32
  %41 = and i64 %37, 9223372036854775806, !dbg !947
  br label %42, !dbg !947

42:                                               ; preds = %42, %40
  %43 = phi i64 [ 0, %40 ], [ %58, %42 ]
  %.i0 = phi i64 [ 0, %40 ], [ %.i01, %42 ]
  %.i1 = phi i64 [ 0, %40 ], [ %.i12, %42 ]
  %.i03 = phi i64 [ 0, %40 ], [ %.i05, %42 ]
  %.i14 = phi i64 [ 0, %40 ], [ %.i16, %42 ]
  %44 = phi i64 [ %41, %40 ], [ %59, %42 ]
  %45 = getelementptr [0 x i8], [0 x i8]* %2, i64 0, i64 %43
  %46 = bitcast i8* %45 to <2 x i8>*, !dbg !948
  %47 = load <2 x i8>, <2 x i8>* %46, align 1, !dbg !948, !alias.scope !949
  %.i07 = extractelement <2 x i8> %47, i32 0, !dbg !948
  %.i19 = extractelement <2 x i8> %47, i32 1, !dbg !948
  %48 = getelementptr i8, i8* %45, i64 2, !dbg !948
  %49 = bitcast i8* %48 to <2 x i8>*, !dbg !948
  %50 = load <2 x i8>, <2 x i8>* %49, align 1, !dbg !948, !alias.scope !949
  %.i011 = extractelement <2 x i8> %50, i32 0, !dbg !952
  %.i113 = extractelement <2 x i8> %50, i32 1, !dbg !952
  %.i08 = and i8 %.i07, -64, !dbg !952
  %.i110 = and i8 %.i19, -64, !dbg !952
  %.i012 = and i8 %.i011, -64, !dbg !952
  %.i114 = and i8 %.i113, -64, !dbg !952
  %.i015 = icmp ne i8 %.i08, -128, !dbg !952
  %.i116 = icmp ne i8 %.i110, -128, !dbg !952
  %.i017 = icmp ne i8 %.i012, -128, !dbg !952
  %.i118 = icmp ne i8 %.i114, -128, !dbg !952
  %.i019 = zext i1 %.i015 to i64, !dbg !967
  %.i120 = zext i1 %.i116 to i64, !dbg !967
  %.i021 = zext i1 %.i017 to i64, !dbg !967
  %.i122 = zext i1 %.i118 to i64, !dbg !967
  %.i023 = add i64 %.i0, %.i019, !dbg !968
  %.i124 = add i64 %.i1, %.i120, !dbg !968
  %.i025 = add i64 %.i03, %.i021, !dbg !968
  %.i126 = add i64 %.i14, %.i122, !dbg !968
  %51 = or i64 %43, 4
  %52 = getelementptr [0 x i8], [0 x i8]* %2, i64 0, i64 %51
  %53 = bitcast i8* %52 to <2 x i8>*, !dbg !948
  %54 = load <2 x i8>, <2 x i8>* %53, align 1, !dbg !948, !alias.scope !949
  %.i027 = extractelement <2 x i8> %54, i32 0, !dbg !948
  %.i129 = extractelement <2 x i8> %54, i32 1, !dbg !948
  %55 = getelementptr i8, i8* %52, i64 2, !dbg !948
  %56 = bitcast i8* %55 to <2 x i8>*, !dbg !948
  %57 = load <2 x i8>, <2 x i8>* %56, align 1, !dbg !948, !alias.scope !949
  %.i031 = extractelement <2 x i8> %57, i32 0, !dbg !952
  %.i133 = extractelement <2 x i8> %57, i32 1, !dbg !952
  %.i028 = and i8 %.i027, -64, !dbg !952
  %.i130 = and i8 %.i129, -64, !dbg !952
  %.i032 = and i8 %.i031, -64, !dbg !952
  %.i134 = and i8 %.i133, -64, !dbg !952
  %.i035 = icmp ne i8 %.i028, -128, !dbg !952
  %.i136 = icmp ne i8 %.i130, -128, !dbg !952
  %.i037 = icmp ne i8 %.i032, -128, !dbg !952
  %.i138 = icmp ne i8 %.i134, -128, !dbg !952
  %.i039 = zext i1 %.i035 to i64, !dbg !967
  %.i140 = zext i1 %.i136 to i64, !dbg !967
  %.i041 = zext i1 %.i037 to i64, !dbg !967
  %.i142 = zext i1 %.i138 to i64, !dbg !967
  %.i01 = add i64 %.i023, %.i039, !dbg !968
  %.i12 = add i64 %.i124, %.i140, !dbg !968
  %.i05 = add i64 %.i025, %.i041, !dbg !968
  %.i16 = add i64 %.i126, %.i142, !dbg !968
  %58 = add i64 %43, 8
  %59 = add i64 %44, -2
  %60 = icmp eq i64 %59, 0
  br i1 %60, label %61, label %42, !llvm.loop !979

61:                                               ; preds = %42, %32
  %.i047 = phi i64 [ undef, %32 ], [ %.i01, %42 ]
  %.i148 = phi i64 [ undef, %32 ], [ %.i12, %42 ]
  %.i049 = phi i64 [ undef, %32 ], [ %.i05, %42 ]
  %.i150 = phi i64 [ undef, %32 ], [ %.i16, %42 ]
  %62 = phi i64 [ 0, %32 ], [ %58, %42 ]
  %.i051 = phi i64 [ 0, %32 ], [ %.i01, %42 ]
  %.i152 = phi i64 [ 0, %32 ], [ %.i12, %42 ]
  %.i053 = phi i64 [ 0, %32 ], [ %.i05, %42 ]
  %.i154 = phi i64 [ 0, %32 ], [ %.i16, %42 ]
  %63 = icmp eq i64 %38, 0
  br i1 %63, label %71, label %64

64:                                               ; preds = %61
  %65 = getelementptr [0 x i8], [0 x i8]* %2, i64 0, i64 %62
  %66 = getelementptr i8, i8* %65, i64 2, !dbg !948
  %67 = bitcast i8* %66 to <2 x i8>*, !dbg !948
  %68 = load <2 x i8>, <2 x i8>* %67, align 1, !dbg !948, !alias.scope !949
  %.i055 = extractelement <2 x i8> %68, i32 0, !dbg !952
  %.i056 = and i8 %.i055, -64, !dbg !952
  %.i157 = extractelement <2 x i8> %68, i32 1, !dbg !952
  %.i158 = and i8 %.i157, -64, !dbg !952
  %.i059 = icmp ne i8 %.i056, -128, !dbg !952
  %.i160 = icmp ne i8 %.i158, -128, !dbg !952
  %.i061 = zext i1 %.i059 to i64, !dbg !967
  %.i162 = zext i1 %.i160 to i64, !dbg !967
  %.i063 = add i64 %.i053, %.i061, !dbg !968
  %.i164 = add i64 %.i154, %.i162, !dbg !968
  %69 = bitcast i8* %65 to <2 x i8>*, !dbg !948
  %70 = load <2 x i8>, <2 x i8>* %69, align 1, !dbg !948, !alias.scope !949
  %.i065 = extractelement <2 x i8> %70, i32 0, !dbg !952
  %.i066 = and i8 %.i065, -64, !dbg !952
  %.i167 = extractelement <2 x i8> %70, i32 1, !dbg !952
  %.i168 = and i8 %.i167, -64, !dbg !952
  %.i069 = icmp ne i8 %.i066, -128, !dbg !952
  %.i170 = icmp ne i8 %.i168, -128, !dbg !952
  %.i071 = zext i1 %.i069 to i64, !dbg !967
  %.i172 = zext i1 %.i170 to i64, !dbg !967
  %.i073 = add i64 %.i051, %.i071, !dbg !968
  %.i174 = add i64 %.i152, %.i172, !dbg !968
  br label %71, !dbg !947

71:                                               ; preds = %64, %61
  %.i075 = phi i64 [ %.i047, %61 ], [ %.i073, %64 ], !dbg !968
  %.i176 = phi i64 [ %.i148, %61 ], [ %.i174, %64 ], !dbg !968
  %.i077 = phi i64 [ %.i049, %61 ], [ %.i063, %64 ], !dbg !968
  %.i178 = phi i64 [ %.i150, %61 ], [ %.i164, %64 ], !dbg !968
  %.i079 = add i64 %.i077, %.i075, !dbg !947
  %.i180 = add i64 %.i178, %.i176, !dbg !947
  %.upto0 = insertelement <2 x i64> undef, i64 %.i079, i32 0, !dbg !947
  %72 = insertelement <2 x i64> %.upto0, i64 %.i180, i32 1, !dbg !947
  %73 = call i64 @llvm.experimental.vector.reduce.add.v2i64(<2 x i64> %72), !dbg !947
  %74 = icmp eq i64 %33, %3, !dbg !947
  br i1 %74, label %88, label %75, !dbg !947

75:                                               ; preds = %71, %30
  %76 = phi i64 [ 0, %30 ], [ %73, %71 ]
  %77 = phi i8* [ %27, %30 ], [ %34, %71 ]
  br label %78, !dbg !947

78:                                               ; preds = %78, %75
  %79 = phi i64 [ %86, %78 ], [ %76, %75 ]
  %80 = phi i8* [ %81, %78 ], [ %77, %75 ]
  %81 = getelementptr inbounds i8, i8* %80, i64 1, !dbg !981
  %82 = load i8, i8* %80, align 1, !dbg !948, !alias.scope !949
  %83 = and i8 %82, -64, !dbg !952
  %84 = icmp ne i8 %83, -128, !dbg !952
  %85 = zext i1 %84 to i64, !dbg !967
  %86 = add i64 %79, %85, !dbg !968
  %87 = icmp eq i8* %81, %28, !dbg !914
  br i1 %87, label %88, label %78, !dbg !947, !llvm.loop !985

88:                                               ; preds = %78, %71, %26
  %89 = phi i64 [ 0, %26 ], [ %73, %71 ], [ %86, %78 ], !dbg !987
  %90 = add i64 %89, %23, !dbg !988
  br label %91, !dbg !894

91:                                               ; preds = %88, %20
  %92 = phi i8* [ %27, %88 ], [ null, %20 ], !dbg !893
  %93 = phi i64 [ %90, %88 ], [ %23, %20 ], !dbg !893
  %94 = getelementptr inbounds %"core::fmt::Formatter", %"core::fmt::Formatter"* %0, i64 0, i32 0, i64 0, !dbg !989
  %95 = load i64, i64* %94, align 8, !dbg !989, !range !574
  %96 = icmp eq i64 %95, 1, !dbg !989
  br i1 %96, label %108, label %97, !dbg !989

97:                                               ; preds = %91
  %98 = tail call fastcc zeroext i1 @_ZN4core3fmt9Formatter12pad_integral12write_prefix17h89d94f6859d81915E(%"core::fmt::Formatter"* nonnull align 8 dereferenceable(64) %0, i32 %22, i8* noalias readonly align 1 %92, i64 %3), !dbg !990
  br i1 %98, label %233, label %99, !dbg !991

99:                                               ; preds = %97
  %100 = getelementptr inbounds %"core::fmt::Formatter", %"core::fmt::Formatter"* %0, i64 0, i32 5, i32 0, !dbg !992
  %101 = load {}*, {}** %100, align 8, !dbg !992, !nonnull !28
  %102 = getelementptr inbounds %"core::fmt::Formatter", %"core::fmt::Formatter"* %0, i64 0, i32 5, i32 1, !dbg !992
  %103 = bitcast [3 x i64]** %102 to i1 ({}*, [0 x i8]*, i64)***, !dbg !992
  %104 = load i1 ({}*, [0 x i8]*, i64)**, i1 ({}*, [0 x i8]*, i64)*** %103, align 8, !dbg !992, !nonnull !28
  %105 = getelementptr inbounds i1 ({}*, [0 x i8]*, i64)*, i1 ({}*, [0 x i8]*, i64)** %104, i64 3, !dbg !992
  %106 = load i1 ({}*, [0 x i8]*, i64)*, i1 ({}*, [0 x i8]*, i64)** %105, align 8, !dbg !992, !invariant.load !28, !nonnull !28
  %107 = tail call zeroext i1 %106({}* nonnull align 1 %101, [0 x i8]* noalias nonnull readonly align 1 %4, i64 %5), !dbg !992
  br label %233, !dbg !993

108:                                              ; preds = %91
  %109 = getelementptr inbounds %"core::fmt::Formatter", %"core::fmt::Formatter"* %0, i64 0, i32 1, i32 1, !dbg !994
  %110 = load i64, i64* %109, align 8, !dbg !995
  %111 = icmp ugt i64 %110, %93, !dbg !996
  br i1 %111, label %114, label %112, !dbg !996

112:                                              ; preds = %108
  %113 = tail call fastcc zeroext i1 @_ZN4core3fmt9Formatter12pad_integral12write_prefix17h89d94f6859d81915E(%"core::fmt::Formatter"* nonnull align 8 dereferenceable(64) %0, i32 %22, i8* noalias readonly align 1 %92, i64 %3), !dbg !997
  br i1 %113, label %233, label %117, !dbg !998

114:                                              ; preds = %108
  %115 = and i32 %21, 8, !dbg !999
  %116 = icmp eq i32 %115, 0, !dbg !999
  br i1 %116, label %132, label %126, !dbg !1002

117:                                              ; preds = %112
  %118 = getelementptr inbounds %"core::fmt::Formatter", %"core::fmt::Formatter"* %0, i64 0, i32 5, i32 0, !dbg !1003
  %119 = load {}*, {}** %118, align 8, !dbg !1003, !nonnull !28
  %120 = getelementptr inbounds %"core::fmt::Formatter", %"core::fmt::Formatter"* %0, i64 0, i32 5, i32 1, !dbg !1003
  %121 = bitcast [3 x i64]** %120 to i1 ({}*, [0 x i8]*, i64)***, !dbg !1003
  %122 = load i1 ({}*, [0 x i8]*, i64)**, i1 ({}*, [0 x i8]*, i64)*** %121, align 8, !dbg !1003, !nonnull !28
  %123 = getelementptr inbounds i1 ({}*, [0 x i8]*, i64)*, i1 ({}*, [0 x i8]*, i64)** %122, i64 3, !dbg !1003
  %124 = load i1 ({}*, [0 x i8]*, i64)*, i1 ({}*, [0 x i8]*, i64)** %123, align 8, !dbg !1003, !invariant.load !28, !nonnull !28
  %125 = tail call zeroext i1 %124({}* nonnull align 1 %119, [0 x i8]* noalias nonnull readonly align 1 %4, i64 %5), !dbg !1003
  br label %233, !dbg !993

126:                                              ; preds = %114
  %127 = getelementptr inbounds %"core::fmt::Formatter", %"core::fmt::Formatter"* %0, i64 0, i32 9, !dbg !1004
  %128 = load i32, i32* %127, align 4, !dbg !1005
  store i32 48, i32* %127, align 4, !dbg !1014
  %129 = getelementptr inbounds %"core::fmt::Formatter", %"core::fmt::Formatter"* %0, i64 0, i32 11, !dbg !1017
  %130 = load i8, i8* %129, align 8, !dbg !1018
  store i8 1, i8* %129, align 8, !dbg !1025
  %131 = tail call fastcc zeroext i1 @_ZN4core3fmt9Formatter12pad_integral12write_prefix17h89d94f6859d81915E(%"core::fmt::Formatter"* nonnull align 8 dereferenceable(64) %0, i32 %22, i8* noalias readonly align 1 %92, i64 %3), !dbg !1028
  br i1 %131, label %233, label %162, !dbg !1029

132:                                              ; preds = %114
  %133 = sub i64 %110, %93, !dbg !1030
  %134 = getelementptr inbounds %"core::fmt::Formatter", %"core::fmt::Formatter"* %0, i64 0, i32 11, !dbg !1031
  %135 = load i8, i8* %134, align 8, !dbg !1031, !range !1034
  %136 = icmp eq i8 %135, 3, !dbg !1031
  %137 = select i1 %136, i8 1, i8 %135, !dbg !1035
  switch i8 %137, label %142 [
    i8 0, label %144
    i8 1, label %143
    i8 2, label %138
    i8 3, label %143
  ], !dbg !1036

138:                                              ; preds = %132
  %139 = lshr i64 %133, 1, !dbg !1037
  %140 = add i64 %133, 1, !dbg !1038
  %141 = lshr i64 %140, 1, !dbg !1038
  br label %144, !dbg !1039

142:                                              ; preds = %132
  unreachable, !dbg !1040

143:                                              ; preds = %132, %132
  br label %144, !dbg !1039

144:                                              ; preds = %143, %138, %132
  %145 = phi i64 [ %141, %138 ], [ 0, %143 ], [ %133, %132 ], !dbg !1041
  %146 = phi i64 [ %139, %138 ], [ %133, %143 ], [ 0, %132 ], !dbg !1041
  %147 = getelementptr inbounds %"core::fmt::Formatter", %"core::fmt::Formatter"* %0, i64 0, i32 5, i32 0, !dbg !1041
  %148 = getelementptr inbounds %"core::fmt::Formatter", %"core::fmt::Formatter"* %0, i64 0, i32 5, i32 1, !dbg !1041
  %149 = bitcast [3 x i64]** %148 to i1 ({}*, i32)***, !dbg !1041
  %150 = getelementptr inbounds %"core::fmt::Formatter", %"core::fmt::Formatter"* %0, i64 0, i32 9, !dbg !1041
  br label %151, !dbg !1042

151:                                              ; preds = %154, %144
  %152 = phi i64 [ 0, %144 ], [ %155, %154 ], !dbg !1041
  %153 = icmp eq i64 %152, %146, !dbg !1043
  br i1 %153, label %211, label %154, !dbg !1050

154:                                              ; preds = %151
  %155 = add i64 %152, 1, !dbg !1051
  %156 = load {}*, {}** %147, align 8, !dbg !1057, !nonnull !28
  %157 = load i1 ({}*, i32)**, i1 ({}*, i32)*** %149, align 8, !dbg !1057, !nonnull !28
  %158 = load i32, i32* %150, align 4, !dbg !1058, !range !1059
  %159 = getelementptr inbounds i1 ({}*, i32)*, i1 ({}*, i32)** %157, i64 4, !dbg !1057
  %160 = load i1 ({}*, i32)*, i1 ({}*, i32)** %159, align 8, !dbg !1057, !invariant.load !28, !nonnull !28
  %161 = tail call zeroext i1 %160({}* nonnull align 1 %156, i32 %158), !dbg !1057
  br i1 %161, label %233, label %151, !dbg !1060

162:                                              ; preds = %126
  %163 = sub i64 %110, %93, !dbg !1061
  %164 = load i8, i8* %129, align 8, !dbg !1062, !range !1034
  %165 = icmp eq i8 %164, 3, !dbg !1062
  %166 = select i1 %165, i8 1, i8 %164, !dbg !1064
  switch i8 %166, label %171 [
    i8 0, label %173
    i8 1, label %172
    i8 2, label %167
    i8 3, label %172
  ], !dbg !1065

167:                                              ; preds = %162
  %168 = lshr i64 %163, 1, !dbg !1066
  %169 = add i64 %163, 1, !dbg !1067
  %170 = lshr i64 %169, 1, !dbg !1067
  br label %173, !dbg !1068

171:                                              ; preds = %162
  unreachable, !dbg !1069

172:                                              ; preds = %162, %162
  br label %173, !dbg !1068

173:                                              ; preds = %172, %167, %162
  %174 = phi i64 [ %170, %167 ], [ 0, %172 ], [ %163, %162 ], !dbg !1070
  %175 = phi i64 [ %168, %167 ], [ %163, %172 ], [ 0, %162 ], !dbg !1070
  %176 = getelementptr inbounds %"core::fmt::Formatter", %"core::fmt::Formatter"* %0, i64 0, i32 5, i32 0, !dbg !1070
  %177 = getelementptr inbounds %"core::fmt::Formatter", %"core::fmt::Formatter"* %0, i64 0, i32 5, i32 1, !dbg !1070
  %178 = bitcast [3 x i64]** %177 to i1 ({}*, i32)***, !dbg !1070
  br label %179, !dbg !1071

179:                                              ; preds = %182, %173
  %180 = phi i64 [ 0, %173 ], [ %183, %182 ], !dbg !1070
  %181 = icmp eq i64 %180, %175, !dbg !1072
  br i1 %181, label %190, label %182, !dbg !1075

182:                                              ; preds = %179
  %183 = add i64 %180, 1, !dbg !1076
  %184 = load {}*, {}** %176, align 8, !dbg !1079, !nonnull !28
  %185 = load i1 ({}*, i32)**, i1 ({}*, i32)*** %178, align 8, !dbg !1079, !nonnull !28
  %186 = load i32, i32* %127, align 4, !dbg !1080, !range !1059
  %187 = getelementptr inbounds i1 ({}*, i32)*, i1 ({}*, i32)** %185, i64 4, !dbg !1079
  %188 = load i1 ({}*, i32)*, i1 ({}*, i32)** %187, align 8, !dbg !1079, !invariant.load !28, !nonnull !28
  %189 = tail call zeroext i1 %188({}* nonnull align 1 %184, i32 %186), !dbg !1079
  br i1 %189, label %233, label %179, !dbg !1081

190:                                              ; preds = %179
  %191 = load i32, i32* %127, align 4, !dbg !1082, !range !1059
  %192 = load {}*, {}** %176, align 8, !dbg !1083, !nonnull !28
  %193 = bitcast [3 x i64]** %177 to i1 ({}*, [0 x i8]*, i64)***, !dbg !1083
  %194 = load i1 ({}*, [0 x i8]*, i64)**, i1 ({}*, [0 x i8]*, i64)*** %193, align 8, !dbg !1083, !nonnull !28
  %195 = getelementptr inbounds i1 ({}*, [0 x i8]*, i64)*, i1 ({}*, [0 x i8]*, i64)** %194, i64 3, !dbg !1083
  %196 = load i1 ({}*, [0 x i8]*, i64)*, i1 ({}*, [0 x i8]*, i64)** %195, align 8, !dbg !1083, !invariant.load !28, !nonnull !28
  %197 = tail call zeroext i1 %196({}* nonnull align 1 %192, [0 x i8]* noalias nonnull readonly align 1 %4, i64 %5), !dbg !1083
  br i1 %197, label %233, label %198, !dbg !1084

198:                                              ; preds = %190
  %199 = load {}*, {}** %176, align 8, !dbg !1085, !nonnull !28
  %200 = load [3 x i64]*, [3 x i64]** %177, align 8, !dbg !1085, !nonnull !28
  %201 = getelementptr inbounds [3 x i64], [3 x i64]* %200, i64 0, i64 4, !dbg !1086
  %202 = bitcast i64* %201 to i1 ({}*, i32)**, !dbg !1086
  br label %203, !dbg !1090

203:                                              ; preds = %206, %198
  %204 = phi i64 [ 0, %198 ], [ %207, %206 ], !dbg !1086
  %205 = icmp eq i64 %204, %174, !dbg !1091
  br i1 %205, label %210, label %206, !dbg !1094

206:                                              ; preds = %203
  %207 = add i64 %204, 1, !dbg !1095
  %208 = load i1 ({}*, i32)*, i1 ({}*, i32)** %202, align 8, !dbg !1098, !invariant.load !28, !alias.scope !1099, !nonnull !28
  %209 = tail call zeroext i1 %208({}* nonnull align 1 %199, i32 %191), !dbg !1098, !noalias !1099
  br i1 %209, label %233, label %203, !dbg !1102

210:                                              ; preds = %203
  store i32 %128, i32* %127, align 4, !dbg !1103
  store i8 %130, i8* %129, align 8, !dbg !1104
  br label %233, !dbg !993

211:                                              ; preds = %151
  %212 = load i32, i32* %150, align 4, !dbg !1105, !range !1059
  %213 = tail call fastcc zeroext i1 @_ZN4core3fmt9Formatter12pad_integral12write_prefix17h89d94f6859d81915E(%"core::fmt::Formatter"* nonnull align 8 dereferenceable(64) %0, i32 %22, i8* noalias readonly align 1 %92, i64 %3), !dbg !1106
  br i1 %213, label %233, label %214, !dbg !1107

214:                                              ; preds = %211
  %215 = load {}*, {}** %147, align 8, !dbg !1108, !nonnull !28
  %216 = bitcast [3 x i64]** %148 to i1 ({}*, [0 x i8]*, i64)***, !dbg !1108
  %217 = load i1 ({}*, [0 x i8]*, i64)**, i1 ({}*, [0 x i8]*, i64)*** %216, align 8, !dbg !1108, !nonnull !28
  %218 = getelementptr inbounds i1 ({}*, [0 x i8]*, i64)*, i1 ({}*, [0 x i8]*, i64)** %217, i64 3, !dbg !1108
  %219 = load i1 ({}*, [0 x i8]*, i64)*, i1 ({}*, [0 x i8]*, i64)** %218, align 8, !dbg !1108, !invariant.load !28, !nonnull !28
  %220 = tail call zeroext i1 %219({}* nonnull align 1 %215, [0 x i8]* noalias nonnull readonly align 1 %4, i64 %5), !dbg !1108
  br i1 %220, label %233, label %221, !dbg !1109

221:                                              ; preds = %214
  %222 = load {}*, {}** %147, align 8, !dbg !1110, !nonnull !28
  %223 = load [3 x i64]*, [3 x i64]** %148, align 8, !dbg !1110, !nonnull !28
  %224 = getelementptr inbounds [3 x i64], [3 x i64]* %223, i64 0, i64 4, !dbg !1111
  %225 = bitcast i64* %224 to i1 ({}*, i32)**, !dbg !1111
  br label %226, !dbg !1113

226:                                              ; preds = %229, %221
  %227 = phi i64 [ 0, %221 ], [ %230, %229 ], !dbg !1111
  %228 = icmp eq i64 %227, %145, !dbg !1114
  br i1 %228, label %233, label %229, !dbg !1117

229:                                              ; preds = %226
  %230 = add i64 %227, 1, !dbg !1118
  %231 = load i1 ({}*, i32)*, i1 ({}*, i32)** %225, align 8, !dbg !1121, !invariant.load !28, !alias.scope !1122, !nonnull !28
  %232 = tail call zeroext i1 %231({}* nonnull align 1 %222, i32 %212), !dbg !1121, !noalias !1122
  br i1 %232, label %233, label %226, !dbg !1125

233:                                              ; preds = %229, %226, %214, %211, %210, %206, %190, %182, %154, %126, %117, %112, %99, %97
  %234 = phi i1 [ %107, %99 ], [ %125, %117 ], [ false, %210 ], [ true, %97 ], [ true, %112 ], [ true, %126 ], [ true, %190 ], [ true, %211 ], [ true, %214 ], [ true, %229 ], [ false, %226 ], [ true, %154 ], [ true, %206 ], [ true, %182 ], !dbg !893
  ret i1 %234, !dbg !1126
}

; Function Attrs: argmemonly nounwind willreturn
declare void @llvm.lifetime.end.p0i8(i64 immarg, i8* nocapture) #10

; Function Attrs: nounwind readnone willreturn
declare i64 @llvm.experimental.vector.reduce.add.v2i64(<2 x i64>) #7

; Function Attrs: noinline nounwind nonlazybind uwtable
define internal fastcc zeroext i1 @_ZN4core3fmt9Formatter12pad_integral12write_prefix17h89d94f6859d81915E(%"core::fmt::Formatter"* nocapture readonly align 8 dereferenceable(64) %0, i32 %1, i8* noalias readonly align 1 %2, i64 %3) unnamed_addr #14 !dbg !1127 {
  %5 = icmp eq i32 %1, 1114112, !dbg !1130
  br i1 %5, label %15, label %6, !dbg !1130

6:                                                ; preds = %4
  %7 = getelementptr inbounds %"core::fmt::Formatter", %"core::fmt::Formatter"* %0, i64 0, i32 5, i32 0, !dbg !1131
  %8 = load {}*, {}** %7, align 8, !dbg !1131, !nonnull !28
  %9 = getelementptr inbounds %"core::fmt::Formatter", %"core::fmt::Formatter"* %0, i64 0, i32 5, i32 1, !dbg !1131
  %10 = bitcast [3 x i64]** %9 to i1 ({}*, i32)***, !dbg !1131
  %11 = load i1 ({}*, i32)**, i1 ({}*, i32)*** %10, align 8, !dbg !1131, !nonnull !28
  %12 = getelementptr inbounds i1 ({}*, i32)*, i1 ({}*, i32)** %11, i64 4, !dbg !1131
  %13 = load i1 ({}*, i32)*, i1 ({}*, i32)** %12, align 8, !dbg !1131, !invariant.load !28, !nonnull !28
  %14 = tail call zeroext i1 %13({}* nonnull align 1 %8, i32 %1), !dbg !1131
  br i1 %14, label %27, label %15, !dbg !1132

15:                                               ; preds = %6, %4
  %16 = icmp eq i8* %2, null, !dbg !1133
  br i1 %16, label %27, label %17, !dbg !1133

17:                                               ; preds = %15
  %18 = bitcast i8* %2 to [0 x i8]*, !dbg !1134
  %19 = getelementptr inbounds %"core::fmt::Formatter", %"core::fmt::Formatter"* %0, i64 0, i32 5, i32 0, !dbg !1135
  %20 = load {}*, {}** %19, align 8, !dbg !1135, !nonnull !28
  %21 = getelementptr inbounds %"core::fmt::Formatter", %"core::fmt::Formatter"* %0, i64 0, i32 5, i32 1, !dbg !1135
  %22 = bitcast [3 x i64]** %21 to i1 ({}*, [0 x i8]*, i64)***, !dbg !1135
  %23 = load i1 ({}*, [0 x i8]*, i64)**, i1 ({}*, [0 x i8]*, i64)*** %22, align 8, !dbg !1135, !nonnull !28
  %24 = getelementptr inbounds i1 ({}*, [0 x i8]*, i64)*, i1 ({}*, [0 x i8]*, i64)** %23, i64 3, !dbg !1135
  %25 = load i1 ({}*, [0 x i8]*, i64)*, i1 ({}*, [0 x i8]*, i64)** %24, align 8, !dbg !1135, !invariant.load !28, !nonnull !28
  %26 = tail call zeroext i1 %25({}* nonnull align 1 %20, [0 x i8]* noalias nonnull readonly align 1 %18, i64 %3), !dbg !1135
  br label %27, !dbg !1136

27:                                               ; preds = %17, %15, %6
  %28 = phi i1 [ %26, %17 ], [ false, %15 ], [ true, %6 ]
  ret i1 %28, !dbg !1137
}

; Function Attrs: cold noinline noreturn nounwind nonlazybind uwtable
define internal void @_ZN4core5slice5index26slice_start_index_len_fail17h1218e2e291e3f22cE(i64 %0, i64 %1, %"core::panic::Location"* noalias readonly align 8 dereferenceable(24) %2) unnamed_addr #9 !dbg !1138 {
  %4 = alloca [2 x { i8*, i64* }], align 8
  %5 = alloca %"core::fmt::Arguments", align 8
  %6 = alloca i64, align 8
  %7 = alloca i64, align 8
  store i64 %0, i64* %7, align 8
  store i64 %1, i64* %6, align 8
  %8 = bitcast %"core::fmt::Arguments"* %5 to i8*, !dbg !1141
  %9 = bitcast [2 x { i8*, i64* }]* %4 to i8*, !dbg !1141
  %10 = bitcast [2 x { i8*, i64* }]* %4 to i64**, !dbg !1141
  store i64* %7, i64** %10, align 8, !dbg !1141
  %11 = getelementptr inbounds [2 x { i8*, i64* }], [2 x { i8*, i64* }]* %4, i64 0, i64 0, i32 1, !dbg !1141
  store i64* bitcast (i1 (i64*, %"core::fmt::Formatter"*)* @"_ZN4core3fmt3num3imp52_$LT$impl$u20$core..fmt..Display$u20$for$u20$u64$GT$3fmt17h48d894a52c575073E" to i64*), i64** %11, align 8, !dbg !1141
  %12 = getelementptr inbounds [2 x { i8*, i64* }], [2 x { i8*, i64* }]* %4, i64 0, i64 1, i32 0, !dbg !1141
  %13 = bitcast i8** %12 to i64**, !dbg !1141
  store i64* %6, i64** %13, align 8, !dbg !1141
  %14 = getelementptr inbounds [2 x { i8*, i64* }], [2 x { i8*, i64* }]* %4, i64 0, i64 1, i32 1, !dbg !1141
  store i64* bitcast (i1 (i64*, %"core::fmt::Formatter"*)* @"_ZN4core3fmt3num3imp52_$LT$impl$u20$core..fmt..Display$u20$for$u20$u64$GT$3fmt17h48d894a52c575073E" to i64*), i64** %14, align 8, !dbg !1141
  %15 = bitcast %"core::fmt::Arguments"* %5 to [0 x { [0 x i8]*, i64 }]**, !dbg !1142
  store [0 x { [0 x i8]*, i64 }]* bitcast (<{ i8*, [8 x i8], i8*, [8 x i8] }>* @anon.965c706604096d42e5b155eaa3c30edf.245 to [0 x { [0 x i8]*, i64 }]*), [0 x { [0 x i8]*, i64 }]** %15, align 8, !dbg !1142, !alias.scope !1144, !noalias !1147
  %16 = getelementptr inbounds %"core::fmt::Arguments", %"core::fmt::Arguments"* %5, i64 0, i32 1, i32 1, !dbg !1142
  store i64 2, i64* %16, align 8, !dbg !1142, !alias.scope !1144, !noalias !1147
  %17 = getelementptr inbounds %"core::fmt::Arguments", %"core::fmt::Arguments"* %5, i64 0, i32 3, i32 0, !dbg !1142
  store i64* null, i64** %17, align 8, !dbg !1142, !alias.scope !1144, !noalias !1147
  %18 = getelementptr inbounds %"core::fmt::Arguments", %"core::fmt::Arguments"* %5, i64 0, i32 5, i32 0, !dbg !1142
  %19 = bitcast [0 x { i8*, i64* }]** %18 to [2 x { i8*, i64* }]**, !dbg !1142
  store [2 x { i8*, i64* }]* %4, [2 x { i8*, i64* }]** %19, align 8, !dbg !1142, !alias.scope !1144, !noalias !1147
  %20 = getelementptr inbounds %"core::fmt::Arguments", %"core::fmt::Arguments"* %5, i64 0, i32 5, i32 1, !dbg !1142
  store i64 2, i64* %20, align 8, !dbg !1142, !alias.scope !1144, !noalias !1147
  call void @_ZN4core9panicking9panic_fmt17hcd56f7f635f62c74E(%"core::fmt::Arguments"* noalias nocapture nonnull dereferenceable(48) %5, %"core::panic::Location"* noalias nonnull readonly align 8 dereferenceable(24) %2), !dbg !1141
  unreachable, !dbg !1141
}

; Function Attrs: argmemonly nounwind willreturn
declare void @llvm.memcpy.p0i8.p0i8.i64(i8* noalias nocapture writeonly, i8* noalias nocapture readonly, i64, i1 immarg) #10

; Function Attrs: norecurse nounwind nonlazybind readonly uwtable
define internal zeroext i1 @_ZN4core3fmt9Formatter15debug_lower_hex17hb9158b04f1f1b6d1E(%"core::fmt::Formatter"* noalias nocapture readonly align 8 dereferenceable(64) %0) unnamed_addr #15 !dbg !1150 {
  %2 = getelementptr inbounds %"core::fmt::Formatter", %"core::fmt::Formatter"* %0, i64 0, i32 7, !dbg !1151
  %3 = load i32, i32* %2, align 8, !dbg !1151
  %4 = and i32 %3, 16, !dbg !1151
  %5 = icmp ne i32 %4, 0, !dbg !1151
  ret i1 %5, !dbg !1152
}

; Function Attrs: norecurse nounwind nonlazybind readonly uwtable
define internal zeroext i1 @_ZN4core3fmt9Formatter15debug_upper_hex17hdbac3cb457cbbe5cE(%"core::fmt::Formatter"* noalias nocapture readonly align 8 dereferenceable(64) %0) unnamed_addr #15 !dbg !1153 {
  %2 = getelementptr inbounds %"core::fmt::Formatter", %"core::fmt::Formatter"* %0, i64 0, i32 7, !dbg !1154
  %3 = load i32, i32* %2, align 8, !dbg !1154
  %4 = and i32 %3, 32, !dbg !1154
  %5 = icmp ne i32 %4, 0, !dbg !1154
  ret i1 %5, !dbg !1155
}

; Function Attrs: nounwind nonlazybind uwtable
define internal zeroext i1 @"_ZN4core3fmt3num53_$LT$impl$u20$core..fmt..LowerHex$u20$for$u20$i64$GT$3fmt17hc386b79478f7220bE"(i64* noalias nocapture readonly align 8 dereferenceable(8) %0, %"core::fmt::Formatter"* nocapture align 8 dereferenceable(64) %1) unnamed_addr #11 !dbg !1156 {
  %3 = alloca [128 x i8], align 1
  %4 = load i64, i64* %0, align 8, !dbg !1157
  %5 = getelementptr inbounds [128 x i8], [128 x i8]* %3, i64 0, i64 0, !dbg !1158
  %6 = call i8* @memset(i8* %5, i32 0, i64 128), !dbg !1162
  %7 = getelementptr inbounds [128 x i8], [128 x i8]* %3, i64 0, i64 128, !dbg !1163
  br label %8, !dbg !1173

8:                                                ; preds = %8, %2
  %9 = phi i8* [ %7, %2 ], [ %12, %8 ], !dbg !1174
  %10 = phi i64 [ %4, %2 ], [ %13, %8 ]
  %11 = phi i64 [ 128, %2 ], [ %20, %8 ], !dbg !1175
  %12 = getelementptr inbounds i8, i8* %9, i64 -1, !dbg !1176
  %13 = lshr i64 %10, 4, !dbg !1187
  %14 = trunc i64 %10 to i8, !dbg !1190
  %15 = and i8 %14, 15, !dbg !1190
  %16 = icmp ult i8 %15, 10
  %17 = or i8 %15, 48, !dbg !1193
  %18 = add nuw nsw i8 %15, 87, !dbg !1193
  %19 = select i1 %16, i8 %17, i8 %18, !dbg !1193
  store i8 %19, i8* %12, align 1, !dbg !1196
  %20 = add nsw i64 %11, -1, !dbg !1202
  %21 = icmp eq i64 %13, 0, !dbg !1203
  br i1 %21, label %22, label %8, !dbg !1206

22:                                               ; preds = %8
  %23 = icmp ugt i64 %20, 128, !dbg !1207
  br i1 %23, label %24, label %25, !dbg !1218

24:                                               ; preds = %22
  tail call void @_ZN4core5slice5index26slice_start_index_len_fail17h1218e2e291e3f22cE(i64 %20, i64 128, %"core::panic::Location"* noalias readonly align 8 dereferenceable(24) bitcast (<{ i8*, [16 x i8] }>* @anon.965c706604096d42e5b155eaa3c30edf.219 to %"core::panic::Location"*)), !dbg !1219
  unreachable, !dbg !1219

25:                                               ; preds = %22
  %26 = getelementptr inbounds [128 x i8], [128 x i8]* %3, i64 0, i64 %20, !dbg !1220
  %27 = sub nuw nsw i64 129, %11, !dbg !1229
  %28 = bitcast i8* %26 to [0 x i8]*, !dbg !1230
  %29 = call zeroext i1 @_ZN4core3fmt9Formatter12pad_integral17h0f9951fc9f2b13b4E(%"core::fmt::Formatter"* nonnull align 8 dereferenceable(64) %1, i1 zeroext true, [0 x i8]* noalias nonnull readonly align 1 bitcast (<{ [2 x i8] }>* @anon.965c706604096d42e5b155eaa3c30edf.222 to [0 x i8]*), i64 2, [0 x i8]* noalias nonnull readonly align 1 %28, i64 %27), !dbg !1233
  ret i1 %29, !dbg !1234
}

; Function Attrs: nounwind nonlazybind uwtable
define internal zeroext i1 @"_ZN4core3fmt3num53_$LT$impl$u20$core..fmt..UpperHex$u20$for$u20$i64$GT$3fmt17h5804edae826a5de1E"(i64* noalias nocapture readonly align 8 dereferenceable(8) %0, %"core::fmt::Formatter"* nocapture align 8 dereferenceable(64) %1) unnamed_addr #11 !dbg !1235 {
  %3 = alloca [128 x i8], align 1
  %4 = load i64, i64* %0, align 8, !dbg !1236
  %5 = getelementptr inbounds [128 x i8], [128 x i8]* %3, i64 0, i64 0, !dbg !1237
  %6 = call i8* @memset(i8* %5, i32 0, i64 128), !dbg !1240
  %7 = getelementptr inbounds [128 x i8], [128 x i8]* %3, i64 0, i64 128, !dbg !1241
  br label %8, !dbg !1246

8:                                                ; preds = %8, %2
  %9 = phi i8* [ %7, %2 ], [ %12, %8 ], !dbg !1247
  %10 = phi i64 [ %4, %2 ], [ %13, %8 ]
  %11 = phi i64 [ 128, %2 ], [ %20, %8 ], !dbg !1248
  %12 = getelementptr inbounds i8, i8* %9, i64 -1, !dbg !1249
  %13 = lshr i64 %10, 4, !dbg !1254
  %14 = trunc i64 %10 to i8, !dbg !1256
  %15 = and i8 %14, 15, !dbg !1256
  %16 = icmp ult i8 %15, 10
  %17 = or i8 %15, 48, !dbg !1258
  %18 = add nuw nsw i8 %15, 55, !dbg !1258
  %19 = select i1 %16, i8 %17, i8 %18, !dbg !1258
  store i8 %19, i8* %12, align 1, !dbg !1261
  %20 = add nsw i64 %11, -1, !dbg !1263
  %21 = icmp eq i64 %13, 0, !dbg !1264
  br i1 %21, label %22, label %8, !dbg !1266

22:                                               ; preds = %8
  %23 = icmp ugt i64 %20, 128, !dbg !1267
  br i1 %23, label %24, label %25, !dbg !1271

24:                                               ; preds = %22
  tail call void @_ZN4core5slice5index26slice_start_index_len_fail17h1218e2e291e3f22cE(i64 %20, i64 128, %"core::panic::Location"* noalias readonly align 8 dereferenceable(24) bitcast (<{ i8*, [16 x i8] }>* @anon.965c706604096d42e5b155eaa3c30edf.219 to %"core::panic::Location"*)), !dbg !1272
  unreachable, !dbg !1272

25:                                               ; preds = %22
  %26 = getelementptr inbounds [128 x i8], [128 x i8]* %3, i64 0, i64 %20, !dbg !1273
  %27 = sub nuw nsw i64 129, %11, !dbg !1278
  %28 = bitcast i8* %26 to [0 x i8]*, !dbg !1279
  %29 = call zeroext i1 @_ZN4core3fmt9Formatter12pad_integral17h0f9951fc9f2b13b4E(%"core::fmt::Formatter"* nonnull align 8 dereferenceable(64) %1, i1 zeroext true, [0 x i8]* noalias nonnull readonly align 1 bitcast (<{ [2 x i8] }>* @anon.965c706604096d42e5b155eaa3c30edf.222 to [0 x i8]*), i64 2, [0 x i8]* noalias nonnull readonly align 1 %28, i64 %27), !dbg !1282
  ret i1 %29, !dbg !1283
}

; Function Attrs: inlinehint norecurse nounwind nonlazybind readnone
define internal nonnull i8* @"_ZN4core5slice29_$LT$impl$u20$$u5b$T$u5d$$GT$6as_ptr17hc11cd399229b063eE"([0 x i8]* noalias nonnull readonly align 1 %0, i64 %1) unnamed_addr #0 !dbg !1284 {
  %3 = alloca { [0 x i8]*, i64 }, align 8
  %4 = getelementptr inbounds { [0 x i8]*, i64 }, { [0 x i8]*, i64 }* %3, i32 0, i32 0
  store [0 x i8]* %0, [0 x i8]** %4, align 8
  %5 = getelementptr inbounds { [0 x i8]*, i64 }, { [0 x i8]*, i64 }* %3, i32 0, i32 1
  store i64 %1, i64* %5, align 8
  call void @llvm.dbg.declare(metadata { [0 x i8]*, i64 }* %3, metadata !1293, metadata !DIExpression()), !dbg !1296
  %6 = bitcast [0 x i8]* %0 to i8*, !dbg !1297
  ret i8* %6, !dbg !1298
}

; Function Attrs: inlinehint nounwind nonlazybind
define internal i64 @_ZN4core3mem7replace17hf3b6497db9e66a68E(i64* align 8 dereferenceable(8) %0, i64 %1) unnamed_addr #3 personality i32 (...)* @rust_eh_personality !dbg !1299 {
  %3 = alloca { i8*, i32 }, align 8
  %4 = alloca i64*, align 8
  %5 = alloca i64, align 8
  store i64 %1, i64* %5, align 8
  store i64* %0, i64** %4, align 8
  call void @llvm.dbg.declare(metadata i64** %4, metadata !1304, metadata !DIExpression()), !dbg !1306
  call void @llvm.dbg.declare(metadata i64* %5, metadata !1305, metadata !DIExpression()), !dbg !1307
  call void @_ZN4core3mem4swap17h59ae4fd38c7c4bd2E(i64* align 8 dereferenceable(8) %0, i64* align 8 dereferenceable(8) %5), !dbg !1308
  %6 = load i64, i64* %5, align 8, !dbg !1309
  ret i64 %6, !dbg !1310
}

; Function Attrs: inlinehint nounwind nonlazybind
define internal void @_ZN4core3mem4swap17h59ae4fd38c7c4bd2E(i64* align 8 dereferenceable(8) %0, i64* align 8 dereferenceable(8) %1) unnamed_addr #3 !dbg !1311 {
  %3 = alloca i64*, align 8
  %4 = alloca i64*, align 8
  store i64* %0, i64** %4, align 8
  call void @llvm.dbg.declare(metadata i64** %4, metadata !1315, metadata !DIExpression()), !dbg !1317
  store i64* %1, i64** %3, align 8
  call void @llvm.dbg.declare(metadata i64** %3, metadata !1316, metadata !DIExpression()), !dbg !1318
  call void @_ZN4core3ptr23swap_nonoverlapping_one17hb8e549a2ed77324fE(i64* %0, i64* %1), !dbg !1319
  ret void, !dbg !1320
}

; Function Attrs: inlinehint nounwind nonlazybind
define internal void @_ZN4core3ptr23swap_nonoverlapping_one17hb8e549a2ed77324fE(i64* %0, i64* %1) unnamed_addr #3 personality i32 (...)* @rust_eh_personality !dbg !1321 {
  %3 = alloca { i8*, i32 }, align 8
  %4 = alloca i64, align 8
  %5 = alloca i64*, align 8
  %6 = alloca i64*, align 8
  %7 = alloca i8, align 1
  %8 = alloca {}, align 1
  store i64* %0, i64** %6, align 8
  call void @llvm.dbg.declare(metadata i64** %6, metadata !1327, metadata !DIExpression()), !dbg !1331
  store i64* %1, i64** %5, align 8
  call void @llvm.dbg.declare(metadata i64** %5, metadata !1328, metadata !DIExpression()), !dbg !1332
  store i8 0, i8* %7, align 1, !dbg !1333
  %9 = icmp ult i64 8, 32, !dbg !1333
  br i1 %9, label %10, label %12, !dbg !1334

10:                                               ; preds = %2
  store i8 1, i8* %7, align 1, !dbg !1335
  %11 = call i64 @_ZN4core3ptr4read17h313a7e7e77d2d4a5E(i64* %0), !dbg !1335
  store i64 %11, i64* %4, align 8, !dbg !1335
  call void @llvm.dbg.declare(metadata i64* %4, metadata !1329, metadata !DIExpression()), !dbg !1336
  call void @_ZN4core10intrinsics19copy_nonoverlapping17h8d5bd974e265d66cE(i64* %1, i64* %0, i64 1), !dbg !1337
  store i8 0, i8* %7, align 1, !dbg !1338
  call void @_ZN4core3ptr5write17hbb233c52978d0d77E(i64* %1, i64 %11), !dbg !1339
  store i8 0, i8* %7, align 1, !dbg !1340
  br label %13, !dbg !1334

12:                                               ; preds = %2
  call void @_ZN4core3ptr19swap_nonoverlapping17hdf533d4950df7233E(i64* %0, i64* %1, i64 1), !dbg !1341
  br label %13, !dbg !1334

13:                                               ; preds = %12, %10
  ret void, !dbg !1342
}

; Function Attrs: inlinehint nounwind nonlazybind
define internal i64 @_ZN4core3ptr4read17h313a7e7e77d2d4a5E(i64* %0) unnamed_addr #3 !dbg !1343 {
  %2 = alloca i64*, align 8
  %3 = alloca i64, align 8
  %4 = alloca i64, align 8
  %5 = alloca i64, align 8
  %6 = alloca i64*, align 8
  %7 = alloca i64, align 8
  store i64* %0, i64** %6, align 8
  call void @llvm.dbg.declare(metadata i64** %6, metadata !1348, metadata !DIExpression()), !dbg !1359
  call void @llvm.dbg.declare(metadata i64* %7, metadata !1349, metadata !DIExpression()), !dbg !1360
  %8 = bitcast i64* %5 to {}*, !dbg !1361
  %9 = load i64, i64* %5, align 8, !dbg !1367
  store i64 %9, i64* %7, align 8, !dbg !1368
  store i64* %7, i64** %2, align 8
  call void @llvm.dbg.declare(metadata i64** %2, metadata !1369, metadata !DIExpression()), !dbg !1375
  call void @_ZN4core10intrinsics19copy_nonoverlapping17h8d5bd974e265d66cE(i64* %0, i64* %7, i64 1), !dbg !1377
  %10 = load i64, i64* %7, align 8, !dbg !1378
  store i64 %10, i64* %4, align 8
  call void @llvm.dbg.declare(metadata i64* %4, metadata !1379, metadata !DIExpression()), !dbg !1384
  store i64 %10, i64* %3, align 8
  call void @llvm.dbg.declare(metadata i64* %3, metadata !1386, metadata !DIExpression()), !dbg !1392
  ret i64 %10, !dbg !1394
}

; Function Attrs: inlinehint nounwind nonlazybind
define internal void @_ZN4core3ptr19swap_nonoverlapping17hdf533d4950df7233E(i64* %0, i64* %1, i64 %2) unnamed_addr #3 !dbg !1395 {
  %4 = alloca i64, align 8
  %5 = alloca i8*, align 8
  %6 = alloca i8*, align 8
  %7 = alloca i64, align 8
  %8 = alloca i64*, align 8
  %9 = alloca i64*, align 8
  store i64* %0, i64** %9, align 8
  call void @llvm.dbg.declare(metadata i64** %9, metadata !1399, metadata !DIExpression()), !dbg !1408
  store i64* %1, i64** %8, align 8
  call void @llvm.dbg.declare(metadata i64** %8, metadata !1400, metadata !DIExpression()), !dbg !1409
  store i64 %2, i64* %7, align 8
  call void @llvm.dbg.declare(metadata i64* %7, metadata !1401, metadata !DIExpression()), !dbg !1410
  %10 = bitcast i64* %0 to i8*, !dbg !1411
  store i8* %10, i8** %6, align 8, !dbg !1411
  call void @llvm.dbg.declare(metadata i8** %6, metadata !1402, metadata !DIExpression()), !dbg !1412
  %11 = bitcast i64* %1 to i8*, !dbg !1413
  store i8* %11, i8** %5, align 8, !dbg !1413
  call void @llvm.dbg.declare(metadata i8** %5, metadata !1404, metadata !DIExpression()), !dbg !1414
  %12 = mul i64 8, %2, !dbg !1415
  store i64 %12, i64* %4, align 8, !dbg !1415
  call void @llvm.dbg.declare(metadata i64* %4, metadata !1406, metadata !DIExpression()), !dbg !1416
  call void @_ZN4core3ptr25swap_nonoverlapping_bytes17h514aa8232de39c2dE(i8* %10, i8* %11, i64 %12), !dbg !1417
  ret void, !dbg !1418
}

; Function Attrs: inlinehint nounwind nonlazybind
define internal void @_ZN4core10intrinsics19copy_nonoverlapping17h8d5bd974e265d66cE(i64* %0, i64* %1, i64 %2) unnamed_addr #3 !dbg !1419 {
  %4 = alloca i64, align 8
  %5 = alloca i64*, align 8
  %6 = alloca i64*, align 8
  store i64* %0, i64** %6, align 8
  call void @llvm.dbg.declare(metadata i64** %6, metadata !1424, metadata !DIExpression()), !dbg !1427
  store i64* %1, i64** %5, align 8
  call void @llvm.dbg.declare(metadata i64** %5, metadata !1425, metadata !DIExpression()), !dbg !1428
  store i64 %2, i64* %4, align 8
  call void @llvm.dbg.declare(metadata i64* %4, metadata !1426, metadata !DIExpression()), !dbg !1429
  %7 = mul i64 8, %2, !dbg !1430
  %8 = bitcast i64* %1 to i8*, !dbg !1430
  %9 = bitcast i64* %0 to i8*, !dbg !1430
  %10 = call i8* @memcpy(i8* %8, i8* %9, i64 %7), !dbg !1430
  ret void, !dbg !1431
}

; Function Attrs: inlinehint nounwind nonlazybind
define internal void @_ZN4core3ptr5write17hbb233c52978d0d77E(i64* %0, i64 %1) unnamed_addr #3 personality i32 (...)* @rust_eh_personality !dbg !1432 {
  %3 = alloca { i8*, i32 }, align 8
  %4 = alloca i64*, align 8
  %5 = alloca i8, align 1
  %6 = alloca i64, align 8
  store i64 %1, i64* %6, align 8
  store i64* %0, i64** %4, align 8
  call void @llvm.dbg.declare(metadata i64** %4, metadata !1436, metadata !DIExpression()), !dbg !1438
  call void @llvm.dbg.declare(metadata i64* %6, metadata !1437, metadata !DIExpression()), !dbg !1439
  store i8 0, i8* %5, align 1, !dbg !1440
  store i8 1, i8* %5, align 1, !dbg !1440
  %7 = bitcast i64* %0 to i8*, !dbg !1440
  %8 = bitcast i64* %6 to i8*, !dbg !1440
  %9 = call i8* @memcpy(i8* %7, i8* %8, i64 8), !dbg !1440
  store i8 0, i8* %5, align 1, !dbg !1441
  ret void, !dbg !1442
}

; Function Attrs: inlinehint nounwind nonlazybind
define internal void @_ZN4core3ptr25swap_nonoverlapping_bytes17h514aa8232de39c2dE(i8* %0, i8* %1, i64 %2) unnamed_addr #3 !dbg !1443 {
  %4 = alloca %"core::mem::MaybeUninit<core::ptr::swap_nonoverlapping_bytes::UnalignedBlock>"*, align 8
  %5 = alloca <4 x i64>*, align 8
  %6 = alloca i8*, align 8
  %7 = alloca i8*, align 8
  %8 = alloca i8*, align 8
  %9 = alloca i64, align 8
  %10 = alloca i8*, align 8
  %11 = alloca i8*, align 8
  %12 = alloca i8*, align 8
  %13 = alloca i64, align 8
  %14 = alloca i64, align 8
  %15 = alloca i8*, align 8
  %16 = alloca i8*, align 8
  %17 = alloca %"core::mem::MaybeUninit<core::ptr::swap_nonoverlapping_bytes::UnalignedBlock>", align 8
  %18 = alloca <4 x i64>, align 32
  %19 = alloca i64, align 8
  %20 = alloca {}, align 1
  store i8* %0, i8** %16, align 8
  call void @llvm.dbg.declare(metadata i8** %16, metadata !1447, metadata !DIExpression()), !dbg !1503
  store i8* %1, i8** %15, align 8
  call void @llvm.dbg.declare(metadata i8** %15, metadata !1448, metadata !DIExpression()), !dbg !1504
  store i64 %2, i64* %14, align 8
  call void @llvm.dbg.declare(metadata i64* %14, metadata !1449, metadata !DIExpression()), !dbg !1505
  call void @llvm.dbg.declare(metadata i64* %19, metadata !1452, metadata !DIExpression()), !dbg !1506
  call void @llvm.dbg.declare(metadata <4 x i64>* %18, metadata !1454, metadata !DIExpression()), !dbg !1507
  call void @llvm.dbg.declare(metadata %"core::mem::MaybeUninit<core::ptr::swap_nonoverlapping_bytes::UnalignedBlock>"* %17, metadata !1478, metadata !DIExpression()), !dbg !1508
  store i64 32, i64* %13, align 8, !dbg !1509
  call void @llvm.dbg.declare(metadata i64* %13, metadata !1450, metadata !DIExpression()), !dbg !1510
  store i64 0, i64* %19, align 8, !dbg !1511
  br label %21, !dbg !1512

21:                                               ; preds = %28, %3
  %22 = load i64, i64* %19, align 8, !dbg !1513
  %23 = add i64 %22, 32, !dbg !1513
  %24 = icmp ule i64 %23, %2, !dbg !1513
  br i1 %24, label %28, label %25, !dbg !1512

25:                                               ; preds = %21
  %26 = load i64, i64* %19, align 8, !dbg !1514
  %27 = icmp ult i64 %26, %2, !dbg !1514
  br i1 %27, label %37, label %47, !dbg !1515

28:                                               ; preds = %21
  %29 = bitcast <4 x i64>* %18 to {}*, !dbg !1516
  store <4 x i64>* %18, <4 x i64>** %5, align 8
  call void @llvm.dbg.declare(metadata <4 x i64>** %5, metadata !1521, metadata !DIExpression()), !dbg !1528
  %30 = bitcast <4 x i64>* %18 to i8*, !dbg !1530
  store i8* %30, i8** %12, align 8, !dbg !1530
  call void @llvm.dbg.declare(metadata i8** %12, metadata !1472, metadata !DIExpression()), !dbg !1531
  %31 = load i64, i64* %19, align 8, !dbg !1532
  %32 = call i8* @"_ZN4core3ptr7mut_ptr31_$LT$impl$u20$$BP$mut$u20$T$GT$3add17h90e417d9863cb405E"(i8* %0, i64 %31), !dbg !1533
  store i8* %32, i8** %11, align 8, !dbg !1533
  call void @llvm.dbg.declare(metadata i8** %11, metadata !1474, metadata !DIExpression()), !dbg !1534
  %33 = load i64, i64* %19, align 8, !dbg !1535
  %34 = call i8* @"_ZN4core3ptr7mut_ptr31_$LT$impl$u20$$BP$mut$u20$T$GT$3add17h90e417d9863cb405E"(i8* %1, i64 %33), !dbg !1536
  store i8* %34, i8** %10, align 8, !dbg !1536
  call void @llvm.dbg.declare(metadata i8** %10, metadata !1476, metadata !DIExpression()), !dbg !1537
  call void @_ZN4core10intrinsics19copy_nonoverlapping17h7df68daedec6b3d5E(i8* %32, i8* %30, i64 32), !dbg !1538
  call void @_ZN4core10intrinsics19copy_nonoverlapping17h7df68daedec6b3d5E(i8* %34, i8* %32, i64 32), !dbg !1539
  call void @_ZN4core10intrinsics19copy_nonoverlapping17h7df68daedec6b3d5E(i8* %30, i8* %34, i64 32), !dbg !1540
  %35 = load i64, i64* %19, align 8, !dbg !1541
  %36 = add i64 %35, 32, !dbg !1541
  store i64 %36, i64* %19, align 8, !dbg !1541
  br label %21, !dbg !1512

37:                                               ; preds = %25
  %38 = bitcast %"core::mem::MaybeUninit<core::ptr::swap_nonoverlapping_bytes::UnalignedBlock>"* %17 to {}*, !dbg !1542
  %39 = load i64, i64* %19, align 8, !dbg !1547
  %40 = sub i64 %2, %39, !dbg !1548
  store i64 %40, i64* %9, align 8, !dbg !1548
  call void @llvm.dbg.declare(metadata i64* %9, metadata !1495, metadata !DIExpression()), !dbg !1549
  store %"core::mem::MaybeUninit<core::ptr::swap_nonoverlapping_bytes::UnalignedBlock>"* %17, %"core::mem::MaybeUninit<core::ptr::swap_nonoverlapping_bytes::UnalignedBlock>"** %4, align 8
  call void @llvm.dbg.declare(metadata %"core::mem::MaybeUninit<core::ptr::swap_nonoverlapping_bytes::UnalignedBlock>"** %4, metadata !1550, metadata !DIExpression()), !dbg !1557
  %41 = bitcast %"core::mem::MaybeUninit<core::ptr::swap_nonoverlapping_bytes::UnalignedBlock>"* %17 to %"hash::sip::State"*, !dbg !1559
  %42 = bitcast %"hash::sip::State"* %41 to i8*, !dbg !1560
  store i8* %42, i8** %8, align 8, !dbg !1560
  call void @llvm.dbg.declare(metadata i8** %8, metadata !1497, metadata !DIExpression()), !dbg !1561
  %43 = load i64, i64* %19, align 8, !dbg !1562
  %44 = call i8* @"_ZN4core3ptr7mut_ptr31_$LT$impl$u20$$BP$mut$u20$T$GT$3add17h90e417d9863cb405E"(i8* %0, i64 %43), !dbg !1563
  store i8* %44, i8** %7, align 8, !dbg !1563
  call void @llvm.dbg.declare(metadata i8** %7, metadata !1499, metadata !DIExpression()), !dbg !1564
  %45 = load i64, i64* %19, align 8, !dbg !1565
  %46 = call i8* @"_ZN4core3ptr7mut_ptr31_$LT$impl$u20$$BP$mut$u20$T$GT$3add17h90e417d9863cb405E"(i8* %1, i64 %45), !dbg !1566
  store i8* %46, i8** %6, align 8, !dbg !1566
  call void @llvm.dbg.declare(metadata i8** %6, metadata !1501, metadata !DIExpression()), !dbg !1567
  call void @_ZN4core10intrinsics19copy_nonoverlapping17h7df68daedec6b3d5E(i8* %44, i8* %42, i64 %40), !dbg !1568
  call void @_ZN4core10intrinsics19copy_nonoverlapping17h7df68daedec6b3d5E(i8* %46, i8* %44, i64 %40), !dbg !1569
  call void @_ZN4core10intrinsics19copy_nonoverlapping17h7df68daedec6b3d5E(i8* %42, i8* %46, i64 %40), !dbg !1570
  br label %47, !dbg !1515

47:                                               ; preds = %37, %25
  ret void, !dbg !1571
}

; Function Attrs: inlinehint norecurse nounwind nonlazybind readnone
define internal i8* @"_ZN4core3ptr7mut_ptr31_$LT$impl$u20$$BP$mut$u20$T$GT$3add17h90e417d9863cb405E"(i8* %0, i64 %1) unnamed_addr #0 !dbg !1572 {
  %3 = alloca i64, align 8
  %4 = alloca i8*, align 8
  store i8* %0, i8** %4, align 8
  call void @llvm.dbg.declare(metadata i8** %4, metadata !1577, metadata !DIExpression()), !dbg !1581
  store i64 %1, i64* %3, align 8
  call void @llvm.dbg.declare(metadata i64* %3, metadata !1578, metadata !DIExpression()), !dbg !1582
  %5 = call i8* @"_ZN4core3ptr7mut_ptr31_$LT$impl$u20$$BP$mut$u20$T$GT$6offset17h0b3ce97c1f0a282eE"(i8* %0, i64 %1), !dbg !1583
  ret i8* %5, !dbg !1584
}

; Function Attrs: inlinehint nounwind nonlazybind
define internal void @_ZN4core10intrinsics19copy_nonoverlapping17h7df68daedec6b3d5E(i8* %0, i8* %1, i64 %2) unnamed_addr #3 !dbg !1585 {
  %4 = alloca i64, align 8
  %5 = alloca i8*, align 8
  %6 = alloca i8*, align 8
  store i8* %0, i8** %6, align 8
  call void @llvm.dbg.declare(metadata i8** %6, metadata !1589, metadata !DIExpression()), !dbg !1592
  store i8* %1, i8** %5, align 8
  call void @llvm.dbg.declare(metadata i8** %5, metadata !1590, metadata !DIExpression()), !dbg !1593
  store i64 %2, i64* %4, align 8
  call void @llvm.dbg.declare(metadata i64* %4, metadata !1591, metadata !DIExpression()), !dbg !1594
  %7 = mul i64 1, %2, !dbg !1595
  %8 = call i8* @memcpy(i8* %1, i8* %0, i64 %7), !dbg !1595
  ret void, !dbg !1596
}

; Function Attrs: inlinehint norecurse nounwind nonlazybind readnone
define internal i8* @"_ZN4core3ptr7mut_ptr31_$LT$impl$u20$$BP$mut$u20$T$GT$6offset17h0b3ce97c1f0a282eE"(i8* %0, i64 %1) unnamed_addr #0 !dbg !1597 {
  %3 = alloca i8*, align 8
  %4 = alloca i64, align 8
  %5 = alloca i8*, align 8
  store i8* %0, i8** %5, align 8
  call void @llvm.dbg.declare(metadata i8** %5, metadata !1602, metadata !DIExpression()), !dbg !1604
  store i64 %1, i64* %4, align 8
  call void @llvm.dbg.declare(metadata i64* %4, metadata !1603, metadata !DIExpression()), !dbg !1605
  %6 = getelementptr inbounds i8, i8* %0, i64 %1, !dbg !1606
  store i8* %6, i8** %3, align 8, !dbg !1606
  %7 = load i8*, i8** %3, align 8, !dbg !1606
  ret i8* %7, !dbg !1607
}

; Function Attrs: nounwind nonlazybind
define internal zeroext i1 @"_ZN42_$LT$$RF$T$u20$as$u20$core..fmt..Debug$GT$3fmt17hc3f3636480f0d00dE"(i64** noalias readonly align 8 dereferenceable(8) %0, %"core::fmt::Formatter"* align 8 dereferenceable(64) %1) unnamed_addr #5 !dbg !1608 {
  %3 = alloca %"core::fmt::Formatter"*, align 8
  %4 = alloca i64**, align 8
  store i64** %0, i64*** %4, align 8
  call void @llvm.dbg.declare(metadata i64*** %4, metadata !1625, metadata !DIExpression()), !dbg !1627
  store %"core::fmt::Formatter"* %1, %"core::fmt::Formatter"** %3, align 8
  call void @llvm.dbg.declare(metadata %"core::fmt::Formatter"** %3, metadata !1626, metadata !DIExpression()), !dbg !1628
  %5 = load i64*, i64** %0, align 8, !dbg !1629, !nonnull !28
  %6 = call zeroext i1 @"_ZN4core3fmt3num52_$LT$impl$u20$core..fmt..Debug$u20$for$u20$usize$GT$3fmt17h405d2443bc4e0f57E"(i64* noalias readonly align 8 dereferenceable(8) %5, %"core::fmt::Formatter"* align 8 dereferenceable(64) %1), !dbg !1630
  ret i1 %6, !dbg !1631
}

; Function Attrs: inlinehint nounwind nonlazybind
define internal zeroext i1 @"_ZN4core3fmt3num52_$LT$impl$u20$core..fmt..Debug$u20$for$u20$usize$GT$3fmt17h405d2443bc4e0f57E"(i64* noalias readonly align 8 dereferenceable(8) %0, %"core::fmt::Formatter"* align 8 dereferenceable(64) %1) unnamed_addr #3 !dbg !1632 {
  %3 = alloca %"core::fmt::Formatter"*, align 8
  %4 = alloca i64*, align 8
  %5 = alloca i8, align 1
  store i64* %0, i64** %4, align 8
  call void @llvm.dbg.declare(metadata i64** %4, metadata !1637, metadata !DIExpression()), !dbg !1639
  store %"core::fmt::Formatter"* %1, %"core::fmt::Formatter"** %3, align 8
  call void @llvm.dbg.declare(metadata %"core::fmt::Formatter"** %3, metadata !1638, metadata !DIExpression()), !dbg !1640
  %6 = call zeroext i1 @_ZN4core3fmt9Formatter15debug_lower_hex17hb9158b04f1f1b6d1E(%"core::fmt::Formatter"* noalias readonly align 8 dereferenceable(64) %1), !dbg !1641
  br i1 %6, label %7, label %10, !dbg !1642

7:                                                ; preds = %2
  %8 = call zeroext i1 @"_ZN4core3fmt3num55_$LT$impl$u20$core..fmt..LowerHex$u20$for$u20$usize$GT$3fmt17hc5d551cc331a3d29E"(i64* noalias readonly align 8 dereferenceable(8) %0, %"core::fmt::Formatter"* align 8 dereferenceable(64) %1), !dbg !1643
  %9 = zext i1 %8 to i8, !dbg !1643
  store i8 %9, i8* %5, align 1, !dbg !1643
  br label %18, !dbg !1642

10:                                               ; preds = %2
  %11 = call zeroext i1 @_ZN4core3fmt9Formatter15debug_upper_hex17hdbac3cb457cbbe5cE(%"core::fmt::Formatter"* noalias readonly align 8 dereferenceable(64) %1), !dbg !1644
  br i1 %11, label %12, label %15, !dbg !1645

12:                                               ; preds = %10
  %13 = call zeroext i1 @"_ZN4core3fmt3num55_$LT$impl$u20$core..fmt..UpperHex$u20$for$u20$usize$GT$3fmt17h7b9678389d8e4dbaE"(i64* noalias readonly align 8 dereferenceable(8) %0, %"core::fmt::Formatter"* align 8 dereferenceable(64) %1), !dbg !1646
  %14 = zext i1 %13 to i8, !dbg !1646
  store i8 %14, i8* %5, align 1, !dbg !1646
  br label %18, !dbg !1645

15:                                               ; preds = %10
  %16 = call zeroext i1 @"_ZN4core3fmt3num3imp54_$LT$impl$u20$core..fmt..Display$u20$for$u20$usize$GT$3fmt17hdf38f9e8c4c02304E"(i64* noalias readonly align 8 dereferenceable(8) %0, %"core::fmt::Formatter"* align 8 dereferenceable(64) %1), !dbg !1647
  %17 = zext i1 %16 to i8, !dbg !1647
  store i8 %17, i8* %5, align 1, !dbg !1647
  br label %18, !dbg !1645

18:                                               ; preds = %15, %12, %7
  %19 = load i8, i8* %5, align 1, !dbg !1648, !range !639
  %20 = trunc i8 %19 to i1, !dbg !1648
  ret i1 %20, !dbg !1648
}

; Function Attrs: norecurse nounwind nonlazybind readnone
define internal { i8*, i64* } @_ZN4core3fmt10ArgumentV13new17h60ff897c4c2134a0E(i64** noalias readonly align 8 dereferenceable(8) %0, i1 (i64**, %"core::fmt::Formatter"*)* nonnull %1) unnamed_addr #4 !dbg !1649 {
  %3 = alloca {}*, align 8
  %4 = alloca i1 ({}*, %"core::fmt::Formatter"*)*, align 8
  %5 = alloca i1 (i64**, %"core::fmt::Formatter"*)*, align 8
  %6 = alloca i64**, align 8
  %7 = alloca { i8*, i64* }, align 8
  store i64** %0, i64*** %6, align 8
  call void @llvm.dbg.declare(metadata i64*** %6, metadata !1661, metadata !DIExpression()), !dbg !1665
  store i1 (i64**, %"core::fmt::Formatter"*)* %1, i1 (i64**, %"core::fmt::Formatter"*)** %5, align 8
  call void @llvm.dbg.declare(metadata i1 (i64**, %"core::fmt::Formatter"*)** %5, metadata !1662, metadata !DIExpression()), !dbg !1666
  %8 = bitcast i1 (i64**, %"core::fmt::Formatter"*)* %1 to i1 ({}*, %"core::fmt::Formatter"*)*, !dbg !1667
  store i1 ({}*, %"core::fmt::Formatter"*)* %8, i1 ({}*, %"core::fmt::Formatter"*)** %4, align 8, !dbg !1667
  %9 = load i1 ({}*, %"core::fmt::Formatter"*)*, i1 ({}*, %"core::fmt::Formatter"*)** %4, align 8, !dbg !1667, !nonnull !28
  %10 = bitcast i64** %0 to {}*, !dbg !1668
  store {}* %10, {}** %3, align 8, !dbg !1668
  %11 = load {}*, {}** %3, align 8, !dbg !1668, !nonnull !28
  %12 = bitcast { i8*, i64* }* %7 to {}**, !dbg !1669
  store {}* %11, {}** %12, align 8, !dbg !1669
  %13 = getelementptr inbounds { i8*, i64* }, { i8*, i64* }* %7, i32 0, i32 1, !dbg !1669
  %14 = bitcast i64** %13 to i1 ({}*, %"core::fmt::Formatter"*)**, !dbg !1669
  store i1 ({}*, %"core::fmt::Formatter"*)* %9, i1 ({}*, %"core::fmt::Formatter"*)** %14, align 8, !dbg !1669
  %15 = getelementptr inbounds { i8*, i64* }, { i8*, i64* }* %7, i32 0, i32 0, !dbg !1670
  %16 = load i8*, i8** %15, align 8, !dbg !1670, !nonnull !28
  %17 = getelementptr inbounds { i8*, i64* }, { i8*, i64* }* %7, i32 0, i32 1, !dbg !1670
  %18 = load i64*, i64** %17, align 8, !dbg !1670, !nonnull !28
  %19 = insertvalue { i8*, i64* } undef, i8* %16, 0, !dbg !1670
  %20 = insertvalue { i8*, i64* } %19, i64* %18, 1, !dbg !1670
  ret { i8*, i64* } %20, !dbg !1670
}

; Function Attrs: noinline noreturn nounwind nonlazybind
define internal void @rust_begin_unwind(%"panic::PanicInfo"* noalias readonly align 8 dereferenceable(32) %0) unnamed_addr #16 !dbg !1671 {
  %2 = alloca %"panic::PanicInfo"*, align 8
  store %"panic::PanicInfo"* %0, %"panic::PanicInfo"** %2, align 8
  call void @llvm.dbg.declare(metadata %"panic::PanicInfo"** %2, metadata !1797, metadata !DIExpression()), !dbg !1798
  call void @abort(), !dbg !1799
  unreachable, !dbg !1799
}

; Function Attrs: alwaysinline noreturn nounwind nonlazybind
declare void @abort() unnamed_addr #17

; Function Attrs: noinline nounwind uwtable
define dso_local i8* @memcpy(i8* %0, i8* %1, i64 %2) #18 !dbg !1800 {
  %4 = alloca i8*, align 8
  %5 = alloca i8*, align 8
  %6 = alloca i64, align 8
  %7 = alloca i8*, align 8
  %8 = alloca i8*, align 8
  store i8* %0, i8** %4, align 8
  call void @llvm.dbg.declare(metadata i8** %4, metadata !1810, metadata !DIExpression()), !dbg !1811
  store i8* %1, i8** %5, align 8
  call void @llvm.dbg.declare(metadata i8** %5, metadata !1812, metadata !DIExpression()), !dbg !1813
  store i64 %2, i64* %6, align 8
  call void @llvm.dbg.declare(metadata i64* %6, metadata !1814, metadata !DIExpression()), !dbg !1815
  call void @llvm.dbg.declare(metadata i8** %7, metadata !1816, metadata !DIExpression()), !dbg !1819
  %9 = load i8*, i8** %4, align 8, !dbg !1820
  store i8* %9, i8** %7, align 8, !dbg !1819
  call void @llvm.dbg.declare(metadata i8** %8, metadata !1821, metadata !DIExpression()), !dbg !1824
  %10 = load i8*, i8** %5, align 8, !dbg !1825
  store i8* %10, i8** %8, align 8, !dbg !1824
  br label %11, !dbg !1826

11:                                               ; preds = %15, %3
  %12 = load i64, i64* %6, align 8, !dbg !1827
  %13 = add i64 %12, -1, !dbg !1827
  store i64 %13, i64* %6, align 8, !dbg !1827
  %14 = icmp ugt i64 %12, 0, !dbg !1828
  br i1 %14, label %15, label %21, !dbg !1826

15:                                               ; preds = %11
  %16 = load i8*, i8** %8, align 8, !dbg !1829
  %17 = getelementptr inbounds i8, i8* %16, i32 1, !dbg !1829
  store i8* %17, i8** %8, align 8, !dbg !1829
  %18 = load i8, i8* %16, align 1, !dbg !1830
  %19 = load i8*, i8** %7, align 8, !dbg !1831
  %20 = getelementptr inbounds i8, i8* %19, i32 1, !dbg !1831
  store i8* %20, i8** %7, align 8, !dbg !1831
  store i8 %18, i8* %19, align 1, !dbg !1832
  br label %11, !dbg !1826, !llvm.loop !1833

21:                                               ; preds = %11
  %22 = load i8*, i8** %4, align 8, !dbg !1834
  ret i8* %22, !dbg !1835
}

; Function Attrs: noinline nounwind uwtable
define dso_local i8* @memset(i8* %0, i32 %1, i64 %2) #18 !dbg !1836 {
  %4 = alloca i8*, align 8
  %5 = alloca i32, align 4
  %6 = alloca i64, align 8
  %7 = alloca i8*, align 8
  store i8* %0, i8** %4, align 8
  call void @llvm.dbg.declare(metadata i8** %4, metadata !1841, metadata !DIExpression()), !dbg !1842
  store i32 %1, i32* %5, align 4
  call void @llvm.dbg.declare(metadata i32* %5, metadata !1843, metadata !DIExpression()), !dbg !1844
  store i64 %2, i64* %6, align 8
  call void @llvm.dbg.declare(metadata i64* %6, metadata !1845, metadata !DIExpression()), !dbg !1846
  call void @llvm.dbg.declare(metadata i8** %7, metadata !1847, metadata !DIExpression()), !dbg !1848
  %8 = load i8*, i8** %4, align 8, !dbg !1849
  store i8* %8, i8** %7, align 8, !dbg !1848
  br label %9, !dbg !1850

9:                                                ; preds = %13, %3
  %10 = load i64, i64* %6, align 8, !dbg !1851
  %11 = add i64 %10, -1, !dbg !1851
  store i64 %11, i64* %6, align 8, !dbg !1851
  %12 = icmp ugt i64 %10, 0, !dbg !1852
  br i1 %12, label %13, label %18, !dbg !1850

13:                                               ; preds = %9
  %14 = load i32, i32* %5, align 4, !dbg !1853
  %15 = trunc i32 %14 to i8, !dbg !1853
  %16 = load i8*, i8** %7, align 8, !dbg !1854
  %17 = getelementptr inbounds i8, i8* %16, i32 1, !dbg !1854
  store i8* %17, i8** %7, align 8, !dbg !1854
  store i8 %15, i8* %16, align 1, !dbg !1855
  br label %9, !dbg !1850, !llvm.loop !1856

18:                                               ; preds = %9
  %19 = load i8*, i8** %4, align 8, !dbg !1857
  ret i8* %19, !dbg !1858
}

attributes #0 = { inlinehint norecurse nounwind nonlazybind readnone "probe-stack"="__rust_probestack" "target-cpu"="x86-64" }
attributes #1 = { inlinehint norecurse nounwind nonlazybind readonly "probe-stack"="__rust_probestack" "target-cpu"="x86-64" }
attributes #2 = { inlinehint nofree norecurse nounwind nonlazybind writeonly "probe-stack"="__rust_probestack" "target-cpu"="x86-64" }
attributes #3 = { inlinehint nounwind nonlazybind "probe-stack"="__rust_probestack" "target-cpu"="x86-64" }
attributes #4 = { norecurse nounwind nonlazybind readnone "probe-stack"="__rust_probestack" "target-cpu"="x86-64" }
attributes #5 = { nounwind nonlazybind "probe-stack"="__rust_probestack" "target-cpu"="x86-64" }
attributes #6 = { nounwind readnone speculatable willreturn }
attributes #7 = { nounwind readnone willreturn }
attributes #8 = { nounwind nonlazybind "target-cpu"="x86-64" }
attributes #9 = { cold noinline noreturn nounwind nonlazybind uwtable "probe-stack"="__rust_probestack" "target-cpu"="x86-64" }
attributes #10 = { argmemonly nounwind willreturn }
attributes #11 = { nounwind nonlazybind uwtable "probe-stack"="__rust_probestack" "target-cpu"="x86-64" }
attributes #12 = { inlinehint norecurse nounwind nonlazybind readnone uwtable "probe-stack"="__rust_probestack" "target-cpu"="x86-64" }
attributes #13 = { norecurse nounwind nonlazybind readnone uwtable "probe-stack"="__rust_probestack" "target-cpu"="x86-64" }
attributes #14 = { noinline nounwind nonlazybind uwtable "probe-stack"="__rust_probestack" "target-cpu"="x86-64" }
attributes #15 = { norecurse nounwind nonlazybind readonly uwtable "probe-stack"="__rust_probestack" "target-cpu"="x86-64" }
attributes #16 = { noinline noreturn nounwind nonlazybind "probe-stack"="__rust_probestack" "target-cpu"="x86-64" }
attributes #17 = { alwaysinline noreturn nounwind nonlazybind "probe-stack"="__rust_probestack" "target-cpu"="x86-64" }
attributes #18 = { noinline nounwind uwtable "correctly-rounded-divide-sqrt-fp-math"="false" "disable-tail-calls"="false" "frame-pointer"="all" "less-precise-fpmad"="false" "min-legal-vector-width"="0" "no-infs-fp-math"="false" "no-jump-tables"="false" "no-nans-fp-math"="false" "no-signed-zeros-fp-math"="false" "no-trapping-math"="false" "stack-protector-buffer-size"="8" "target-cpu"="x86-64" "target-features"="+cx8,+fxsr,+mmx,+sse,+sse2,+x87" "unsafe-fp-math"="false" "use-soft-float"="false" }
attributes #19 = { nounwind }

!llvm.module.flags = !{!0, !1, !2, !3, !4, !5}
!llvm.dbg.cu = !{!6, !26, !29, !62, !64, !66, !383, !385, !387, !389}
!llvm.ident = !{!391, !391}

!0 = !{i32 7, !"PIC Level", i32 2}
!1 = !{i32 7, !"PIE Level", i32 2}
!2 = !{i32 2, !"RtLibUseGOT", i32 1}
!3 = !{i32 2, !"Debug Info Version", i32 3}
!4 = !{i32 7, !"Dwarf Version", i32 4}
!5 = !{i32 1, !"wchar_size", i32 4}
!6 = distinct !DICompileUnit(language: DW_LANG_Rust, file: !7, producer: "clang LLVM (rustc version 1.51.0 (2fd73fabe 2021-03-23))", isOptimized: false, runtimeVersion: 0, emissionKind: FullDebug, enums: !8)
!7 = !DIFile(filename: "src/main.rs", directory: "/home/ubuntu/container-data/fact/target/debug/deps")
!8 = !{!9, !21}
!9 = !DICompositeType(tag: DW_TAG_enumeration_type, name: "Alignment", scope: !11, file: !10, baseType: !15, size: 8, align: 8, flags: DIFlagEnumClass, elements: !16)
!10 = !DIFile(filename: "<unknown>", directory: "")
!11 = !DINamespace(name: "v1", scope: !12)
!12 = !DINamespace(name: "rt", scope: !13)
!13 = !DINamespace(name: "fmt", scope: !14)
!14 = !DINamespace(name: "core", scope: null)
!15 = !DIBasicType(name: "u8", size: 8, encoding: DW_ATE_unsigned)
!16 = !{!17, !18, !19, !20}
!17 = !DIEnumerator(name: "Left", value: 0)
!18 = !DIEnumerator(name: "Right", value: 1)
!19 = !DIEnumerator(name: "Center", value: 2)
!20 = !DIEnumerator(name: "Unknown", value: 3)
!21 = !DICompositeType(tag: DW_TAG_enumeration_type, name: "Result", scope: !22, file: !10, baseType: !15, size: 8, align: 8, flags: DIFlagEnumClass, elements: !23)
!22 = !DINamespace(name: "result", scope: !14)
!23 = !{!24, !25}
!24 = !DIEnumerator(name: "Ok", value: 0)
!25 = !DIEnumerator(name: "Err", value: 1)
!26 = distinct !DICompileUnit(language: DW_LANG_Rust, file: !27, producer: "clang LLVM (rustc version 1.51.0 (2fd73fabe 2021-03-23))", isOptimized: true, runtimeVersion: 0, emissionKind: FullDebug, enums: !28)
!27 = !DIFile(filename: "library/core/src/lib.rs", directory: "/checkout/obj/build/x86_64-unknown-linux-gnu/stage1-std/x86_64-unknown-linux-gnu/release/deps")
!28 = !{}
!29 = distinct !DICompileUnit(language: DW_LANG_Rust, file: !30, producer: "clang LLVM (rustc version 1.51.0 (2fd73fabe 2021-03-23))", isOptimized: false, runtimeVersion: 0, emissionKind: FullDebug, enums: !31, globals: !39)
!30 = !DIFile(filename: "/home/ubuntu/.cargo/registry/src/github.com-1ecc6299db9ec823/cstr_core-0.2.5/src/lib.rs", directory: "/home/ubuntu/container-data/container-data/fact/target/debug/deps")
!31 = !{!21, !9, !32}
!32 = !DICompositeType(tag: DW_TAG_enumeration_type, name: "Ordering", scope: !33, file: !10, baseType: !34, size: 8, align: 8, flags: DIFlagEnumClass, elements: !35)
!33 = !DINamespace(name: "cmp", scope: !14)
!34 = !DIBasicType(name: "i8", size: 8, encoding: DW_ATE_signed)
!35 = !{!36, !37, !38}
!36 = !DIEnumerator(name: "Less", value: -1)
!37 = !DIEnumerator(name: "Equal", value: 0)
!38 = !DIEnumerator(name: "Greater", value: 1)
!39 = !{!40, !58}
!40 = !DIGlobalVariableExpression(var: !41, expr: !DIExpression())
!41 = distinct !DIGlobalVariable(name: "vtable", scope: null, file: !10, type: !42, isLocal: true, isDefinition: true)
!42 = !DICompositeType(tag: DW_TAG_structure_type, name: "vtable", file: !10, align: 64, flags: DIFlagArtificial, elements: !28, vtableHolder: !43, identifier: "vtable")
!43 = !DIDerivedType(tag: DW_TAG_pointer_type, name: "&cstr_core::FromBytesWithNulErrorKind", baseType: !44, size: 64, align: 64, dwarfAddressSpace: 0)
!44 = !DICompositeType(tag: DW_TAG_structure_type, name: "FromBytesWithNulErrorKind", scope: !45, file: !10, size: 128, align: 64, elements: !46, identifier: "bbc6373f6c1b3f34c6d2b514ae57c5d8")
!45 = !DINamespace(name: "cstr_core", scope: null)
!46 = !{!47}
!47 = !DICompositeType(tag: DW_TAG_variant_part, scope: !45, file: !10, size: 128, align: 64, elements: !48, templateParams: !28, identifier: "bbc6373f6c1b3f34c6d2b514ae57c5d8_variant_part", discriminator: !56)
!48 = !{!49, !54}
!49 = !DIDerivedType(tag: DW_TAG_member, name: "InteriorNul", scope: !47, file: !10, baseType: !50, size: 128, align: 64, extraData: i64 0)
!50 = !DICompositeType(tag: DW_TAG_structure_type, name: "InteriorNul", scope: !44, file: !10, size: 128, align: 64, elements: !51, templateParams: !28, identifier: "bbc6373f6c1b3f34c6d2b514ae57c5d8::InteriorNul")
!51 = !{!52}
!52 = !DIDerivedType(tag: DW_TAG_member, name: "__0", scope: !50, file: !10, baseType: !53, size: 64, align: 64, offset: 64)
!53 = !DIBasicType(name: "usize", size: 64, encoding: DW_ATE_unsigned)
!54 = !DIDerivedType(tag: DW_TAG_member, name: "NotNulTerminated", scope: !47, file: !10, baseType: !55, size: 128, align: 64, extraData: i64 1)
!55 = !DICompositeType(tag: DW_TAG_structure_type, name: "NotNulTerminated", scope: !44, file: !10, size: 128, align: 64, elements: !28, templateParams: !28, identifier: "bbc6373f6c1b3f34c6d2b514ae57c5d8::NotNulTerminated")
!56 = !DIDerivedType(tag: DW_TAG_member, scope: !45, file: !10, baseType: !57, size: 64, align: 64, flags: DIFlagArtificial)
!57 = !DIBasicType(name: "u64", size: 64, encoding: DW_ATE_unsigned)
!58 = !DIGlobalVariableExpression(var: !59, expr: !DIExpression())
!59 = distinct !DIGlobalVariable(name: "vtable", scope: null, file: !10, type: !60, isLocal: true, isDefinition: true)
!60 = !DICompositeType(tag: DW_TAG_structure_type, name: "vtable", file: !10, align: 64, flags: DIFlagArtificial, elements: !28, vtableHolder: !61, identifier: "vtable")
!61 = !DIDerivedType(tag: DW_TAG_pointer_type, name: "&usize", baseType: !53, size: 64, align: 64, dwarfAddressSpace: 0)
!62 = distinct !DICompileUnit(language: DW_LANG_Rust, file: !63, producer: "clang LLVM (rustc version 1.51.0 (2fd73fabe 2021-03-23))", isOptimized: false, runtimeVersion: 0, emissionKind: FullDebug, enums: !28)
!63 = !DIFile(filename: "/home/ubuntu/.cargo/registry/src/github.com-1ecc6299db9ec823/cty-0.2.2/src/lib.rs", directory: "/home/ubuntu/container-data/fact/target/debug/deps")
!64 = distinct !DICompileUnit(language: DW_LANG_Rust, file: !65, producer: "clang LLVM (rustc version 1.51.0 (2fd73fabe 2021-03-23))", isOptimized: false, runtimeVersion: 0, emissionKind: FullDebug, enums: !28)
!65 = !DIFile(filename: "/home/ubuntu/.cargo/git/checkouts/klee-sys-7ee2aa8a1a6bbc46/9f462cc/src/lib.rs", directory: "/home/ubuntu/container-data/container-data/fact/target/debug/deps")
!66 = distinct !DICompileUnit(language: DW_LANG_Rust, file: !67, producer: "clang LLVM (rustc version 1.51.0 (2fd73fabe 2021-03-23))", isOptimized: false, runtimeVersion: 0, emissionKind: FullDebug, enums: !68, globals: !90)
!67 = !DIFile(filename: "/home/ubuntu/.cargo/registry/src/github.com-1ecc6299db9ec823/memchr-2.5.0/src/lib.rs", directory: "/home/ubuntu/container-data/fact/target/debug/deps")
!68 = !{!21, !9, !69, !32, !76, !81, !86}
!69 = !DICompositeType(tag: DW_TAG_enumeration_type, name: "Prefilter", scope: !70, file: !10, baseType: !15, size: 8, align: 8, flags: DIFlagEnumClass, elements: !73)
!70 = !DINamespace(name: "prefilter", scope: !71)
!71 = !DINamespace(name: "memmem", scope: !72)
!72 = !DINamespace(name: "memchr", scope: null)
!73 = !{!74, !75}
!74 = !DIEnumerator(name: "None", value: 0)
!75 = !DIEnumerator(name: "Auto", value: 1)
!76 = !DICompositeType(tag: DW_TAG_enumeration_type, name: "SuffixKind", scope: !77, file: !10, baseType: !15, size: 8, align: 8, flags: DIFlagEnumClass, elements: !78)
!77 = !DINamespace(name: "twoway", scope: !71)
!78 = !{!79, !80}
!79 = !DIEnumerator(name: "Minimal", value: 0)
!80 = !DIEnumerator(name: "Maximal", value: 1)
!81 = !DICompositeType(tag: DW_TAG_enumeration_type, name: "SuffixOrdering", scope: !77, file: !10, baseType: !15, size: 8, align: 8, flags: DIFlagEnumClass, elements: !82)
!82 = !{!83, !84, !85}
!83 = !DIEnumerator(name: "Accept", value: 0)
!84 = !DIEnumerator(name: "Skip", value: 1)
!85 = !DIEnumerator(name: "Push", value: 2)
!86 = !DICompositeType(tag: DW_TAG_enumeration_type, name: "Option", scope: !87, file: !10, baseType: !15, size: 8, align: 8, flags: DIFlagEnumClass, elements: !88)
!87 = !DINamespace(name: "option", scope: !14)
!88 = !{!74, !89}
!89 = !DIEnumerator(name: "Some", value: 1)
!90 = !{!91, !95, !147, !149, !157, !161, !165, !169, !194, !198, !202, !206, !211, !220, !224, !288, !317, !321, !325, !329, !336, !340, !343, !347, !351, !355, !359, !363, !367, !371, !375, !379}
!91 = !DIGlobalVariableExpression(var: !92, expr: !DIExpression())
!92 = distinct !DIGlobalVariable(name: "vtable", scope: null, file: !10, type: !93, isLocal: true, isDefinition: true)
!93 = !DICompositeType(tag: DW_TAG_structure_type, name: "vtable", file: !10, align: 64, flags: DIFlagArtificial, elements: !28, vtableHolder: !94, identifier: "vtable")
!94 = !DIDerivedType(tag: DW_TAG_pointer_type, name: "&u8", baseType: !15, size: 64, align: 64, dwarfAddressSpace: 0)
!95 = !DIGlobalVariableExpression(var: !96, expr: !DIExpression())
!96 = distinct !DIGlobalVariable(name: "vtable", scope: null, file: !10, type: !97, isLocal: true, isDefinition: true)
!97 = !DICompositeType(tag: DW_TAG_structure_type, name: "vtable", file: !10, align: 64, flags: DIFlagArtificial, elements: !28, vtableHolder: !98, identifier: "vtable")
!98 = !DIDerivedType(tag: DW_TAG_pointer_type, name: "&memchr::memmem::prefilter::PrefilterFn", baseType: !99, size: 64, align: 64, dwarfAddressSpace: 0)
!99 = !DICompositeType(tag: DW_TAG_structure_type, name: "PrefilterFn", scope: !70, file: !10, size: 64, align: 64, elements: !100, templateParams: !28, identifier: "fd07ce860b35c48843c0eb5698cc8fd9")
!100 = !{!101}
!101 = !DIDerivedType(tag: DW_TAG_member, name: "__0", scope: !99, file: !10, baseType: !102, size: 64, align: 64)
!102 = !DIDerivedType(tag: DW_TAG_pointer_type, name: "unsafe fn(&mut memchr::memmem::prefilter::PrefilterState, &memchr::memmem::NeedleInfo, &[u8], &[u8]) -> core::option::Option<usize>", baseType: !103, size: 64, align: 64, dwarfAddressSpace: 0)
!103 = !DISubroutineType(types: !104)
!104 = !{!105, !118, !124, !142, !142}
!105 = !DICompositeType(tag: DW_TAG_structure_type, name: "Option<usize>", scope: !87, file: !10, size: 128, align: 64, elements: !106, identifier: "9332858134cb740a2a89b17fc22aeac2")
!106 = !{!107}
!107 = !DICompositeType(tag: DW_TAG_variant_part, scope: !87, file: !10, size: 128, align: 64, elements: !108, templateParams: !111, identifier: "9332858134cb740a2a89b17fc22aeac2_variant_part", discriminator: !117)
!108 = !{!109, !113}
!109 = !DIDerivedType(tag: DW_TAG_member, name: "None", scope: !107, file: !10, baseType: !110, size: 128, align: 64, extraData: i64 0)
!110 = !DICompositeType(tag: DW_TAG_structure_type, name: "None", scope: !105, file: !10, size: 128, align: 64, elements: !28, templateParams: !111, identifier: "9332858134cb740a2a89b17fc22aeac2::None")
!111 = !{!112}
!112 = !DITemplateTypeParameter(name: "T", type: !53)
!113 = !DIDerivedType(tag: DW_TAG_member, name: "Some", scope: !107, file: !10, baseType: !114, size: 128, align: 64, extraData: i64 1)
!114 = !DICompositeType(tag: DW_TAG_structure_type, name: "Some", scope: !105, file: !10, size: 128, align: 64, elements: !115, templateParams: !111, identifier: "9332858134cb740a2a89b17fc22aeac2::Some")
!115 = !{!116}
!116 = !DIDerivedType(tag: DW_TAG_member, name: "__0", scope: !114, file: !10, baseType: !53, size: 64, align: 64, offset: 64)
!117 = !DIDerivedType(tag: DW_TAG_member, scope: !87, file: !10, baseType: !57, size: 64, align: 64, flags: DIFlagArtificial)
!118 = !DIDerivedType(tag: DW_TAG_pointer_type, name: "&mut memchr::memmem::prefilter::PrefilterState", baseType: !119, size: 64, align: 64, dwarfAddressSpace: 0)
!119 = !DICompositeType(tag: DW_TAG_structure_type, name: "PrefilterState", scope: !70, file: !10, size: 64, align: 32, elements: !120, templateParams: !28, identifier: "bbd8f00e63457a1f36453a76769a291")
!120 = !{!121, !123}
!121 = !DIDerivedType(tag: DW_TAG_member, name: "skips", scope: !119, file: !10, baseType: !122, size: 32, align: 32)
!122 = !DIBasicType(name: "u32", size: 32, encoding: DW_ATE_unsigned)
!123 = !DIDerivedType(tag: DW_TAG_member, name: "skipped", scope: !119, file: !10, baseType: !122, size: 32, align: 32, offset: 32)
!124 = !DIDerivedType(tag: DW_TAG_pointer_type, name: "&memchr::memmem::NeedleInfo", baseType: !125, size: 64, align: 64, dwarfAddressSpace: 0)
!125 = !DICompositeType(tag: DW_TAG_structure_type, name: "NeedleInfo", scope: !71, file: !10, size: 96, align: 32, elements: !126, templateParams: !28, identifier: "5af3f5f64479f07eeaefa4fa4ef8cc07")
!126 = !{!127, !133}
!127 = !DIDerivedType(tag: DW_TAG_member, name: "rarebytes", scope: !125, file: !10, baseType: !128, size: 16, align: 8, offset: 64)
!128 = !DICompositeType(tag: DW_TAG_structure_type, name: "RareNeedleBytes", scope: !129, file: !10, size: 16, align: 8, elements: !130, templateParams: !28, identifier: "568e7544adcdca1b4e0d1c2b2b58b314")
!129 = !DINamespace(name: "rarebytes", scope: !71)
!130 = !{!131, !132}
!131 = !DIDerivedType(tag: DW_TAG_member, name: "rare1i", scope: !128, file: !10, baseType: !15, size: 8, align: 8)
!132 = !DIDerivedType(tag: DW_TAG_member, name: "rare2i", scope: !128, file: !10, baseType: !15, size: 8, align: 8, offset: 8)
!133 = !DIDerivedType(tag: DW_TAG_member, name: "nhash", scope: !125, file: !10, baseType: !134, size: 64, align: 32)
!134 = !DICompositeType(tag: DW_TAG_structure_type, name: "NeedleHash", scope: !135, file: !10, size: 64, align: 32, elements: !136, templateParams: !28, identifier: "aab7f68e2b084fff376838cc49597435")
!135 = !DINamespace(name: "rabinkarp", scope: !71)
!136 = !{!137, !141}
!137 = !DIDerivedType(tag: DW_TAG_member, name: "hash", scope: !134, file: !10, baseType: !138, size: 32, align: 32)
!138 = !DICompositeType(tag: DW_TAG_structure_type, name: "Hash", scope: !135, file: !10, size: 32, align: 32, elements: !139, templateParams: !28, identifier: "7738aab847299922dc982a6a7a1ca931")
!139 = !{!140}
!140 = !DIDerivedType(tag: DW_TAG_member, name: "__0", scope: !138, file: !10, baseType: !122, size: 32, align: 32)
!141 = !DIDerivedType(tag: DW_TAG_member, name: "hash_2pow", scope: !134, file: !10, baseType: !122, size: 32, align: 32, offset: 32)
!142 = !DICompositeType(tag: DW_TAG_structure_type, name: "&[u8]", file: !10, size: 128, align: 64, elements: !143, templateParams: !28, identifier: "585202bcfc7dfd1dd72e8befe2491ee4")
!143 = !{!144, !146}
!144 = !DIDerivedType(tag: DW_TAG_member, name: "data_ptr", scope: !142, file: !10, baseType: !145, size: 64, align: 64)
!145 = !DIDerivedType(tag: DW_TAG_pointer_type, name: "*const u8", baseType: !15, size: 64, align: 64, dwarfAddressSpace: 0)
!146 = !DIDerivedType(tag: DW_TAG_member, name: "length", scope: !142, file: !10, baseType: !53, size: 64, align: 64, offset: 64)
!147 = !DIGlobalVariableExpression(var: !148, expr: !DIExpression())
!148 = distinct !DIGlobalVariable(name: "vtable", scope: null, file: !10, type: !60, isLocal: true, isDefinition: true)
!149 = !DIGlobalVariableExpression(var: !150, expr: !DIExpression())
!150 = distinct !DIGlobalVariable(name: "vtable", scope: null, file: !10, type: !151, isLocal: true, isDefinition: true)
!151 = !DICompositeType(tag: DW_TAG_structure_type, name: "vtable", file: !10, align: 64, flags: DIFlagArtificial, elements: !28, vtableHolder: !152, identifier: "vtable")
!152 = !DIDerivedType(tag: DW_TAG_pointer_type, name: "&memchr::cow::Imp", baseType: !153, size: 64, align: 64, dwarfAddressSpace: 0)
!153 = !DICompositeType(tag: DW_TAG_structure_type, name: "Imp", scope: !154, file: !10, size: 128, align: 64, elements: !155, templateParams: !28, identifier: "58ced11b3de798ddba581718ea61006d")
!154 = !DINamespace(name: "cow", scope: !72)
!155 = !{!156}
!156 = !DIDerivedType(tag: DW_TAG_member, name: "__0", scope: !153, file: !10, baseType: !142, size: 128, align: 64)
!157 = !DIGlobalVariableExpression(var: !158, expr: !DIExpression())
!158 = distinct !DIGlobalVariable(name: "vtable", scope: null, file: !10, type: !159, isLocal: true, isDefinition: true)
!159 = !DICompositeType(tag: DW_TAG_structure_type, name: "vtable", file: !10, align: 64, flags: DIFlagArtificial, elements: !28, vtableHolder: !160, identifier: "vtable")
!160 = !DIDerivedType(tag: DW_TAG_pointer_type, name: "&&[u8]", baseType: !142, size: 64, align: 64, dwarfAddressSpace: 0)
!161 = !DIGlobalVariableExpression(var: !162, expr: !DIExpression())
!162 = distinct !DIGlobalVariable(name: "vtable", scope: null, file: !10, type: !163, isLocal: true, isDefinition: true)
!163 = !DICompositeType(tag: DW_TAG_structure_type, name: "vtable", file: !10, align: 64, flags: DIFlagArtificial, elements: !28, vtableHolder: !164, identifier: "vtable")
!164 = !DIDerivedType(tag: DW_TAG_pointer_type, name: "&u32", baseType: !122, size: 64, align: 64, dwarfAddressSpace: 0)
!165 = !DIGlobalVariableExpression(var: !166, expr: !DIExpression())
!166 = distinct !DIGlobalVariable(name: "vtable", scope: null, file: !10, type: !167, isLocal: true, isDefinition: true)
!167 = !DICompositeType(tag: DW_TAG_structure_type, name: "vtable", file: !10, align: 64, flags: DIFlagArtificial, elements: !28, vtableHolder: !168, identifier: "vtable")
!168 = !DIDerivedType(tag: DW_TAG_pointer_type, name: "&memchr::memmem::rabinkarp::Hash", baseType: !138, size: 64, align: 64, dwarfAddressSpace: 0)
!169 = !DIGlobalVariableExpression(var: !170, expr: !DIExpression())
!170 = distinct !DIGlobalVariable(name: "vtable", scope: null, file: !10, type: !171, isLocal: true, isDefinition: true)
!171 = !DICompositeType(tag: DW_TAG_structure_type, name: "vtable", file: !10, align: 64, flags: DIFlagArtificial, elements: !28, vtableHolder: !172, identifier: "vtable")
!172 = !DIDerivedType(tag: DW_TAG_pointer_type, name: "&memchr::memmem::twoway::TwoWay", baseType: !173, size: 64, align: 64, dwarfAddressSpace: 0)
!173 = !DICompositeType(tag: DW_TAG_structure_type, name: "TwoWay", scope: !77, file: !10, size: 256, align: 64, elements: !174, templateParams: !28, identifier: "23b0621eed33b04d7b5b8a2cc51f1e8b")
!174 = !{!175, !179, !180}
!175 = !DIDerivedType(tag: DW_TAG_member, name: "byteset", scope: !173, file: !10, baseType: !176, size: 64, align: 64)
!176 = !DICompositeType(tag: DW_TAG_structure_type, name: "ApproximateByteSet", scope: !77, file: !10, size: 64, align: 64, elements: !177, templateParams: !28, identifier: "2d83ca49d78cf4c98c923c9c75035836")
!177 = !{!178}
!178 = !DIDerivedType(tag: DW_TAG_member, name: "__0", scope: !176, file: !10, baseType: !57, size: 64, align: 64)
!179 = !DIDerivedType(tag: DW_TAG_member, name: "critical_pos", scope: !173, file: !10, baseType: !53, size: 64, align: 64, offset: 64)
!180 = !DIDerivedType(tag: DW_TAG_member, name: "shift", scope: !173, file: !10, baseType: !181, size: 128, align: 64, offset: 128)
!181 = !DICompositeType(tag: DW_TAG_structure_type, name: "Shift", scope: !77, file: !10, size: 128, align: 64, elements: !182, identifier: "a2ed7bfc3d2c76de60c1f3753ca9431b")
!182 = !{!183}
!183 = !DICompositeType(tag: DW_TAG_variant_part, scope: !77, file: !10, size: 128, align: 64, elements: !184, templateParams: !28, identifier: "a2ed7bfc3d2c76de60c1f3753ca9431b_variant_part", discriminator: !193)
!184 = !{!185, !189}
!185 = !DIDerivedType(tag: DW_TAG_member, name: "Small", scope: !183, file: !10, baseType: !186, size: 128, align: 64, extraData: i64 0)
!186 = !DICompositeType(tag: DW_TAG_structure_type, name: "Small", scope: !181, file: !10, size: 128, align: 64, elements: !187, templateParams: !28, identifier: "a2ed7bfc3d2c76de60c1f3753ca9431b::Small")
!187 = !{!188}
!188 = !DIDerivedType(tag: DW_TAG_member, name: "period", scope: !186, file: !10, baseType: !53, size: 64, align: 64, offset: 64)
!189 = !DIDerivedType(tag: DW_TAG_member, name: "Large", scope: !183, file: !10, baseType: !190, size: 128, align: 64, extraData: i64 1)
!190 = !DICompositeType(tag: DW_TAG_structure_type, name: "Large", scope: !181, file: !10, size: 128, align: 64, elements: !191, templateParams: !28, identifier: "a2ed7bfc3d2c76de60c1f3753ca9431b::Large")
!191 = !{!192}
!192 = !DIDerivedType(tag: DW_TAG_member, name: "shift", scope: !190, file: !10, baseType: !53, size: 64, align: 64, offset: 64)
!193 = !DIDerivedType(tag: DW_TAG_member, scope: !77, file: !10, baseType: !57, size: 64, align: 64, flags: DIFlagArtificial)
!194 = !DIGlobalVariableExpression(var: !195, expr: !DIExpression())
!195 = distinct !DIGlobalVariable(name: "vtable", scope: null, file: !10, type: !196, isLocal: true, isDefinition: true)
!196 = !DICompositeType(tag: DW_TAG_structure_type, name: "vtable", file: !10, align: 64, flags: DIFlagArtificial, elements: !28, vtableHolder: !197, identifier: "vtable")
!197 = !DIDerivedType(tag: DW_TAG_pointer_type, name: "&memchr::memmem::twoway::ApproximateByteSet", baseType: !176, size: 64, align: 64, dwarfAddressSpace: 0)
!198 = !DIGlobalVariableExpression(var: !199, expr: !DIExpression())
!199 = distinct !DIGlobalVariable(name: "vtable", scope: null, file: !10, type: !200, isLocal: true, isDefinition: true)
!200 = !DICompositeType(tag: DW_TAG_structure_type, name: "vtable", file: !10, align: 64, flags: DIFlagArtificial, elements: !28, vtableHolder: !201, identifier: "vtable")
!201 = !DIDerivedType(tag: DW_TAG_pointer_type, name: "&memchr::memmem::twoway::Shift", baseType: !181, size: 64, align: 64, dwarfAddressSpace: 0)
!202 = !DIGlobalVariableExpression(var: !203, expr: !DIExpression())
!203 = distinct !DIGlobalVariable(name: "vtable", scope: null, file: !10, type: !204, isLocal: true, isDefinition: true)
!204 = !DICompositeType(tag: DW_TAG_structure_type, name: "vtable", file: !10, align: 64, flags: DIFlagArtificial, elements: !28, vtableHolder: !205, identifier: "vtable")
!205 = !DIDerivedType(tag: DW_TAG_pointer_type, name: "&u64", baseType: !57, size: 64, align: 64, dwarfAddressSpace: 0)
!206 = !DIGlobalVariableExpression(var: !207, expr: !DIExpression())
!207 = distinct !DIGlobalVariable(name: "vtable", scope: null, file: !10, type: !208, isLocal: true, isDefinition: true)
!208 = !DICompositeType(tag: DW_TAG_structure_type, name: "vtable", file: !10, align: 64, flags: DIFlagArtificial, elements: !28, vtableHolder: !209, identifier: "vtable")
!209 = !DIDerivedType(tag: DW_TAG_pointer_type, name: "&()", baseType: !210, size: 64, align: 64, dwarfAddressSpace: 0)
!210 = !DIBasicType(name: "()", encoding: DW_ATE_unsigned)
!211 = !DIGlobalVariableExpression(var: !212, expr: !DIExpression())
!212 = distinct !DIGlobalVariable(name: "vtable", scope: null, file: !10, type: !213, isLocal: true, isDefinition: true)
!213 = !DICompositeType(tag: DW_TAG_structure_type, name: "vtable", file: !10, align: 64, flags: DIFlagArtificial, elements: !28, vtableHolder: !214, identifier: "vtable")
!214 = !DIDerivedType(tag: DW_TAG_pointer_type, name: "&memchr::memmem::genericsimd::Forward", baseType: !215, size: 64, align: 64, dwarfAddressSpace: 0)
!215 = !DICompositeType(tag: DW_TAG_structure_type, name: "Forward", scope: !216, file: !10, size: 16, align: 8, elements: !217, templateParams: !28, identifier: "c51590305f9bddbefd6beaf83f340641")
!216 = !DINamespace(name: "genericsimd", scope: !71)
!217 = !{!218, !219}
!218 = !DIDerivedType(tag: DW_TAG_member, name: "rare1i", scope: !215, file: !10, baseType: !15, size: 8, align: 8)
!219 = !DIDerivedType(tag: DW_TAG_member, name: "rare2i", scope: !215, file: !10, baseType: !15, size: 8, align: 8, offset: 8)
!220 = !DIGlobalVariableExpression(var: !221, expr: !DIExpression())
!221 = distinct !DIGlobalVariable(name: "vtable", scope: null, file: !10, type: !222, isLocal: true, isDefinition: true)
!222 = !DICompositeType(tag: DW_TAG_structure_type, name: "vtable", file: !10, align: 64, flags: DIFlagArtificial, elements: !28, vtableHolder: !223, identifier: "vtable")
!223 = !DIDerivedType(tag: DW_TAG_pointer_type, name: "&memchr::memmem::prefilter::PrefilterState", baseType: !119, size: 64, align: 64, dwarfAddressSpace: 0)
!224 = !DIGlobalVariableExpression(var: !225, expr: !DIExpression())
!225 = distinct !DIGlobalVariable(name: "vtable", scope: null, file: !10, type: !226, isLocal: true, isDefinition: true)
!226 = !DICompositeType(tag: DW_TAG_structure_type, name: "vtable", file: !10, align: 64, flags: DIFlagArtificial, elements: !28, vtableHolder: !227, identifier: "vtable")
!227 = !DIDerivedType(tag: DW_TAG_pointer_type, name: "&memchr::memmem::Finder", baseType: !228, size: 64, align: 64, dwarfAddressSpace: 0)
!228 = !DICompositeType(tag: DW_TAG_structure_type, name: "Finder", scope: !71, file: !10, size: 640, align: 64, elements: !229, templateParams: !28, identifier: "1a12c4e35cd74fe35d8bf89955d677c1")
!229 = !{!230}
!230 = !DIDerivedType(tag: DW_TAG_member, name: "searcher", scope: !228, file: !10, baseType: !231, size: 640, align: 64)
!231 = !DICompositeType(tag: DW_TAG_structure_type, name: "Searcher", scope: !71, file: !10, size: 640, align: 64, elements: !232, templateParams: !28, identifier: "188dadce0556bb401fa60c478397a29")
!232 = !{!233, !237, !238, !251}
!233 = !DIDerivedType(tag: DW_TAG_member, name: "needle", scope: !231, file: !10, baseType: !234, size: 128, align: 64)
!234 = !DICompositeType(tag: DW_TAG_structure_type, name: "CowBytes", scope: !154, file: !10, size: 128, align: 64, elements: !235, templateParams: !28, identifier: "50f7d608f4362a9aca35dfc0d50a3b8a")
!235 = !{!236}
!236 = !DIDerivedType(tag: DW_TAG_member, name: "__0", scope: !234, file: !10, baseType: !153, size: 128, align: 64)
!237 = !DIDerivedType(tag: DW_TAG_member, name: "ninfo", scope: !231, file: !10, baseType: !125, size: 96, align: 32, offset: 512)
!238 = !DIDerivedType(tag: DW_TAG_member, name: "prefn", scope: !231, file: !10, baseType: !239, size: 64, align: 64, offset: 128)
!239 = !DICompositeType(tag: DW_TAG_structure_type, name: "Option<memchr::memmem::prefilter::PrefilterFn>", scope: !87, file: !10, size: 64, align: 64, elements: !240, identifier: "3475fe56114027c5c80fb701c8101574")
!240 = !{!241}
!241 = !DICompositeType(tag: DW_TAG_variant_part, scope: !87, file: !10, size: 64, align: 64, elements: !242, templateParams: !245, identifier: "3475fe56114027c5c80fb701c8101574_variant_part", discriminator: !117)
!242 = !{!243, !247}
!243 = !DIDerivedType(tag: DW_TAG_member, name: "None", scope: !241, file: !10, baseType: !244, size: 64, align: 64, extraData: i64 0)
!244 = !DICompositeType(tag: DW_TAG_structure_type, name: "None", scope: !239, file: !10, size: 64, align: 64, elements: !28, templateParams: !245, identifier: "3475fe56114027c5c80fb701c8101574::None")
!245 = !{!246}
!246 = !DITemplateTypeParameter(name: "T", type: !99)
!247 = !DIDerivedType(tag: DW_TAG_member, name: "Some", scope: !241, file: !10, baseType: !248, size: 64, align: 64)
!248 = !DICompositeType(tag: DW_TAG_structure_type, name: "Some", scope: !239, file: !10, size: 64, align: 64, elements: !249, templateParams: !245, identifier: "3475fe56114027c5c80fb701c8101574::Some")
!249 = !{!250}
!250 = !DIDerivedType(tag: DW_TAG_member, name: "__0", scope: !248, file: !10, baseType: !99, size: 64, align: 64)
!251 = !DIDerivedType(tag: DW_TAG_member, name: "kind", scope: !231, file: !10, baseType: !252, size: 320, align: 64, offset: 192)
!252 = !DICompositeType(tag: DW_TAG_structure_type, name: "SearcherKind", scope: !71, file: !10, size: 320, align: 64, elements: !253, identifier: "732e21407fe022dec1be9645a3451af2")
!253 = !{!254}
!254 = !DICompositeType(tag: DW_TAG_variant_part, scope: !71, file: !10, size: 320, align: 64, elements: !255, templateParams: !28, identifier: "732e21407fe022dec1be9645a3451af2_variant_part", discriminator: !287)
!255 = !{!256, !258, !262, !269, !278}
!256 = !DIDerivedType(tag: DW_TAG_member, name: "Empty", scope: !254, file: !10, baseType: !257, size: 320, align: 64, extraData: i64 0)
!257 = !DICompositeType(tag: DW_TAG_structure_type, name: "Empty", scope: !252, file: !10, size: 320, align: 64, elements: !28, templateParams: !28, identifier: "732e21407fe022dec1be9645a3451af2::Empty")
!258 = !DIDerivedType(tag: DW_TAG_member, name: "OneByte", scope: !254, file: !10, baseType: !259, size: 320, align: 64, extraData: i64 1)
!259 = !DICompositeType(tag: DW_TAG_structure_type, name: "OneByte", scope: !252, file: !10, size: 320, align: 64, elements: !260, templateParams: !28, identifier: "732e21407fe022dec1be9645a3451af2::OneByte")
!260 = !{!261}
!261 = !DIDerivedType(tag: DW_TAG_member, name: "__0", scope: !259, file: !10, baseType: !15, size: 8, align: 8, offset: 8)
!262 = !DIDerivedType(tag: DW_TAG_member, name: "TwoWay", scope: !254, file: !10, baseType: !263, size: 320, align: 64, extraData: i64 2)
!263 = !DICompositeType(tag: DW_TAG_structure_type, name: "TwoWay", scope: !252, file: !10, size: 320, align: 64, elements: !264, templateParams: !28, identifier: "732e21407fe022dec1be9645a3451af2::TwoWay")
!264 = !{!265}
!265 = !DIDerivedType(tag: DW_TAG_member, name: "__0", scope: !263, file: !10, baseType: !266, size: 256, align: 64, offset: 64)
!266 = !DICompositeType(tag: DW_TAG_structure_type, name: "Forward", scope: !77, file: !10, size: 256, align: 64, elements: !267, templateParams: !28, identifier: "395fa51d4b607ac6198d875f07048a01")
!267 = !{!268}
!268 = !DIDerivedType(tag: DW_TAG_member, name: "__0", scope: !266, file: !10, baseType: !173, size: 256, align: 64)
!269 = !DIDerivedType(tag: DW_TAG_member, name: "GenericSIMD128", scope: !254, file: !10, baseType: !270, size: 320, align: 64, extraData: i64 3)
!270 = !DICompositeType(tag: DW_TAG_structure_type, name: "GenericSIMD128", scope: !252, file: !10, size: 320, align: 64, elements: !271, templateParams: !28, identifier: "732e21407fe022dec1be9645a3451af2::GenericSIMD128")
!271 = !{!272}
!272 = !DIDerivedType(tag: DW_TAG_member, name: "__0", scope: !270, file: !10, baseType: !273, size: 16, align: 8, offset: 8)
!273 = !DICompositeType(tag: DW_TAG_structure_type, name: "Forward", scope: !274, file: !10, size: 16, align: 8, elements: !276, templateParams: !28, identifier: "47f556755122c256a3ed97946f105192")
!274 = !DINamespace(name: "sse", scope: !275)
!275 = !DINamespace(name: "x86", scope: !71)
!276 = !{!277}
!277 = !DIDerivedType(tag: DW_TAG_member, name: "__0", scope: !273, file: !10, baseType: !215, size: 16, align: 8)
!278 = !DIDerivedType(tag: DW_TAG_member, name: "GenericSIMD256", scope: !254, file: !10, baseType: !279, size: 320, align: 64, extraData: i64 4)
!279 = !DICompositeType(tag: DW_TAG_structure_type, name: "GenericSIMD256", scope: !252, file: !10, size: 320, align: 64, elements: !280, templateParams: !28, identifier: "732e21407fe022dec1be9645a3451af2::GenericSIMD256")
!280 = !{!281}
!281 = !DIDerivedType(tag: DW_TAG_member, name: "__0", scope: !279, file: !10, baseType: !282, align: 8, offset: 8)
!282 = !DICompositeType(tag: DW_TAG_structure_type, name: "Forward", scope: !283, file: !10, align: 8, elements: !285, templateParams: !28, identifier: "f38f341551991a61464cbbeb683c7a2")
!283 = !DINamespace(name: "nostd", scope: !284)
!284 = !DINamespace(name: "avx", scope: !275)
!285 = !{!286}
!286 = !DIDerivedType(tag: DW_TAG_member, name: "__0", scope: !282, file: !10, baseType: !210, align: 8)
!287 = !DIDerivedType(tag: DW_TAG_member, scope: !71, file: !10, baseType: !15, size: 8, align: 8, flags: DIFlagArtificial)
!288 = !DIGlobalVariableExpression(var: !289, expr: !DIExpression())
!289 = distinct !DIGlobalVariable(name: "vtable", scope: null, file: !10, type: !290, isLocal: true, isDefinition: true)
!290 = !DICompositeType(tag: DW_TAG_structure_type, name: "vtable", file: !10, align: 64, flags: DIFlagArtificial, elements: !28, vtableHolder: !291, identifier: "vtable")
!291 = !DIDerivedType(tag: DW_TAG_pointer_type, name: "&memchr::memmem::FinderRev", baseType: !292, size: 64, align: 64, dwarfAddressSpace: 0)
!292 = !DICompositeType(tag: DW_TAG_structure_type, name: "FinderRev", scope: !71, file: !10, size: 512, align: 64, elements: !293, templateParams: !28, identifier: "82cd98a697658b93278e58c11f874c57")
!293 = !{!294}
!294 = !DIDerivedType(tag: DW_TAG_member, name: "searcher", scope: !292, file: !10, baseType: !295, size: 512, align: 64)
!295 = !DICompositeType(tag: DW_TAG_structure_type, name: "SearcherRev", scope: !71, file: !10, size: 512, align: 64, elements: !296, templateParams: !28, identifier: "a5a703a4c6e170542cef61d83ff4491")
!296 = !{!297, !298, !299}
!297 = !DIDerivedType(tag: DW_TAG_member, name: "needle", scope: !295, file: !10, baseType: !234, size: 128, align: 64)
!298 = !DIDerivedType(tag: DW_TAG_member, name: "nhash", scope: !295, file: !10, baseType: !134, size: 64, align: 32, offset: 448)
!299 = !DIDerivedType(tag: DW_TAG_member, name: "kind", scope: !295, file: !10, baseType: !300, size: 320, align: 64, offset: 128)
!300 = !DICompositeType(tag: DW_TAG_structure_type, name: "SearcherRevKind", scope: !71, file: !10, size: 320, align: 64, elements: !301, identifier: "4933a06c2907d5357b9bbcf407b3c56")
!301 = !{!302}
!302 = !DICompositeType(tag: DW_TAG_variant_part, scope: !71, file: !10, size: 320, align: 64, elements: !303, templateParams: !28, identifier: "4933a06c2907d5357b9bbcf407b3c56_variant_part", discriminator: !287)
!303 = !{!304, !306, !310}
!304 = !DIDerivedType(tag: DW_TAG_member, name: "Empty", scope: !302, file: !10, baseType: !305, size: 320, align: 64, extraData: i64 0)
!305 = !DICompositeType(tag: DW_TAG_structure_type, name: "Empty", scope: !300, file: !10, size: 320, align: 64, elements: !28, templateParams: !28, identifier: "4933a06c2907d5357b9bbcf407b3c56::Empty")
!306 = !DIDerivedType(tag: DW_TAG_member, name: "OneByte", scope: !302, file: !10, baseType: !307, size: 320, align: 64, extraData: i64 1)
!307 = !DICompositeType(tag: DW_TAG_structure_type, name: "OneByte", scope: !300, file: !10, size: 320, align: 64, elements: !308, templateParams: !28, identifier: "4933a06c2907d5357b9bbcf407b3c56::OneByte")
!308 = !{!309}
!309 = !DIDerivedType(tag: DW_TAG_member, name: "__0", scope: !307, file: !10, baseType: !15, size: 8, align: 8, offset: 8)
!310 = !DIDerivedType(tag: DW_TAG_member, name: "TwoWay", scope: !302, file: !10, baseType: !311, size: 320, align: 64, extraData: i64 2)
!311 = !DICompositeType(tag: DW_TAG_structure_type, name: "TwoWay", scope: !300, file: !10, size: 320, align: 64, elements: !312, templateParams: !28, identifier: "4933a06c2907d5357b9bbcf407b3c56::TwoWay")
!312 = !{!313}
!313 = !DIDerivedType(tag: DW_TAG_member, name: "__0", scope: !311, file: !10, baseType: !314, size: 256, align: 64, offset: 64)
!314 = !DICompositeType(tag: DW_TAG_structure_type, name: "Reverse", scope: !77, file: !10, size: 256, align: 64, elements: !315, templateParams: !28, identifier: "949d1e5f08421882cb1fc2d8be09b5e5")
!315 = !{!316}
!316 = !DIDerivedType(tag: DW_TAG_member, name: "__0", scope: !314, file: !10, baseType: !173, size: 256, align: 64)
!317 = !DIGlobalVariableExpression(var: !318, expr: !DIExpression())
!318 = distinct !DIGlobalVariable(name: "vtable", scope: null, file: !10, type: !319, isLocal: true, isDefinition: true)
!319 = !DICompositeType(tag: DW_TAG_structure_type, name: "vtable", file: !10, align: 64, flags: DIFlagArtificial, elements: !28, vtableHolder: !320, identifier: "vtable")
!320 = !DIDerivedType(tag: DW_TAG_pointer_type, name: "&core::option::Option<usize>", baseType: !105, size: 64, align: 64, dwarfAddressSpace: 0)
!321 = !DIGlobalVariableExpression(var: !322, expr: !DIExpression())
!322 = distinct !DIGlobalVariable(name: "vtable", scope: null, file: !10, type: !323, isLocal: true, isDefinition: true)
!323 = !DICompositeType(tag: DW_TAG_structure_type, name: "vtable", file: !10, align: 64, flags: DIFlagArtificial, elements: !28, vtableHolder: !324, identifier: "vtable")
!324 = !DIDerivedType(tag: DW_TAG_pointer_type, name: "&memchr::memmem::Searcher", baseType: !231, size: 64, align: 64, dwarfAddressSpace: 0)
!325 = !DIGlobalVariableExpression(var: !326, expr: !DIExpression())
!326 = distinct !DIGlobalVariable(name: "vtable", scope: null, file: !10, type: !327, isLocal: true, isDefinition: true)
!327 = !DICompositeType(tag: DW_TAG_structure_type, name: "vtable", file: !10, align: 64, flags: DIFlagArtificial, elements: !28, vtableHolder: !328, identifier: "vtable")
!328 = !DIDerivedType(tag: DW_TAG_pointer_type, name: "&memchr::memmem::SearcherRev", baseType: !295, size: 64, align: 64, dwarfAddressSpace: 0)
!329 = !DIGlobalVariableExpression(var: !330, expr: !DIExpression())
!330 = distinct !DIGlobalVariable(name: "vtable", scope: null, file: !10, type: !331, isLocal: true, isDefinition: true)
!331 = !DICompositeType(tag: DW_TAG_structure_type, name: "vtable", file: !10, align: 64, flags: DIFlagArtificial, elements: !28, vtableHolder: !332, identifier: "vtable")
!332 = !DIDerivedType(tag: DW_TAG_pointer_type, name: "&memchr::memmem::SearcherConfig", baseType: !333, size: 64, align: 64, dwarfAddressSpace: 0)
!333 = !DICompositeType(tag: DW_TAG_structure_type, name: "SearcherConfig", scope: !71, file: !10, size: 8, align: 8, elements: !334, templateParams: !28, identifier: "cb825a6e9614268a836c3409dbc83fa5")
!334 = !{!335}
!335 = !DIDerivedType(tag: DW_TAG_member, name: "prefilter", scope: !333, file: !10, baseType: !69, size: 8, align: 8)
!336 = !DIGlobalVariableExpression(var: !337, expr: !DIExpression())
!337 = distinct !DIGlobalVariable(name: "vtable", scope: null, file: !10, type: !338, isLocal: true, isDefinition: true)
!338 = !DICompositeType(tag: DW_TAG_structure_type, name: "vtable", file: !10, align: 64, flags: DIFlagArtificial, elements: !28, vtableHolder: !339, identifier: "vtable")
!339 = !DIDerivedType(tag: DW_TAG_pointer_type, name: "&memchr::cow::CowBytes", baseType: !234, size: 64, align: 64, dwarfAddressSpace: 0)
!340 = !DIGlobalVariableExpression(var: !341, expr: !DIExpression())
!341 = distinct !DIGlobalVariable(name: "vtable", scope: null, file: !10, type: !342, isLocal: true, isDefinition: true)
!342 = !DICompositeType(tag: DW_TAG_structure_type, name: "vtable", file: !10, align: 64, flags: DIFlagArtificial, elements: !28, vtableHolder: !124, identifier: "vtable")
!343 = !DIGlobalVariableExpression(var: !344, expr: !DIExpression())
!344 = distinct !DIGlobalVariable(name: "vtable", scope: null, file: !10, type: !345, isLocal: true, isDefinition: true)
!345 = !DICompositeType(tag: DW_TAG_structure_type, name: "vtable", file: !10, align: 64, flags: DIFlagArtificial, elements: !28, vtableHolder: !346, identifier: "vtable")
!346 = !DIDerivedType(tag: DW_TAG_pointer_type, name: "&core::option::Option<memchr::memmem::prefilter::PrefilterFn>", baseType: !239, size: 64, align: 64, dwarfAddressSpace: 0)
!347 = !DIGlobalVariableExpression(var: !348, expr: !DIExpression())
!348 = distinct !DIGlobalVariable(name: "vtable", scope: null, file: !10, type: !349, isLocal: true, isDefinition: true)
!349 = !DICompositeType(tag: DW_TAG_structure_type, name: "vtable", file: !10, align: 64, flags: DIFlagArtificial, elements: !28, vtableHolder: !350, identifier: "vtable")
!350 = !DIDerivedType(tag: DW_TAG_pointer_type, name: "&memchr::memmem::SearcherKind", baseType: !252, size: 64, align: 64, dwarfAddressSpace: 0)
!351 = !DIGlobalVariableExpression(var: !352, expr: !DIExpression())
!352 = distinct !DIGlobalVariable(name: "vtable", scope: null, file: !10, type: !353, isLocal: true, isDefinition: true)
!353 = !DICompositeType(tag: DW_TAG_structure_type, name: "vtable", file: !10, align: 64, flags: DIFlagArtificial, elements: !28, vtableHolder: !354, identifier: "vtable")
!354 = !DIDerivedType(tag: DW_TAG_pointer_type, name: "&memchr::memmem::rarebytes::RareNeedleBytes", baseType: !128, size: 64, align: 64, dwarfAddressSpace: 0)
!355 = !DIGlobalVariableExpression(var: !356, expr: !DIExpression())
!356 = distinct !DIGlobalVariable(name: "vtable", scope: null, file: !10, type: !357, isLocal: true, isDefinition: true)
!357 = !DICompositeType(tag: DW_TAG_structure_type, name: "vtable", file: !10, align: 64, flags: DIFlagArtificial, elements: !28, vtableHolder: !358, identifier: "vtable")
!358 = !DIDerivedType(tag: DW_TAG_pointer_type, name: "&memchr::memmem::rabinkarp::NeedleHash", baseType: !134, size: 64, align: 64, dwarfAddressSpace: 0)
!359 = !DIGlobalVariableExpression(var: !360, expr: !DIExpression())
!360 = distinct !DIGlobalVariable(name: "vtable", scope: null, file: !10, type: !361, isLocal: true, isDefinition: true)
!361 = !DICompositeType(tag: DW_TAG_structure_type, name: "vtable", file: !10, align: 64, flags: DIFlagArtificial, elements: !28, vtableHolder: !362, identifier: "vtable")
!362 = !DIDerivedType(tag: DW_TAG_pointer_type, name: "&memchr::memmem::prefilter::Prefilter", baseType: !69, size: 64, align: 64, dwarfAddressSpace: 0)
!363 = !DIGlobalVariableExpression(var: !364, expr: !DIExpression())
!364 = distinct !DIGlobalVariable(name: "vtable", scope: null, file: !10, type: !365, isLocal: true, isDefinition: true)
!365 = !DICompositeType(tag: DW_TAG_structure_type, name: "vtable", file: !10, align: 64, flags: DIFlagArtificial, elements: !28, vtableHolder: !366, identifier: "vtable")
!366 = !DIDerivedType(tag: DW_TAG_pointer_type, name: "&memchr::memmem::x86::avx::nostd::Forward", baseType: !282, size: 64, align: 64, dwarfAddressSpace: 0)
!367 = !DIGlobalVariableExpression(var: !368, expr: !DIExpression())
!368 = distinct !DIGlobalVariable(name: "vtable", scope: null, file: !10, type: !369, isLocal: true, isDefinition: true)
!369 = !DICompositeType(tag: DW_TAG_structure_type, name: "vtable", file: !10, align: 64, flags: DIFlagArtificial, elements: !28, vtableHolder: !370, identifier: "vtable")
!370 = !DIDerivedType(tag: DW_TAG_pointer_type, name: "&memchr::memmem::x86::sse::Forward", baseType: !273, size: 64, align: 64, dwarfAddressSpace: 0)
!371 = !DIGlobalVariableExpression(var: !372, expr: !DIExpression())
!372 = distinct !DIGlobalVariable(name: "vtable", scope: null, file: !10, type: !373, isLocal: true, isDefinition: true)
!373 = !DICompositeType(tag: DW_TAG_structure_type, name: "vtable", file: !10, align: 64, flags: DIFlagArtificial, elements: !28, vtableHolder: !374, identifier: "vtable")
!374 = !DIDerivedType(tag: DW_TAG_pointer_type, name: "&memchr::memmem::twoway::Forward", baseType: !266, size: 64, align: 64, dwarfAddressSpace: 0)
!375 = !DIGlobalVariableExpression(var: !376, expr: !DIExpression())
!376 = distinct !DIGlobalVariable(name: "vtable", scope: null, file: !10, type: !377, isLocal: true, isDefinition: true)
!377 = !DICompositeType(tag: DW_TAG_structure_type, name: "vtable", file: !10, align: 64, flags: DIFlagArtificial, elements: !28, vtableHolder: !378, identifier: "vtable")
!378 = !DIDerivedType(tag: DW_TAG_pointer_type, name: "&memchr::memmem::SearcherRevKind", baseType: !300, size: 64, align: 64, dwarfAddressSpace: 0)
!379 = !DIGlobalVariableExpression(var: !380, expr: !DIExpression())
!380 = distinct !DIGlobalVariable(name: "vtable", scope: null, file: !10, type: !381, isLocal: true, isDefinition: true)
!381 = !DICompositeType(tag: DW_TAG_structure_type, name: "vtable", file: !10, align: 64, flags: DIFlagArtificial, elements: !28, vtableHolder: !382, identifier: "vtable")
!382 = !DIDerivedType(tag: DW_TAG_pointer_type, name: "&memchr::memmem::twoway::Reverse", baseType: !314, size: 64, align: 64, dwarfAddressSpace: 0)
!383 = distinct !DICompileUnit(language: DW_LANG_Rust, file: !384, producer: "clang LLVM (rustc version 1.51.0 (2fd73fabe 2021-03-23))", isOptimized: false, runtimeVersion: 0, emissionKind: FullDebug, enums: !8)
!384 = !DIFile(filename: "/home/ubuntu/.cargo/git/checkouts/panic-klee-aa8d015442188497/3b0c897/src/lib.rs", directory: "/home/ubuntu/container-data/fact/target/debug/deps")
!385 = distinct !DICompileUnit(language: DW_LANG_Rust, file: !386, producer: "clang LLVM (rustc version 1.51.0 (2fd73fabe 2021-03-23))", isOptimized: true, runtimeVersion: 0, emissionKind: FullDebug, enums: !28)
!386 = !DIFile(filename: "library/rustc-std-workspace-core/lib.rs", directory: "/checkout/obj/build/x86_64-unknown-linux-gnu/stage1-std/x86_64-unknown-linux-gnu/release/deps")
!387 = distinct !DICompileUnit(language: DW_LANG_C99, file: !388, producer: "clang version 10.0.0-4ubuntu1 ", isOptimized: false, runtimeVersion: 0, emissionKind: FullDebug, enums: !28, splitDebugInlining: false, nameTableKind: None)
!388 = !DIFile(filename: "/home/ubuntu/klee/runtime/Freestanding/memcpy.c", directory: "/home/ubuntu/klee/build/runtime/Freestanding")
!389 = distinct !DICompileUnit(language: DW_LANG_C99, file: !390, producer: "clang version 10.0.0-4ubuntu1 ", isOptimized: false, runtimeVersion: 0, emissionKind: FullDebug, enums: !28, splitDebugInlining: false, nameTableKind: None)
!390 = !DIFile(filename: "/home/ubuntu/klee/runtime/Freestanding/memset.c", directory: "/home/ubuntu/klee/build/runtime/Freestanding")
!391 = !{!"clang version 10.0.0-4ubuntu1 "}
!392 = distinct !DISubprogram(name: "forward_unchecked", linkageName: "_ZN49_$LT$usize$u20$as$u20$core..iter..range..Step$GT$17forward_unchecked17h8b9fb1dc7c11c73cE", scope: !394, file: !393, line: 191, type: !397, scopeLine: 191, flags: DIFlagPrototyped, spFlags: DISPFlagLocalToUnit | DISPFlagDefinition, unit: !6, templateParams: !28, retainedNodes: !399)
!393 = !DIFile(filename: "/rustc/2fd73fabe469357a12c2c974c140f67e7cdd76d0/library/core/src/iter/range.rs", directory: "", checksumkind: CSK_MD5, checksum: "fe23579df17f109f3dfee33f341ff9d4")
!394 = !DINamespace(name: "{{impl}}", scope: !395)
!395 = !DINamespace(name: "range", scope: !396)
!396 = !DINamespace(name: "iter", scope: !14)
!397 = !DISubroutineType(types: !398)
!398 = !{!53, !53, !53}
!399 = !{!400, !401}
!400 = !DILocalVariable(name: "start", arg: 1, scope: !392, file: !393, line: 191, type: !53)
!401 = !DILocalVariable(name: "n", arg: 2, scope: !392, file: !393, line: 191, type: !53)
!402 = !DILocation(line: 191, column: 37, scope: !392)
!403 = !DILocation(line: 191, column: 50, scope: !392)
!404 = !DILocation(line: 193, column: 22, scope: !392)
!405 = !DILocation(line: 194, column: 10, scope: !392)
!406 = distinct !DISubprogram(name: "lt", linkageName: "_ZN4core3cmp5impls57_$LT$impl$u20$core..cmp..PartialOrd$u20$for$u20$usize$GT$2lt17hd1a65a55b9a723ccE", scope: !408, file: !407, line: 1258, type: !410, scopeLine: 1258, flags: DIFlagPrototyped, spFlags: DISPFlagLocalToUnit | DISPFlagDefinition, unit: !6, templateParams: !28, retainedNodes: !413)
!407 = !DIFile(filename: "/rustc/2fd73fabe469357a12c2c974c140f67e7cdd76d0/library/core/src/cmp.rs", directory: "", checksumkind: CSK_MD5, checksum: "216266272664f97bdd75a5a9e6b6ecd6")
!408 = !DINamespace(name: "{{impl}}", scope: !409)
!409 = !DINamespace(name: "impls", scope: !33)
!410 = !DISubroutineType(types: !411)
!411 = !{!412, !61, !61}
!412 = !DIBasicType(name: "bool", size: 8, encoding: DW_ATE_boolean)
!413 = !{!414, !415}
!414 = !DILocalVariable(name: "self", arg: 1, scope: !406, file: !407, line: 1258, type: !61)
!415 = !DILocalVariable(name: "other", arg: 2, scope: !406, file: !407, line: 1258, type: !61)
!416 = !DILocation(line: 1258, column: 23, scope: !406)
!417 = !DILocation(line: 1258, column: 30, scope: !406)
!418 = !DILocation(line: 1258, column: 52, scope: !406)
!419 = !DILocation(line: 1258, column: 62, scope: !406)
!420 = !DILocation(line: 1258, column: 72, scope: !406)
!421 = distinct !DISubprogram(name: "new_v1", linkageName: "_ZN4core3fmt9Arguments6new_v117hdff1995a1908b6f3E", scope: !423, file: !422, line: 313, type: !523, scopeLine: 313, flags: DIFlagPrototyped, spFlags: DISPFlagLocalToUnit | DISPFlagDefinition, unit: !6, templateParams: !28, retainedNodes: !525)
!422 = !DIFile(filename: "/rustc/2fd73fabe469357a12c2c974c140f67e7cdd76d0/library/core/src/fmt/mod.rs", directory: "", checksumkind: CSK_MD5, checksum: "9c2303bc954c30225b64b2e88dce24d2")
!423 = !DICompositeType(tag: DW_TAG_structure_type, name: "Arguments", scope: !13, file: !10, size: 384, align: 64, elements: !424, templateParams: !28, identifier: "1a7c27c0b75627fec59278fe321fba57")
!424 = !{!425, !435, !480}
!425 = !DIDerivedType(tag: DW_TAG_member, name: "pieces", scope: !423, file: !10, baseType: !426, size: 128, align: 64)
!426 = !DICompositeType(tag: DW_TAG_structure_type, name: "&[&str]", file: !10, size: 128, align: 64, elements: !427, templateParams: !28, identifier: "e5181a2ba73cefd2b9372dc5646453a9")
!427 = !{!428, !434}
!428 = !DIDerivedType(tag: DW_TAG_member, name: "data_ptr", scope: !426, file: !10, baseType: !429, size: 64, align: 64)
!429 = !DIDerivedType(tag: DW_TAG_pointer_type, name: "*const &str", baseType: !430, size: 64, align: 64, dwarfAddressSpace: 0)
!430 = !DICompositeType(tag: DW_TAG_structure_type, name: "&str", file: !10, size: 128, align: 64, elements: !431, templateParams: !28, identifier: "7ef2a91eecc7bcf4b4aaea2dbce79437")
!431 = !{!432, !433}
!432 = !DIDerivedType(tag: DW_TAG_member, name: "data_ptr", scope: !430, file: !10, baseType: !145, size: 64, align: 64)
!433 = !DIDerivedType(tag: DW_TAG_member, name: "length", scope: !430, file: !10, baseType: !53, size: 64, align: 64, offset: 64)
!434 = !DIDerivedType(tag: DW_TAG_member, name: "length", scope: !426, file: !10, baseType: !53, size: 64, align: 64, offset: 64)
!435 = !DIDerivedType(tag: DW_TAG_member, name: "fmt", scope: !423, file: !10, baseType: !436, size: 128, align: 64, offset: 128)
!436 = !DICompositeType(tag: DW_TAG_structure_type, name: "Option<&[core::fmt::rt::v1::Argument]>", scope: !87, file: !10, size: 128, align: 64, elements: !437, identifier: "b56d67b9b7feca2adbc2832ec8d0c46a")
!437 = !{!438}
!438 = !DICompositeType(tag: DW_TAG_variant_part, scope: !87, file: !10, size: 128, align: 64, elements: !439, templateParams: !442, identifier: "b56d67b9b7feca2adbc2832ec8d0c46a_variant_part", discriminator: !117)
!439 = !{!440, !476}
!440 = !DIDerivedType(tag: DW_TAG_member, name: "None", scope: !438, file: !10, baseType: !441, size: 128, align: 64, extraData: i64 0)
!441 = !DICompositeType(tag: DW_TAG_structure_type, name: "None", scope: !436, file: !10, size: 128, align: 64, elements: !28, templateParams: !442, identifier: "b56d67b9b7feca2adbc2832ec8d0c46a::None")
!442 = !{!443}
!443 = !DITemplateTypeParameter(name: "T", type: !444)
!444 = !DICompositeType(tag: DW_TAG_structure_type, name: "&[core::fmt::rt::v1::Argument]", file: !10, size: 128, align: 64, elements: !445, templateParams: !28, identifier: "8308f45ba37f738f58ea77e9c86e039b")
!445 = !{!446, !475}
!446 = !DIDerivedType(tag: DW_TAG_member, name: "data_ptr", scope: !444, file: !10, baseType: !447, size: 64, align: 64)
!447 = !DIDerivedType(tag: DW_TAG_pointer_type, name: "*const core::fmt::rt::v1::Argument", baseType: !448, size: 64, align: 64, dwarfAddressSpace: 0)
!448 = !DICompositeType(tag: DW_TAG_structure_type, name: "Argument", scope: !11, file: !10, size: 448, align: 64, elements: !449, templateParams: !28, identifier: "691eb57fd0c8590a95019e7601130547")
!449 = !{!450, !451}
!450 = !DIDerivedType(tag: DW_TAG_member, name: "position", scope: !448, file: !10, baseType: !53, size: 64, align: 64)
!451 = !DIDerivedType(tag: DW_TAG_member, name: "format", scope: !448, file: !10, baseType: !452, size: 384, align: 64, offset: 64)
!452 = !DICompositeType(tag: DW_TAG_structure_type, name: "FormatSpec", scope: !11, file: !10, size: 384, align: 64, elements: !453, templateParams: !28, identifier: "7d53aaf36b2d51081e1179e46fb0ab6")
!453 = !{!454, !456, !457, !458, !474}
!454 = !DIDerivedType(tag: DW_TAG_member, name: "fill", scope: !452, file: !10, baseType: !455, size: 32, align: 32, offset: 256)
!455 = !DIBasicType(name: "char", size: 32, encoding: DW_ATE_unsigned_char)
!456 = !DIDerivedType(tag: DW_TAG_member, name: "align", scope: !452, file: !10, baseType: !9, size: 8, align: 8, offset: 320)
!457 = !DIDerivedType(tag: DW_TAG_member, name: "flags", scope: !452, file: !10, baseType: !122, size: 32, align: 32, offset: 288)
!458 = !DIDerivedType(tag: DW_TAG_member, name: "precision", scope: !452, file: !10, baseType: !459, size: 128, align: 64)
!459 = !DICompositeType(tag: DW_TAG_structure_type, name: "Count", scope: !11, file: !10, size: 128, align: 64, elements: !460, identifier: "42e154d3efa76c68e7c6c9e5f44b41a2")
!460 = !{!461}
!461 = !DICompositeType(tag: DW_TAG_variant_part, scope: !11, file: !10, size: 128, align: 64, elements: !462, templateParams: !28, identifier: "42e154d3efa76c68e7c6c9e5f44b41a2_variant_part", discriminator: !473)
!462 = !{!463, !467, !471}
!463 = !DIDerivedType(tag: DW_TAG_member, name: "Is", scope: !461, file: !10, baseType: !464, size: 128, align: 64, extraData: i64 0)
!464 = !DICompositeType(tag: DW_TAG_structure_type, name: "Is", scope: !459, file: !10, size: 128, align: 64, elements: !465, templateParams: !28, identifier: "42e154d3efa76c68e7c6c9e5f44b41a2::Is")
!465 = !{!466}
!466 = !DIDerivedType(tag: DW_TAG_member, name: "__0", scope: !464, file: !10, baseType: !53, size: 64, align: 64, offset: 64)
!467 = !DIDerivedType(tag: DW_TAG_member, name: "Param", scope: !461, file: !10, baseType: !468, size: 128, align: 64, extraData: i64 1)
!468 = !DICompositeType(tag: DW_TAG_structure_type, name: "Param", scope: !459, file: !10, size: 128, align: 64, elements: !469, templateParams: !28, identifier: "42e154d3efa76c68e7c6c9e5f44b41a2::Param")
!469 = !{!470}
!470 = !DIDerivedType(tag: DW_TAG_member, name: "__0", scope: !468, file: !10, baseType: !53, size: 64, align: 64, offset: 64)
!471 = !DIDerivedType(tag: DW_TAG_member, name: "Implied", scope: !461, file: !10, baseType: !472, size: 128, align: 64, extraData: i64 2)
!472 = !DICompositeType(tag: DW_TAG_structure_type, name: "Implied", scope: !459, file: !10, size: 128, align: 64, elements: !28, templateParams: !28, identifier: "42e154d3efa76c68e7c6c9e5f44b41a2::Implied")
!473 = !DIDerivedType(tag: DW_TAG_member, scope: !11, file: !10, baseType: !57, size: 64, align: 64, flags: DIFlagArtificial)
!474 = !DIDerivedType(tag: DW_TAG_member, name: "width", scope: !452, file: !10, baseType: !459, size: 128, align: 64, offset: 128)
!475 = !DIDerivedType(tag: DW_TAG_member, name: "length", scope: !444, file: !10, baseType: !53, size: 64, align: 64, offset: 64)
!476 = !DIDerivedType(tag: DW_TAG_member, name: "Some", scope: !438, file: !10, baseType: !477, size: 128, align: 64)
!477 = !DICompositeType(tag: DW_TAG_structure_type, name: "Some", scope: !436, file: !10, size: 128, align: 64, elements: !478, templateParams: !442, identifier: "b56d67b9b7feca2adbc2832ec8d0c46a::Some")
!478 = !{!479}
!479 = !DIDerivedType(tag: DW_TAG_member, name: "__0", scope: !477, file: !10, baseType: !444, size: 128, align: 64)
!480 = !DIDerivedType(tag: DW_TAG_member, name: "args", scope: !423, file: !10, baseType: !481, size: 128, align: 64, offset: 256)
!481 = !DICompositeType(tag: DW_TAG_structure_type, name: "&[core::fmt::ArgumentV1]", file: !10, size: 128, align: 64, elements: !482, templateParams: !28, identifier: "e95cec6dff5f479c9a45e2dcffa4a08f")
!482 = !{!483, !522}
!483 = !DIDerivedType(tag: DW_TAG_member, name: "data_ptr", scope: !481, file: !10, baseType: !484, size: 64, align: 64)
!484 = !DIDerivedType(tag: DW_TAG_pointer_type, name: "*const core::fmt::ArgumentV1", baseType: !485, size: 64, align: 64, dwarfAddressSpace: 0)
!485 = !DICompositeType(tag: DW_TAG_structure_type, name: "ArgumentV1", scope: !13, file: !10, size: 128, align: 64, elements: !486, templateParams: !28, identifier: "6619fd31a8de7fb48cfbb958bcaec8fe")
!486 = !{!487, !490}
!487 = !DIDerivedType(tag: DW_TAG_member, name: "value", scope: !485, file: !10, baseType: !488, size: 64, align: 64)
!488 = !DIDerivedType(tag: DW_TAG_pointer_type, name: "&core::fmt::::Opaque", baseType: !489, size: 64, align: 64, dwarfAddressSpace: 0)
!489 = !DICompositeType(tag: DW_TAG_structure_type, name: "Opaque", file: !10, align: 8, elements: !28, identifier: "c7b909a8549e774811ca83990f5da58d")
!490 = !DIDerivedType(tag: DW_TAG_member, name: "formatter", scope: !485, file: !10, baseType: !491, size: 64, align: 64, offset: 64)
!491 = !DIDerivedType(tag: DW_TAG_pointer_type, name: "fn(&core::fmt::::Opaque, &mut core::fmt::Formatter) -> core::result::Result<(), core::fmt::Error>", baseType: !492, size: 64, align: 64, dwarfAddressSpace: 0)
!492 = !DISubroutineType(types: !493)
!493 = !{!21, !488, !494}
!494 = !DIDerivedType(tag: DW_TAG_pointer_type, name: "&mut core::fmt::Formatter", baseType: !495, size: 64, align: 64, dwarfAddressSpace: 0)
!495 = !DICompositeType(tag: DW_TAG_structure_type, name: "Formatter", scope: !13, file: !10, size: 512, align: 64, elements: !496, templateParams: !28, identifier: "d1c22cb052fcd55becb4d9e9c2761003")
!496 = !{!497, !498, !499, !500, !511, !512}
!497 = !DIDerivedType(tag: DW_TAG_member, name: "flags", scope: !495, file: !10, baseType: !122, size: 32, align: 32, offset: 384)
!498 = !DIDerivedType(tag: DW_TAG_member, name: "fill", scope: !495, file: !10, baseType: !455, size: 32, align: 32, offset: 416)
!499 = !DIDerivedType(tag: DW_TAG_member, name: "align", scope: !495, file: !10, baseType: !9, size: 8, align: 8, offset: 448)
!500 = !DIDerivedType(tag: DW_TAG_member, name: "width", scope: !495, file: !10, baseType: !501, size: 128, align: 64)
!501 = !DICompositeType(tag: DW_TAG_structure_type, name: "Option<usize>", scope: !87, file: !10, size: 128, align: 64, elements: !502, identifier: "9332858134cb740a2a89b17fc22aeac2")
!502 = !{!503}
!503 = !DICompositeType(tag: DW_TAG_variant_part, scope: !87, file: !10, size: 128, align: 64, elements: !504, templateParams: !111, identifier: "9332858134cb740a2a89b17fc22aeac2_variant_part", discriminator: !117)
!504 = !{!505, !507}
!505 = !DIDerivedType(tag: DW_TAG_member, name: "None", scope: !503, file: !10, baseType: !506, size: 128, align: 64, extraData: i64 0)
!506 = !DICompositeType(tag: DW_TAG_structure_type, name: "None", scope: !501, file: !10, size: 128, align: 64, elements: !28, templateParams: !111, identifier: "9332858134cb740a2a89b17fc22aeac2::None")
!507 = !DIDerivedType(tag: DW_TAG_member, name: "Some", scope: !503, file: !10, baseType: !508, size: 128, align: 64, extraData: i64 1)
!508 = !DICompositeType(tag: DW_TAG_structure_type, name: "Some", scope: !501, file: !10, size: 128, align: 64, elements: !509, templateParams: !111, identifier: "9332858134cb740a2a89b17fc22aeac2::Some")
!509 = !{!510}
!510 = !DIDerivedType(tag: DW_TAG_member, name: "__0", scope: !508, file: !10, baseType: !53, size: 64, align: 64, offset: 64)
!511 = !DIDerivedType(tag: DW_TAG_member, name: "precision", scope: !495, file: !10, baseType: !501, size: 128, align: 64, offset: 128)
!512 = !DIDerivedType(tag: DW_TAG_member, name: "buf", scope: !495, file: !10, baseType: !513, size: 128, align: 64, offset: 256)
!513 = !DICompositeType(tag: DW_TAG_structure_type, name: "&mut Write", scope: !13, file: !10, size: 128, align: 64, elements: !514, templateParams: !28, identifier: "110b4069ef19c710e8c916442189e601")
!514 = !{!515, !517}
!515 = !DIDerivedType(tag: DW_TAG_member, name: "pointer", scope: !513, file: !10, baseType: !516, size: 64, align: 64, flags: DIFlagArtificial)
!516 = !DIDerivedType(tag: DW_TAG_pointer_type, name: "*mut u8", baseType: !15, size: 64, align: 64, dwarfAddressSpace: 0)
!517 = !DIDerivedType(tag: DW_TAG_member, name: "vtable", scope: !513, file: !10, baseType: !518, size: 64, align: 64, offset: 64, flags: DIFlagArtificial)
!518 = !DIDerivedType(tag: DW_TAG_pointer_type, name: "&[usize; 3]", baseType: !519, size: 64, align: 64, dwarfAddressSpace: 0)
!519 = !DICompositeType(tag: DW_TAG_array_type, baseType: !53, size: 192, align: 64, elements: !520)
!520 = !{!521}
!521 = !DISubrange(count: 3)
!522 = !DIDerivedType(tag: DW_TAG_member, name: "length", scope: !481, file: !10, baseType: !53, size: 64, align: 64, offset: 64)
!523 = !DISubroutineType(types: !524)
!524 = !{!423, !426, !481}
!525 = !{!526, !527}
!526 = !DILocalVariable(name: "pieces", arg: 1, scope: !421, file: !422, line: 313, type: !426)
!527 = !DILocalVariable(name: "args", arg: 2, scope: !421, file: !422, line: 313, type: !481)
!528 = !DILocation(line: 313, column: 19, scope: !421)
!529 = !DILocation(line: 313, column: 47, scope: !421)
!530 = !DILocation(line: 314, column: 34, scope: !421)
!531 = !DILocation(line: 314, column: 9, scope: !421)
!532 = !DILocation(line: 315, column: 6, scope: !421)
!533 = distinct !DISubprogram(name: "unchecked_add", linkageName: "_ZN4core3num23_$LT$impl$u20$usize$GT$13unchecked_add17h9899d7dca507955bE", scope: !535, file: !534, line: 431, type: !397, scopeLine: 431, flags: DIFlagPrototyped, spFlags: DISPFlagLocalToUnit | DISPFlagDefinition, unit: !6, templateParams: !28, retainedNodes: !537)
!534 = !DIFile(filename: "/rustc/2fd73fabe469357a12c2c974c140f67e7cdd76d0/library/core/src/num/uint_macros.rs", directory: "", checksumkind: CSK_MD5, checksum: "5308d1208452a53e75e28bb7633fba69")
!535 = !DINamespace(name: "{{impl}}", scope: !536)
!536 = !DINamespace(name: "num", scope: !14)
!537 = !{!538, !539}
!538 = !DILocalVariable(name: "self", arg: 1, scope: !533, file: !534, line: 431, type: !53)
!539 = !DILocalVariable(name: "rhs", arg: 2, scope: !533, file: !534, line: 431, type: !53)
!540 = !DILocation(line: 431, column: 37, scope: !533)
!541 = !DILocation(line: 431, column: 43, scope: !533)
!542 = !DILocation(line: 434, column: 22, scope: !533)
!543 = !DILocation(line: 435, column: 10, scope: !533)
!544 = distinct !DISubprogram(name: "next<usize>", linkageName: "_ZN4core4iter5range101_$LT$impl$u20$core..iter..traits..iterator..Iterator$u20$for$u20$core..ops..range..Range$LT$A$GT$$GT$4next17h64554391fe200e92E", scope: !394, file: !393, line: 506, type: !545, scopeLine: 506, flags: DIFlagPrototyped, spFlags: DISPFlagLocalToUnit | DISPFlagDefinition, unit: !6, templateParams: !560, retainedNodes: !556)
!545 = !DISubroutineType(types: !546)
!546 = !{!501, !547}
!547 = !DIDerivedType(tag: DW_TAG_pointer_type, name: "&mut core::ops::range::Range<usize>", baseType: !548, size: 64, align: 64, dwarfAddressSpace: 0)
!548 = !DICompositeType(tag: DW_TAG_structure_type, name: "Range<usize>", scope: !549, file: !10, size: 128, align: 64, elements: !551, templateParams: !554, identifier: "39d77eafc3494c4b3eb9fcf137bcc65d")
!549 = !DINamespace(name: "range", scope: !550)
!550 = !DINamespace(name: "ops", scope: !14)
!551 = !{!552, !553}
!552 = !DIDerivedType(tag: DW_TAG_member, name: "start", scope: !548, file: !10, baseType: !53, size: 64, align: 64)
!553 = !DIDerivedType(tag: DW_TAG_member, name: "end", scope: !548, file: !10, baseType: !53, size: 64, align: 64, offset: 64)
!554 = !{!555}
!555 = !DITemplateTypeParameter(name: "Idx", type: !53)
!556 = !{!557, !558}
!557 = !DILocalVariable(name: "self", arg: 1, scope: !544, file: !393, line: 506, type: !547)
!558 = !DILocalVariable(name: "n", scope: !559, file: !393, line: 509, type: !53, align: 8)
!559 = distinct !DILexicalBlock(scope: !544, file: !393, line: 509, column: 13)
!560 = !{!561}
!561 = !DITemplateTypeParameter(name: "A", type: !53)
!562 = !DILocation(line: 506, column: 13, scope: !544)
!563 = !DILocation(line: 507, column: 12, scope: !544)
!564 = !DILocation(line: 507, column: 25, scope: !544)
!565 = !DILocation(line: 507, column: 9, scope: !544)
!566 = !DILocation(line: 509, column: 54, scope: !544)
!567 = !DILocation(line: 509, column: 30, scope: !544)
!568 = !DILocation(line: 509, column: 17, scope: !559)
!569 = !DILocation(line: 510, column: 31, scope: !559)
!570 = !DILocation(line: 510, column: 18, scope: !559)
!571 = !DILocation(line: 510, column: 13, scope: !559)
!572 = !DILocation(line: 512, column: 13, scope: !544)
!573 = !DILocation(line: 514, column: 6, scope: !544)
!574 = !{i64 0, i64 2}
!575 = distinct !DISubprogram(name: "clone", linkageName: "_ZN4core5clone5impls54_$LT$impl$u20$core..clone..Clone$u20$for$u20$usize$GT$5clone17h7a6ffaa75f79ab0bE", scope: !577, file: !576, line: 181, type: !580, scopeLine: 181, flags: DIFlagPrototyped, spFlags: DISPFlagLocalToUnit | DISPFlagDefinition, unit: !6, templateParams: !28, retainedNodes: !582)
!576 = !DIFile(filename: "/rustc/2fd73fabe469357a12c2c974c140f67e7cdd76d0/library/core/src/clone.rs", directory: "", checksumkind: CSK_MD5, checksum: "ac8d71a1ea6619659fbd99e3ca3df933")
!577 = !DINamespace(name: "{{impl}}", scope: !578)
!578 = !DINamespace(name: "impls", scope: !579)
!579 = !DINamespace(name: "clone", scope: !14)
!580 = !DISubroutineType(types: !581)
!581 = !{!53, !61}
!582 = !{!583}
!583 = !DILocalVariable(name: "self", arg: 1, scope: !575, file: !576, line: 181, type: !61)
!584 = !DILocation(line: 181, column: 30, scope: !575)
!585 = !DILocation(line: 182, column: 25, scope: !575)
!586 = !DILocation(line: 183, column: 22, scope: !575)
!587 = distinct !DISubprogram(name: "into_iter<core::ops::range::Range<usize>>", linkageName: "_ZN63_$LT$I$u20$as$u20$core..iter..traits..collect..IntoIterator$GT$9into_iter17h12b824c37dd70ccaE", scope: !589, file: !588, line: 240, type: !592, scopeLine: 240, flags: DIFlagPrototyped, spFlags: DISPFlagLocalToUnit | DISPFlagDefinition, unit: !6, templateParams: !596, retainedNodes: !594)
!588 = !DIFile(filename: "/rustc/2fd73fabe469357a12c2c974c140f67e7cdd76d0/library/core/src/iter/traits/collect.rs", directory: "", checksumkind: CSK_MD5, checksum: "3854390627f76d1db63c99cc13806055")
!589 = !DINamespace(name: "{{impl}}", scope: !590)
!590 = !DINamespace(name: "collect", scope: !591)
!591 = !DINamespace(name: "traits", scope: !396)
!592 = !DISubroutineType(types: !593)
!593 = !{!548, !548}
!594 = !{!595}
!595 = !DILocalVariable(name: "self", arg: 1, scope: !587, file: !588, line: 240, type: !548)
!596 = !{!597}
!597 = !DITemplateTypeParameter(name: "I", type: !548)
!598 = !DILocation(line: 240, column: 18, scope: !587)
!599 = !DILocation(line: 242, column: 6, scope: !587)
!600 = distinct !DISubprogram(name: "from_bytes_with_nul_unchecked", linkageName: "_ZN9cstr_core4CStr29from_bytes_with_nul_unchecked17hc5c7ee9b72f6f886E", scope: !602, file: !601, line: 1162, type: !608, scopeLine: 1162, flags: DIFlagPrototyped, spFlags: DISPFlagLocalToUnit | DISPFlagDefinition, unit: !6, templateParams: !28, retainedNodes: !615)
!601 = !DIFile(filename: "/home/ubuntu/.cargo/registry/src/github.com-1ecc6299db9ec823/cstr_core-0.2.5/src/lib.rs", directory: "", checksumkind: CSK_MD5, checksum: "3a4727b3481b2bcf3c156ce21ae07237")
!602 = !DICompositeType(tag: DW_TAG_structure_type, name: "CStr", scope: !45, file: !10, align: 8, elements: !603, templateParams: !28, identifier: "24bbd375d8ef8895a356feb6cae0c1a6")
!603 = !{!604}
!604 = !DIDerivedType(tag: DW_TAG_member, name: "inner", scope: !602, file: !10, baseType: !605, align: 8)
!605 = !DICompositeType(tag: DW_TAG_array_type, baseType: !34, align: 8, elements: !606)
!606 = !{!607}
!607 = !DISubrange(count: -1)
!608 = !DISubroutineType(types: !609)
!609 = !{!610, !611}
!610 = !DIDerivedType(tag: DW_TAG_pointer_type, name: "&cstr_core::CStr", baseType: !602, size: 128, align: 64, dwarfAddressSpace: 0)
!611 = !DICompositeType(tag: DW_TAG_structure_type, name: "&[u8]", file: !10, size: 128, align: 64, elements: !612, templateParams: !28, identifier: "585202bcfc7dfd1dd72e8befe2491ee4")
!612 = !{!613, !614}
!613 = !DIDerivedType(tag: DW_TAG_member, name: "data_ptr", scope: !611, file: !10, baseType: !145, size: 64, align: 64)
!614 = !DIDerivedType(tag: DW_TAG_member, name: "length", scope: !611, file: !10, baseType: !53, size: 64, align: 64, offset: 64)
!615 = !{!616}
!616 = !DILocalVariable(name: "bytes", arg: 1, scope: !600, file: !601, line: 1162, type: !611)
!617 = !DILocation(line: 1162, column: 49, scope: !600)
!618 = !DILocation(line: 1163, column: 11, scope: !600)
!619 = !DILocation(line: 1164, column: 6, scope: !600)
!620 = distinct !DISubprogram(name: "as_ptr", linkageName: "_ZN9cstr_core4CStr6as_ptr17hbd2976e9ba5ef15eE", scope: !602, file: !601, line: 1214, type: !621, scopeLine: 1214, flags: DIFlagPrototyped, spFlags: DISPFlagLocalToUnit | DISPFlagDefinition, unit: !6, templateParams: !28, retainedNodes: !624)
!621 = !DISubroutineType(types: !622)
!622 = !{!623, !610}
!623 = !DIDerivedType(tag: DW_TAG_pointer_type, name: "*const i8", baseType: !34, size: 64, align: 64, dwarfAddressSpace: 0)
!624 = !{!625}
!625 = !DILocalVariable(name: "self", arg: 1, scope: !620, file: !601, line: 1214, type: !610)
!626 = !DILocation(line: 1214, column: 25, scope: !620)
!627 = !DILocation(line: 1215, column: 9, scope: !620)
!628 = !DILocation(line: 1216, column: 6, scope: !620)
!629 = distinct !DISubprogram(name: "fact_rec", linkageName: "_ZN4fact8fact_rec17hdf4d9bb7eb76daaaE", scope: !631, file: !630, line: 8, type: !632, scopeLine: 8, flags: DIFlagPrototyped, spFlags: DISPFlagLocalToUnit | DISPFlagDefinition, unit: !6, templateParams: !28, retainedNodes: !634)
!630 = !DIFile(filename: "src/main.rs", directory: "/home/ubuntu/container-data/fact", checksumkind: CSK_MD5, checksum: "705c04a1dbf4cb9c39ed1aa21a618ffb")
!631 = !DINamespace(name: "fact", scope: null)
!632 = !DISubroutineType(types: !633)
!633 = !{!53, !53}
!634 = !{!635}
!635 = !DILocalVariable(name: "n", arg: 1, scope: !629, file: !630, line: 8, type: !53)
!636 = !DILocation(line: 8, column: 13, scope: !629)
!637 = !DILocation(line: 9, column: 8, scope: !629)
!638 = !DILocation(line: 9, column: 5, scope: !629)
!639 = !{i8 0, i8 2}
!640 = !DILocation(line: 10, column: 16, scope: !629)
!641 = !DILocation(line: 14, column: 2, scope: !629)
!642 = !DILocation(line: 12, column: 22, scope: !629)
!643 = !DILocation(line: 12, column: 13, scope: !629)
!644 = !DILocation(line: 12, column: 9, scope: !629)
!645 = distinct !DISubprogram(name: "fact_iter", linkageName: "_ZN4fact9fact_iter17h44762abafc1662aaE", scope: !631, file: !630, line: 16, type: !632, scopeLine: 16, flags: DIFlagPrototyped, spFlags: DISPFlagLocalToUnit | DISPFlagDefinition, unit: !6, templateParams: !28, retainedNodes: !646)
!646 = !{!647, !648, !650, !652, !654, !656}
!647 = !DILocalVariable(name: "n", arg: 1, scope: !645, file: !630, line: 16, type: !53)
!648 = !DILocalVariable(name: "prod", scope: !649, file: !630, line: 17, type: !53, align: 8)
!649 = distinct !DILexicalBlock(scope: !645, file: !630, line: 17, column: 5)
!650 = !DILocalVariable(name: "iter", scope: !651, file: !630, line: 22, type: !548, align: 8)
!651 = distinct !DILexicalBlock(scope: !649, file: !630, line: 22, column: 9)
!652 = !DILocalVariable(name: "__next", scope: !653, file: !630, line: 22, type: !53, align: 8)
!653 = distinct !DILexicalBlock(scope: !651, file: !630, line: 22, column: 18)
!654 = !DILocalVariable(name: "val", scope: !655, file: !630, line: 22, type: !53, align: 8)
!655 = distinct !DILexicalBlock(scope: !653, file: !630, line: 22, column: 13)
!656 = !DILocalVariable(name: "x", scope: !657, file: !630, line: 22, type: !53, align: 8)
!657 = distinct !DILexicalBlock(scope: !653, file: !630, line: 22, column: 18)
!658 = !DILocation(line: 16, column: 14, scope: !645)
!659 = !DILocation(line: 17, column: 9, scope: !649)
!660 = !DILocation(line: 22, column: 18, scope: !651)
!661 = !DILocation(line: 17, column: 20, scope: !645)
!662 = !DILocation(line: 19, column: 8, scope: !649)
!663 = !DILocation(line: 19, column: 5, scope: !649)
!664 = !DILocation(line: 20, column: 16, scope: !649)
!665 = !DILocation(line: 1, column: 1, scope: !649)
!666 = !DILocation(line: 22, column: 18, scope: !649)
!667 = !DILocation(line: 22, column: 9, scope: !651)
!668 = !DILocation(line: 22, column: 18, scope: !653)
!669 = !DILocation(line: 22, column: 13, scope: !653)
!670 = !DILocation(line: 26, column: 12, scope: !649)
!671 = !DILocation(line: 26, column: 5, scope: !649)
!672 = !DILocation(line: 22, column: 13, scope: !655)
!673 = !DILocation(line: 22, column: 13, scope: !657)
!674 = !DILocation(line: 23, column: 13, scope: !657)
!675 = !DILocation(line: 27, column: 2, scope: !645)
!676 = distinct !DISubprogram(name: "fact_test", linkageName: "_ZN4fact9fact_test17ha2f44ee6e1c3dbacE", scope: !631, file: !630, line: 29, type: !677, scopeLine: 29, flags: DIFlagPrototyped, spFlags: DISPFlagLocalToUnit | DISPFlagDefinition, unit: !6, templateParams: !28, retainedNodes: !679)
!677 = !DISubroutineType(types: !678)
!678 = !{null, !53}
!679 = !{!680, !681, !685, !686, !691}
!680 = !DILocalVariable(name: "n", arg: 1, scope: !676, file: !630, line: 29, type: !53)
!681 = !DILocalVariable(name: "left_val", scope: !682, file: !630, line: 31, type: !61, align: 8)
!682 = !DILexicalBlockFile(scope: !683, file: !630, discriminator: 0)
!683 = distinct !DILexicalBlock(scope: !676, file: !684, line: 59, column: 13)
!684 = !DIFile(filename: "/rustc/2fd73fabe469357a12c2c974c140f67e7cdd76d0/library/core/src/macros/mod.rs", directory: "", checksumkind: CSK_MD5, checksum: "8dc86145dd8e4ae659181a1e81cd58e2")
!685 = !DILocalVariable(name: "right_val", scope: !682, file: !630, line: 31, type: !61, align: 8)
!686 = !DILocalVariable(name: "arg0", scope: !687, file: !630, line: 31, type: !690, align: 8)
!687 = !DILexicalBlockFile(scope: !688, file: !630, discriminator: 0)
!688 = distinct !DILexicalBlock(scope: !683, file: !689, line: 24, column: 38)
!689 = !DIFile(filename: "/rustc/2fd73fabe469357a12c2c974c140f67e7cdd76d0/library/core/src/panic.rs", directory: "", checksumkind: CSK_MD5, checksum: "4b2dd965887c76cebc0a34a2a83ddd98")
!690 = !DIDerivedType(tag: DW_TAG_pointer_type, name: "&&usize", baseType: !61, size: 64, align: 64, dwarfAddressSpace: 0)
!691 = !DILocalVariable(name: "arg1", scope: !687, file: !630, line: 31, type: !690, align: 8)
!692 = !DILocation(line: 29, column: 14, scope: !676)
!693 = !DILocation(line: 31, column: 16, scope: !676)
!694 = !DILocation(line: 31, column: 29, scope: !676)
!695 = !DILocation(line: 31, column: 5, scope: !676)
!696 = !DILocation(line: 31, column: 5, scope: !682)
!697 = !DILocation(line: 31, column: 5, scope: !687)
!698 = !DILocation(line: 32, column: 2, scope: !676)
!699 = distinct !DISubprogram(name: "main", scope: !631, file: !630, line: 35, type: !700, scopeLine: 35, flags: DIFlagPrototyped, spFlags: DISPFlagDefinition, unit: !6, templateParams: !28, retainedNodes: !702)
!700 = !DISubroutineType(types: !701)
!701 = !{null}
!702 = !{!703}
!703 = !DILocalVariable(name: "n", scope: !704, file: !630, line: 36, type: !53, align: 8)
!704 = distinct !DILexicalBlock(scope: !699, file: !630, line: 36, column: 5)
!705 = !DILocation(line: 36, column: 9, scope: !704)
!706 = !DILocation(line: 36, column: 24, scope: !699)
!707 = !{!708}
!708 = distinct !{!708, !709, !"_ZN4core3str21_$LT$impl$u20$str$GT$8as_bytes17hd4a894810077290dE: %self.0"}
!709 = distinct !{!709, !"_ZN4core3str21_$LT$impl$u20$str$GT$8as_bytes17hd4a894810077290dE"}
!710 = !DILocalVariable(name: "self", arg: 1, scope: !711, file: !712, line: 224, type: !430)
!711 = distinct !DISubprogram(name: "as_bytes", linkageName: "_ZN4core3str21_$LT$impl$u20$str$GT$8as_bytes17hd4a894810077290dE", scope: !713, file: !712, line: 224, type: !715, scopeLine: 224, flags: DIFlagPrototyped, spFlags: DISPFlagLocalToUnit | DISPFlagDefinition, unit: !6, templateParams: !28, retainedNodes: !717)
!712 = !DIFile(filename: "/rustc/2fd73fabe469357a12c2c974c140f67e7cdd76d0/library/core/src/str/mod.rs", directory: "", checksumkind: CSK_MD5, checksum: "288711a6cf0e0d8143d78b5fe87cac66")
!713 = !DINamespace(name: "{{impl}}", scope: !714)
!714 = !DINamespace(name: "str", scope: !14)
!715 = !DISubroutineType(types: !716)
!716 = !{!611, !430}
!717 = !{!710}
!718 = !DILocation(line: 224, column: 27, scope: !711, inlinedAt: !719)
!719 = distinct !DILocation(line: 37, column: 5, scope: !704)
!720 = !DILocation(line: 226, column: 18, scope: !711, inlinedAt: !719)
!721 = !DILocation(line: 227, column: 6, scope: !711, inlinedAt: !719)
!722 = !DILocation(line: 37, column: 5, scope: !704)
!723 = !{!724}
!724 = distinct !{!724, !725, !"_ZN8klee_sys17lib_klee_analysis18klee_make_symbolic17h596b19dd907f9de4E: %name.0"}
!725 = distinct !{!725, !"_ZN8klee_sys17lib_klee_analysis18klee_make_symbolic17h596b19dd907f9de4E"}
!726 = !DILocalVariable(name: "t", arg: 1, scope: !727, file: !728, line: 17, type: !733)
!727 = distinct !DISubprogram(name: "klee_make_symbolic<usize>", linkageName: "_ZN8klee_sys17lib_klee_analysis18klee_make_symbolic17h596b19dd907f9de4E", scope: !729, file: !728, line: 17, type: !731, scopeLine: 17, flags: DIFlagPrototyped, spFlags: DISPFlagLocalToUnit | DISPFlagDefinition, unit: !6, templateParams: !111, retainedNodes: !734)
!728 = !DIFile(filename: "/home/ubuntu/.cargo/git/checkouts/klee-sys-7ee2aa8a1a6bbc46/9f462cc/src/lib_klee_analysis.rs", directory: "", checksumkind: CSK_MD5, checksum: "e3bdc37403934781364daca8b62851bf")
!729 = !DINamespace(name: "lib_klee_analysis", scope: !730)
!730 = !DINamespace(name: "klee_sys", scope: null)
!731 = !DISubroutineType(types: !732)
!732 = !{null, !733, !610}
!733 = !DIDerivedType(tag: DW_TAG_pointer_type, name: "&mut usize", baseType: !53, size: 64, align: 64, dwarfAddressSpace: 0)
!734 = !{!726, !735}
!735 = !DILocalVariable(name: "name", arg: 2, scope: !727, file: !728, line: 17, type: !610)
!736 = !DILocation(line: 17, column: 30, scope: !727, inlinedAt: !737)
!737 = distinct !DILocation(line: 37, column: 5, scope: !704)
!738 = !DILocation(line: 17, column: 41, scope: !727, inlinedAt: !737)
!739 = !DILocation(line: 20, column: 13, scope: !727, inlinedAt: !737)
!740 = !DILocation(line: 22, column: 13, scope: !727, inlinedAt: !737)
!741 = !DILocation(line: 19, column: 9, scope: !727, inlinedAt: !737)
!742 = !DILocation(line: 38, column: 15, scope: !704)
!743 = !DILocation(line: 38, column: 5, scope: !704)
!744 = !DILocation(line: 39, column: 2, scope: !699)
!745 = distinct !DISubprogram(name: "panic", linkageName: "_ZN4core9panicking5panic17h07405d6be4bce887E", scope: !747, file: !746, line: 39, type: !748, scopeLine: 39, flags: DIFlagPrototyped | DIFlagNoReturn, spFlags: DISPFlagDefinition | DISPFlagOptimized, unit: !26, templateParams: !28, retainedNodes: !28)
!746 = !DIFile(filename: "library/core/src/panicking.rs", directory: "/rustc/2fd73fabe469357a12c2c974c140f67e7cdd76d0/", checksumkind: CSK_MD5, checksum: "10dfc2feb63a9eaaccae13649da4c2f4")
!747 = !DINamespace(name: "panicking", scope: !14)
!748 = !DISubroutineType(types: !28)
!749 = !DILocation(line: 50, column: 15, scope: !745)
!750 = !DILocation(line: 50, column: 39, scope: !745)
!751 = !DILocation(line: 314, column: 9, scope: !752, inlinedAt: !755)
!752 = distinct !DISubprogram(name: "new_v1", linkageName: "_ZN4core3fmt9Arguments6new_v117hb7d5c859a9eeb48fE", scope: !754, file: !753, line: 313, type: !748, scopeLine: 313, flags: DIFlagPrototyped, spFlags: DISPFlagLocalToUnit | DISPFlagDefinition | DISPFlagOptimized, unit: !26, templateParams: !28, retainedNodes: !28)
!753 = !DIFile(filename: "library/core/src/fmt/mod.rs", directory: "/rustc/2fd73fabe469357a12c2c974c140f67e7cdd76d0/", checksumkind: CSK_MD5, checksum: "9c2303bc954c30225b64b2e88dce24d2")
!754 = !DINamespace(name: "Arguments", scope: !13)
!755 = distinct !DILocation(line: 50, column: 15, scope: !745)
!756 = !{!757}
!757 = distinct !{!757, !758, !"_ZN4core3fmt9Arguments6new_v117hb7d5c859a9eeb48fE: argument 0"}
!758 = distinct !{!758, !"_ZN4core3fmt9Arguments6new_v117hb7d5c859a9eeb48fE"}
!759 = !{!760, !761}
!760 = distinct !{!760, !758, !"_ZN4core3fmt9Arguments6new_v117hb7d5c859a9eeb48fE: argument 1"}
!761 = distinct !{!761, !758, !"_ZN4core3fmt9Arguments6new_v117hb7d5c859a9eeb48fE: argument 2"}
!762 = !DILocation(line: 50, column: 5, scope: !745)
!763 = distinct !DISubprogram(name: "fmt", linkageName: "_ZN4core3fmt3num3imp52_$LT$impl$u20$core..fmt..Display$u20$for$u20$u64$GT$3fmt17h48d894a52c575073E", scope: !765, file: !764, line: 279, type: !748, scopeLine: 279, flags: DIFlagPrototyped, spFlags: DISPFlagDefinition | DISPFlagOptimized, unit: !26, templateParams: !28, retainedNodes: !28)
!764 = !DIFile(filename: "library/core/src/fmt/num.rs", directory: "/rustc/2fd73fabe469357a12c2c974c140f67e7cdd76d0/", checksumkind: CSK_MD5, checksum: "9015781b6b0707b2f9013dc3bf8db592")
!765 = !DINamespace(name: "{{impl}}", scope: !766)
!766 = !DINamespace(name: "imp", scope: !767)
!767 = !DINamespace(name: "num", scope: !13)
!768 = !DILocation(line: 45, column: 37, scope: !769, inlinedAt: !771)
!769 = distinct !DISubprogram(name: "to_u64", linkageName: "_ZN50_$LT$u64$u20$as$u20$core..fmt..num..DisplayInt$GT$6to_u6417hb7939d125f1434faE", scope: !770, file: !764, line: 45, type: !748, scopeLine: 45, flags: DIFlagPrototyped, spFlags: DISPFlagDefinition | DISPFlagOptimized, unit: !26, templateParams: !28, retainedNodes: !28)
!770 = !DINamespace(name: "{{impl}}", scope: !767)
!771 = distinct !DILocation(line: 0, scope: !763)
!772 = !{!773}
!773 = distinct !{!773, !774, !"_ZN50_$LT$u64$u20$as$u20$core..fmt..num..DisplayInt$GT$6to_u6417hb7939d125f1434faE: argument 0"}
!774 = distinct !{!774, !"_ZN50_$LT$u64$u20$as$u20$core..fmt..num..DisplayInt$GT$6to_u6417hb7939d125f1434faE"}
!775 = !DILocation(line: 213, column: 17, scope: !776, inlinedAt: !777)
!776 = distinct !DISubprogram(name: "fmt_u64", linkageName: "_ZN4core3fmt3num3imp7fmt_u6417hfe0084196fb8e906E", scope: !766, file: !764, line: 211, type: !748, scopeLine: 211, flags: DIFlagPrototyped, spFlags: DISPFlagLocalToUnit | DISPFlagDefinition | DISPFlagOptimized, unit: !26, templateParams: !28, retainedNodes: !28)
!777 = distinct !DILocation(line: 287, column: 17, scope: !763)
!778 = !DILocation(line: 213, column: 27, scope: !776, inlinedAt: !777)
!779 = !DILocation(line: 230, column: 23, scope: !776, inlinedAt: !777)
!780 = !DILocation(line: 230, column: 17, scope: !776, inlinedAt: !777)
!781 = !DILocation(line: 0, scope: !776, inlinedAt: !777)
!782 = !DILocation(line: 249, column: 20, scope: !776, inlinedAt: !777)
!783 = !DILocation(line: 249, column: 17, scope: !776, inlinedAt: !777)
!784 = !DILocation(line: 231, column: 31, scope: !776, inlinedAt: !777)
!785 = !DILocation(line: 232, column: 21, scope: !776, inlinedAt: !777)
!786 = !DILocation(line: 234, column: 30, scope: !776, inlinedAt: !777)
!787 = !DILocation(line: 235, column: 30, scope: !776, inlinedAt: !777)
!788 = !DILocation(line: 236, column: 21, scope: !776, inlinedAt: !777)
!789 = !DILocation(line: 225, column: 18, scope: !790, inlinedAt: !795)
!790 = distinct !DISubprogram(name: "offset<u8>", linkageName: "_ZN4core3ptr9const_ptr33_$LT$impl$u20$$BP$const$u20$T$GT$6offset17h1c1dd0a334f9f4bbE", scope: !792, file: !791, line: 220, type: !748, scopeLine: 220, flags: DIFlagPrototyped, spFlags: DISPFlagLocalToUnit | DISPFlagDefinition | DISPFlagOptimized, unit: !26, templateParams: !28, retainedNodes: !28)
!791 = !DIFile(filename: "library/core/src/ptr/const_ptr.rs", directory: "/rustc/2fd73fabe469357a12c2c974c140f67e7cdd76d0/", checksumkind: CSK_MD5, checksum: "d71a4e6613312479d99761d4ddd6f5e6")
!792 = !DINamespace(name: "{{impl}}", scope: !793)
!793 = !DINamespace(name: "const_ptr", scope: !794)
!794 = !DINamespace(name: "ptr", scope: !14)
!795 = distinct !DILocation(line: 241, column: 46, scope: !776, inlinedAt: !777)
!796 = !DILocation(line: 232, column: 18, scope: !797, inlinedAt: !801)
!797 = distinct !DISubprogram(name: "offset<u8>", linkageName: "_ZN4core3ptr7mut_ptr31_$LT$impl$u20$$BP$mut$u20$T$GT$6offset17h05836a60a0e6540cE", scope: !799, file: !798, line: 225, type: !748, scopeLine: 225, flags: DIFlagPrototyped, spFlags: DISPFlagLocalToUnit | DISPFlagDefinition | DISPFlagOptimized, unit: !26, templateParams: !28, retainedNodes: !28)
!798 = !DIFile(filename: "library/core/src/ptr/mut_ptr.rs", directory: "/rustc/2fd73fabe469357a12c2c974c140f67e7cdd76d0/", checksumkind: CSK_MD5, checksum: "22ecfe91f60034415df864f724ba4d3c")
!799 = !DINamespace(name: "{{impl}}", scope: !800)
!800 = !DINamespace(name: "mut_ptr", scope: !794)
!801 = distinct !DILocation(line: 241, column: 66, scope: !776, inlinedAt: !777)
!802 = !DILocation(line: 1861, column: 14, scope: !803, inlinedAt: !806)
!803 = distinct !DISubprogram(name: "copy_nonoverlapping<u8>", linkageName: "_ZN4core10intrinsics19copy_nonoverlapping17hfea80e97d011d098E", scope: !805, file: !804, line: 1843, type: !748, scopeLine: 1843, flags: DIFlagPrototyped, spFlags: DISPFlagLocalToUnit | DISPFlagDefinition | DISPFlagOptimized, unit: !26, templateParams: !28, retainedNodes: !28)
!804 = !DIFile(filename: "library/core/src/intrinsics.rs", directory: "/rustc/2fd73fabe469357a12c2c974c140f67e7cdd76d0/", checksumkind: CSK_MD5, checksum: "0e207eea7b158eb9610137138c6779c4")
!805 = !DINamespace(name: "intrinsics", scope: !14)
!806 = distinct !DILocation(line: 241, column: 21, scope: !776, inlinedAt: !777)
!807 = !DILocation(line: 225, column: 18, scope: !790, inlinedAt: !808)
!808 = distinct !DILocation(line: 242, column: 46, scope: !776, inlinedAt: !777)
!809 = !DILocation(line: 242, column: 81, scope: !776, inlinedAt: !777)
!810 = !DILocation(line: 232, column: 18, scope: !797, inlinedAt: !811)
!811 = distinct !DILocation(line: 242, column: 66, scope: !776, inlinedAt: !777)
!812 = !DILocation(line: 1861, column: 14, scope: !803, inlinedAt: !813)
!813 = distinct !DILocation(line: 242, column: 21, scope: !776, inlinedAt: !777)
!814 = !DILocation(line: 250, column: 30, scope: !776, inlinedAt: !777)
!815 = !DILocation(line: 251, column: 21, scope: !776, inlinedAt: !777)
!816 = !DILocation(line: 252, column: 21, scope: !776, inlinedAt: !777)
!817 = !DILocation(line: 225, column: 18, scope: !790, inlinedAt: !818)
!818 = distinct !DILocation(line: 253, column: 46, scope: !776, inlinedAt: !777)
!819 = !DILocation(line: 232, column: 18, scope: !797, inlinedAt: !820)
!820 = distinct !DILocation(line: 253, column: 66, scope: !776, inlinedAt: !777)
!821 = !DILocation(line: 1861, column: 14, scope: !803, inlinedAt: !822)
!822 = distinct !DILocation(line: 253, column: 21, scope: !776, inlinedAt: !777)
!823 = !DILocation(line: 257, column: 20, scope: !776, inlinedAt: !777)
!824 = !DILocation(line: 257, column: 17, scope: !776, inlinedAt: !777)
!825 = !DILocation(line: 258, column: 21, scope: !776, inlinedAt: !777)
!826 = !DILocation(line: 259, column: 45, scope: !776, inlinedAt: !777)
!827 = !DILocation(line: 232, column: 18, scope: !797, inlinedAt: !828)
!828 = distinct !DILocation(line: 259, column: 22, scope: !776, inlinedAt: !777)
!829 = !DILocation(line: 259, column: 21, scope: !776, inlinedAt: !777)
!830 = !DILocation(line: 261, column: 30, scope: !776, inlinedAt: !777)
!831 = !DILocation(line: 262, column: 21, scope: !776, inlinedAt: !777)
!832 = !DILocation(line: 225, column: 18, scope: !790, inlinedAt: !833)
!833 = distinct !DILocation(line: 263, column: 46, scope: !776, inlinedAt: !777)
!834 = !DILocation(line: 232, column: 18, scope: !797, inlinedAt: !835)
!835 = distinct !DILocation(line: 263, column: 66, scope: !776, inlinedAt: !777)
!836 = !DILocation(line: 1861, column: 14, scope: !803, inlinedAt: !837)
!837 = distinct !DILocation(line: 263, column: 21, scope: !776, inlinedAt: !777)
!838 = !DILocation(line: 232, column: 18, scope: !797, inlinedAt: !839)
!839 = distinct !DILocation(line: 271, column: 43, scope: !776, inlinedAt: !777)
!840 = !DILocation(line: 271, column: 65, scope: !776, inlinedAt: !777)
!841 = !DILocation(line: 273, column: 14, scope: !842, inlinedAt: !844)
!842 = distinct !DISubprogram(name: "slice_from_raw_parts<u8>", linkageName: "_ZN4core3ptr20slice_from_raw_parts17hf53b1cd0d570e425E", scope: !794, file: !843, line: 269, type: !748, scopeLine: 269, flags: DIFlagPrototyped, spFlags: DISPFlagLocalToUnit | DISPFlagDefinition | DISPFlagOptimized, unit: !26, templateParams: !28, retainedNodes: !28)
!843 = !DIFile(filename: "library/core/src/ptr/mod.rs", directory: "/rustc/2fd73fabe469357a12c2c974c140f67e7cdd76d0/", checksumkind: CSK_MD5, checksum: "a4f2d8ba04981bbf92ef9174cf1f1763")
!844 = distinct !DILocation(line: 96, column: 16, scope: !845, inlinedAt: !849)
!845 = distinct !DISubprogram(name: "from_raw_parts<u8>", linkageName: "_ZN4core5slice3raw14from_raw_parts17h0cb7ca39e9c1a94cE", scope: !847, file: !846, line: 89, type: !748, scopeLine: 89, flags: DIFlagPrototyped, spFlags: DISPFlagLocalToUnit | DISPFlagDefinition | DISPFlagOptimized, unit: !26, templateParams: !28, retainedNodes: !28)
!846 = !DIFile(filename: "library/core/src/slice/raw.rs", directory: "/rustc/2fd73fabe469357a12c2c974c140f67e7cdd76d0/", checksumkind: CSK_MD5, checksum: "8828542cdef73bc092bc2feeda684133")
!847 = !DINamespace(name: "raw", scope: !848)
!848 = !DINamespace(name: "slice", scope: !14)
!849 = distinct !DILocation(line: 271, column: 21, scope: !776, inlinedAt: !777)
!850 = !DILocation(line: 273, column: 13, scope: !776, inlinedAt: !777)
!851 = !DILocation(line: 288, column: 14, scope: !763)
!852 = distinct !DISubprogram(name: "panic_fmt", linkageName: "_ZN4core9panicking9panic_fmt17hcd56f7f635f62c74E", scope: !747, file: !746, line: 77, type: !748, scopeLine: 77, flags: DIFlagPrototyped | DIFlagNoReturn, spFlags: DISPFlagDefinition | DISPFlagOptimized, unit: !26, templateParams: !28, retainedNodes: !28)
!853 = !DILocation(line: 89, column: 9, scope: !852)
!854 = !DILocation(line: 89, column: 46, scope: !852)
!855 = !DILocation(line: 86, column: 9, scope: !856, inlinedAt: !860)
!856 = distinct !DISubprogram(name: "internal_constructor", linkageName: "_ZN4core5panic9PanicInfo20internal_constructor17hdae4be701f994da1E", scope: !858, file: !857, line: 81, type: !748, scopeLine: 81, flags: DIFlagPrototyped, spFlags: DISPFlagLocalToUnit | DISPFlagDefinition | DISPFlagOptimized, unit: !26, templateParams: !28, retainedNodes: !28)
!857 = !DIFile(filename: "library/core/src/panic.rs", directory: "/rustc/2fd73fabe469357a12c2c974c140f67e7cdd76d0/", checksumkind: CSK_MD5, checksum: "4b2dd965887c76cebc0a34a2a83ddd98")
!858 = !DINamespace(name: "PanicInfo", scope: !859)
!859 = !DINamespace(name: "panic", scope: !14)
!860 = distinct !DILocation(line: 89, column: 14, scope: !852)
!861 = !{!862}
!862 = distinct !{!862, !863, !"_ZN4core5panic9PanicInfo20internal_constructor17hdae4be701f994da1E: argument 0"}
!863 = distinct !{!863, !"_ZN4core5panic9PanicInfo20internal_constructor17hdae4be701f994da1E"}
!864 = !{!865, !866}
!865 = distinct !{!865, !863, !"_ZN4core5panic9PanicInfo20internal_constructor17hdae4be701f994da1E: argument 1"}
!866 = distinct !{!866, !863, !"_ZN4core5panic9PanicInfo20internal_constructor17hdae4be701f994da1E: argument 2"}
!867 = !DILocation(line: 92, column: 14, scope: !852)
!868 = distinct !DISubprogram(name: "drop_in_place<&core::iter::adapters::copied::Copied<core::slice::iter::Iter<u8>>>", linkageName: "_ZN4core3ptr102drop_in_place$LT$$RF$core..iter..adapters..copied..Copied$LT$core..slice..iter..Iter$LT$u8$GT$$GT$$GT$17h5913dccf4681891cE", scope: !794, file: !843, line: 179, type: !748, scopeLine: 179, flags: DIFlagPrototyped, spFlags: DISPFlagLocalToUnit | DISPFlagDefinition | DISPFlagOptimized, unit: !26, templateParams: !28, retainedNodes: !28)
!869 = !DILocation(line: 179, column: 1, scope: !868)
!870 = distinct !DISubprogram(name: "type_id<core::panic::{{impl}}::internal_constructor::NoPayload>", linkageName: "_ZN36_$LT$T$u20$as$u20$core..any..Any$GT$7type_id17h108f63b8120e9c9cE", scope: !872, file: !871, line: 132, type: !748, scopeLine: 132, flags: DIFlagPrototyped, spFlags: DISPFlagLocalToUnit | DISPFlagDefinition | DISPFlagOptimized, unit: !26, templateParams: !28, retainedNodes: !28)
!871 = !DIFile(filename: "library/core/src/any.rs", directory: "/rustc/2fd73fabe469357a12c2c974c140f67e7cdd76d0/", checksumkind: CSK_MD5, checksum: "32c34b48413f866c45095b7ff538e0e3")
!872 = !DINamespace(name: "{{impl}}", scope: !873)
!873 = !DINamespace(name: "any", scope: !14)
!874 = !DILocation(line: 134, column: 6, scope: !870)
!875 = distinct !DISubprogram(name: "pad_integral", linkageName: "_ZN4core3fmt9Formatter12pad_integral17h0f9951fc9f2b13b4E", scope: !876, file: !753, line: 1242, type: !748, scopeLine: 1242, flags: DIFlagPrototyped, spFlags: DISPFlagDefinition | DISPFlagOptimized, unit: !26, templateParams: !28, retainedNodes: !28)
!876 = !DINamespace(name: "Formatter", scope: !13)
!877 = !DILocation(line: 1246, column: 9, scope: !875)
!878 = !DILocation(line: 1248, column: 13, scope: !875)
!879 = !DILocation(line: 0, scope: !880, inlinedAt: !881)
!880 = distinct !DISubprogram(name: "alternate", linkageName: "_ZN4core3fmt9Formatter9alternate17hf76beaf39e40cc25E", scope: !876, file: !753, line: 1766, type: !748, scopeLine: 1766, flags: DIFlagPrototyped, spFlags: DISPFlagDefinition | DISPFlagOptimized, unit: !26, templateParams: !28, retainedNodes: !28)
!881 = distinct !DILocation(line: 1254, column: 25, scope: !875)
!882 = !DILocation(line: 1767, column: 9, scope: !880, inlinedAt: !881)
!883 = !{!884}
!884 = distinct !{!884, !885, !"_ZN4core3fmt9Formatter9alternate17hf76beaf39e40cc25E: argument 0"}
!885 = distinct !{!885, !"_ZN4core3fmt9Formatter9alternate17hf76beaf39e40cc25E"}
!886 = !DILocation(line: 1712, column: 9, scope: !887, inlinedAt: !888)
!887 = distinct !DISubprogram(name: "sign_plus", linkageName: "_ZN4core3fmt9Formatter9sign_plus17h2767eae8549a0627E", scope: !876, file: !753, line: 1711, type: !748, scopeLine: 1711, flags: DIFlagPrototyped, spFlags: DISPFlagDefinition | DISPFlagOptimized, unit: !26, templateParams: !28, retainedNodes: !28)
!888 = distinct !DILocation(line: 1249, column: 19, scope: !875)
!889 = !{!890}
!890 = distinct !{!890, !891, !"_ZN4core3fmt9Formatter9sign_plus17h2767eae8549a0627E: argument 0"}
!891 = distinct !{!891, !"_ZN4core3fmt9Formatter9sign_plus17h2767eae8549a0627E"}
!892 = !DILocation(line: 1249, column: 16, scope: !875)
!893 = !DILocation(line: 0, scope: !875)
!894 = !DILocation(line: 1254, column: 22, scope: !875)
!895 = !DILocation(line: 413, column: 9, scope: !896, inlinedAt: !899)
!896 = distinct !DISubprogram(name: "as_ptr<u8>", linkageName: "_ZN4core5slice29_$LT$impl$u20$$u5b$T$u5d$$GT$6as_ptr17hec043657827772c1E", scope: !898, file: !897, line: 412, type: !748, scopeLine: 412, flags: DIFlagPrototyped, spFlags: DISPFlagLocalToUnit | DISPFlagDefinition | DISPFlagOptimized, unit: !26, templateParams: !28, retainedNodes: !28)
!897 = !DIFile(filename: "library/core/src/slice/mod.rs", directory: "/rustc/2fd73fabe469357a12c2c974c140f67e7cdd76d0/", checksumkind: CSK_MD5, checksum: "ea4e5ca9ae063a46c5941966a2eac2e5")
!898 = !DINamespace(name: "{{impl}}", scope: !848)
!899 = distinct !DILocation(line: 89, column: 19, scope: !900, inlinedAt: !904)
!900 = distinct !DISubprogram(name: "new<u8>", linkageName: "_ZN4core5slice4iter13Iter$LT$T$GT$3new17h81db886277cc9ce3E", scope: !902, file: !901, line: 88, type: !748, scopeLine: 88, flags: DIFlagPrototyped, spFlags: DISPFlagLocalToUnit | DISPFlagDefinition | DISPFlagOptimized, unit: !26, templateParams: !28, retainedNodes: !28)
!901 = !DIFile(filename: "library/core/src/slice/iter.rs", directory: "/rustc/2fd73fabe469357a12c2c974c140f67e7cdd76d0/", checksumkind: CSK_MD5, checksum: "08d4f6baf81bbaa357b07dc76bcb47a5")
!902 = !DINamespace(name: "Iter", scope: !903)
!903 = !DINamespace(name: "iter", scope: !848)
!904 = distinct !DILocation(line: 686, column: 9, scope: !905, inlinedAt: !906)
!905 = distinct !DISubprogram(name: "iter<u8>", linkageName: "_ZN4core5slice29_$LT$impl$u20$$u5b$T$u5d$$GT$4iter17hb75c712129b76290E", scope: !898, file: !897, line: 685, type: !748, scopeLine: 685, flags: DIFlagPrototyped, spFlags: DISPFlagLocalToUnit | DISPFlagDefinition | DISPFlagOptimized, unit: !26, templateParams: !28, retainedNodes: !28)
!906 = distinct !DILocation(line: 669, column: 23, scope: !907, inlinedAt: !909)
!907 = distinct !DISubprogram(name: "chars", linkageName: "_ZN4core3str21_$LT$impl$u20$str$GT$5chars17h4b1313cdffaddab1E", scope: !713, file: !908, line: 668, type: !748, scopeLine: 668, flags: DIFlagPrototyped, spFlags: DISPFlagLocalToUnit | DISPFlagDefinition | DISPFlagOptimized, unit: !26, templateParams: !28, retainedNodes: !28)
!908 = !DIFile(filename: "library/core/src/str/mod.rs", directory: "/rustc/2fd73fabe469357a12c2c974c140f67e7cdd76d0/", checksumkind: CSK_MD5, checksum: "288711a6cf0e0d8143d78b5fe87cac66")
!909 = distinct !DILocation(line: 1255, column: 22, scope: !875)
!910 = !DILocation(line: 225, column: 18, scope: !790, inlinedAt: !911)
!911 = distinct !DILocation(line: 503, column: 18, scope: !912, inlinedAt: !913)
!912 = distinct !DISubprogram(name: "add<u8>", linkageName: "_ZN4core3ptr9const_ptr33_$LT$impl$u20$$BP$const$u20$T$GT$3add17he5b49f08637a9fcdE", scope: !792, file: !791, line: 498, type: !748, scopeLine: 498, flags: DIFlagPrototyped, spFlags: DISPFlagLocalToUnit | DISPFlagDefinition | DISPFlagOptimized, unit: !26, templateParams: !28, retainedNodes: !28)
!913 = distinct !DILocation(line: 97, column: 17, scope: !900, inlinedAt: !904)
!914 = !DILocation(line: 146, column: 24, scope: !915, inlinedAt: !918)
!915 = distinct !DISubprogram(name: "next<u8>", linkageName: "_ZN91_$LT$core..slice..iter..Iter$LT$T$GT$$u20$as$u20$core..iter..traits..iterator..Iterator$GT$4next17hbda8889c62ad52a6E", scope: !917, file: !916, line: 134, type: !748, scopeLine: 134, flags: DIFlagPrototyped, spFlags: DISPFlagLocalToUnit | DISPFlagDefinition | DISPFlagOptimized, unit: !26, templateParams: !28, retainedNodes: !28)
!916 = !DIFile(filename: "library/core/src/slice/iter/macros.rs", directory: "/rustc/2fd73fabe469357a12c2c974c140f67e7cdd76d0/", checksumkind: CSK_MD5, checksum: "266ebb44ab377576d1a98b8489d2e376")
!917 = !DINamespace(name: "{{impl}}", scope: !903)
!918 = distinct !DILocation(line: 2123, column: 29, scope: !919, inlinedAt: !923)
!919 = distinct !DISubprogram(name: "fold<core::slice::iter::Iter<u8>,usize,closure-0>", linkageName: "_ZN4core4iter6traits8iterator8Iterator4fold17h904537b71d58414aE", scope: !921, file: !920, line: 2117, type: !748, scopeLine: 2117, flags: DIFlagPrototyped, spFlags: DISPFlagLocalToUnit | DISPFlagDefinition | DISPFlagOptimized, unit: !26, templateParams: !28, retainedNodes: !28)
!920 = !DIFile(filename: "library/core/src/iter/traits/iterator.rs", directory: "/rustc/2fd73fabe469357a12c2c974c140f67e7cdd76d0/", checksumkind: CSK_MD5, checksum: "57122a61091a960b8f938b9d755eb152")
!921 = !DINamespace(name: "Iterator", scope: !922)
!922 = !DINamespace(name: "iterator", scope: !591)
!923 = distinct !DILocation(line: 120, column: 9, scope: !924, inlinedAt: !929)
!924 = distinct !DISubprogram(name: "fold<usize,core::slice::iter::Iter<u8>,closure-0,usize,fn(usize, usize) -> usize>", linkageName: "_ZN102_$LT$core..iter..adapters..map..Map$LT$I$C$F$GT$$u20$as$u20$core..iter..traits..iterator..Iterator$GT$4fold17h89da0f292d288effE", scope: !926, file: !925, line: 116, type: !748, scopeLine: 116, flags: DIFlagPrototyped, spFlags: DISPFlagLocalToUnit | DISPFlagDefinition | DISPFlagOptimized, unit: !26, templateParams: !28, retainedNodes: !28)
!925 = !DIFile(filename: "library/core/src/iter/adapters/map.rs", directory: "/rustc/2fd73fabe469357a12c2c974c140f67e7cdd76d0/", checksumkind: CSK_MD5, checksum: "921a8c57f1859f00379dcd09753faa36")
!926 = !DINamespace(name: "{{impl}}", scope: !927)
!927 = !DINamespace(name: "map", scope: !928)
!928 = !DINamespace(name: "adapters", scope: !396)
!929 = distinct !DILocation(line: 46, column: 17, scope: !930, inlinedAt: !934)
!930 = distinct !DISubprogram(name: "sum<core::iter::adapters::map::Map<core::slice::iter::Iter<u8>, closure-0>>", linkageName: "_ZN56_$LT$usize$u20$as$u20$core..iter..traits..accum..Sum$GT$3sum17hc8e167b5aab06543E", scope: !932, file: !931, line: 45, type: !748, scopeLine: 45, flags: DIFlagPrototyped, spFlags: DISPFlagLocalToUnit | DISPFlagDefinition | DISPFlagOptimized, unit: !26, templateParams: !28, retainedNodes: !28)
!931 = !DIFile(filename: "library/core/src/iter/traits/accum.rs", directory: "/rustc/2fd73fabe469357a12c2c974c140f67e7cdd76d0/", checksumkind: CSK_MD5, checksum: "8d6d3359cea4f565271413105db5b30c")
!932 = !DINamespace(name: "{{impl}}", scope: !933)
!933 = !DINamespace(name: "accum", scope: !591)
!934 = distinct !DILocation(line: 2925, column: 9, scope: !935, inlinedAt: !936)
!935 = distinct !DISubprogram(name: "sum<core::iter::adapters::map::Map<core::slice::iter::Iter<u8>, closure-0>,usize>", linkageName: "_ZN4core4iter6traits8iterator8Iterator3sum17h9f5cd94ec647ad83E", scope: !921, file: !920, line: 2920, type: !748, scopeLine: 2920, flags: DIFlagPrototyped, spFlags: DISPFlagLocalToUnit | DISPFlagDefinition | DISPFlagOptimized, unit: !26, templateParams: !28, retainedNodes: !28)
!936 = distinct !DILocation(line: 82, column: 9, scope: !937, inlinedAt: !941)
!937 = distinct !DISubprogram(name: "count<core::slice::iter::Iter<u8>,closure-0>", linkageName: "_ZN108_$LT$core..iter..adapters..filter..Filter$LT$I$C$P$GT$$u20$as$u20$core..iter..traits..iterator..Iterator$GT$5count17h5e029c89f8909584E", scope: !939, file: !938, line: 76, type: !748, scopeLine: 76, flags: DIFlagPrototyped, spFlags: DISPFlagLocalToUnit | DISPFlagDefinition | DISPFlagOptimized, unit: !26, templateParams: !28, retainedNodes: !28)
!938 = !DIFile(filename: "library/core/src/iter/adapters/filter.rs", directory: "/rustc/2fd73fabe469357a12c2c974c140f67e7cdd76d0/", checksumkind: CSK_MD5, checksum: "d55d0da99bad480830e232c131e69d67")
!939 = !DINamespace(name: "{{impl}}", scope: !940)
!940 = !DINamespace(name: "filter", scope: !928)
!941 = distinct !DILocation(line: 50, column: 9, scope: !942, inlinedAt: !946)
!942 = distinct !DISubprogram(name: "count", linkageName: "_ZN81_$LT$core..str..iter..Chars$u20$as$u20$core..iter..traits..iterator..Iterator$GT$5count17h2707b79bd5bf8b2bE", scope: !944, file: !943, line: 48, type: !748, scopeLine: 48, flags: DIFlagPrototyped, spFlags: DISPFlagLocalToUnit | DISPFlagDefinition | DISPFlagOptimized, unit: !26, templateParams: !28, retainedNodes: !28)
!943 = !DIFile(filename: "library/core/src/str/iter.rs", directory: "/rustc/2fd73fabe469357a12c2c974c140f67e7cdd76d0/", checksumkind: CSK_MD5, checksum: "8055b616800f57c518f5f60619f42e9e")
!944 = !DINamespace(name: "{{impl}}", scope: !945)
!945 = !DINamespace(name: "iter", scope: !714)
!946 = distinct !DILocation(line: 1255, column: 22, scope: !875)
!947 = !DILocation(line: 146, column: 21, scope: !915, inlinedAt: !918)
!948 = !DILocation(line: 2124, column: 21, scope: !919, inlinedAt: !923)
!949 = !{!950}
!950 = distinct !{!950, !951, !"_ZN108_$LT$core..iter..adapters..filter..Filter$LT$I$C$P$GT$$u20$as$u20$core..iter..traits..iterator..Iterator$GT$5count8to_usize28_$u7b$$u7b$closure$u7d$$u7d$17h20ce4c2fc03a5a1bE: argument 0"}
!951 = distinct !{!951, !"_ZN108_$LT$core..iter..adapters..filter..Filter$LT$I$C$P$GT$$u20$as$u20$core..iter..traits..iterator..Iterator$GT$5count8to_usize28_$u7b$$u7b$closure$u7d$$u7d$17h20ce4c2fc03a5a1bE"}
!952 = !DILocation(line: 25, column: 5, scope: !953, inlinedAt: !956)
!953 = distinct !DISubprogram(name: "utf8_is_cont_byte", linkageName: "_ZN4core3str11validations17utf8_is_cont_byte17hbb276746a6535297E", scope: !955, file: !954, line: 24, type: !748, scopeLine: 24, flags: DIFlagPrototyped, spFlags: DISPFlagLocalToUnit | DISPFlagDefinition | DISPFlagOptimized, unit: !26, templateParams: !28, retainedNodes: !28)
!954 = !DIFile(filename: "library/core/src/str/validations.rs", directory: "/rustc/2fd73fabe469357a12c2c974c140f67e7cdd76d0/", checksumkind: CSK_MD5, checksum: "e16ec20c9856918c50ffdc08694a8084")
!955 = !DINamespace(name: "validations", scope: !714)
!956 = distinct !DILocation(line: 50, column: 36, scope: !957, inlinedAt: !959)
!957 = distinct !DISubprogram(name: "{{closure}}", linkageName: "_ZN81_$LT$core..str..iter..Chars$u20$as$u20$core..iter..traits..iterator..Iterator$GT$5count28_$u7b$$u7b$closure$u7d$$u7d$17h58cfbd53be20556fE", scope: !958, file: !943, line: 50, type: !748, scopeLine: 50, flags: DIFlagPrototyped, spFlags: DISPFlagLocalToUnit | DISPFlagDefinition | DISPFlagOptimized, unit: !26, templateParams: !28, retainedNodes: !28)
!958 = !DINamespace(name: "count", scope: !944)
!959 = distinct !DILocation(line: 79, column: 22, scope: !960, inlinedAt: !963)
!960 = distinct !DISubprogram(name: "{{closure}}<&u8,closure-0>", linkageName: "_ZN108_$LT$core..iter..adapters..filter..Filter$LT$I$C$P$GT$$u20$as$u20$core..iter..traits..iterator..Iterator$GT$5count8to_usize28_$u7b$$u7b$closure$u7d$$u7d$17h20ce4c2fc03a5a1bE", scope: !961, file: !938, line: 79, type: !748, scopeLine: 79, flags: DIFlagPrototyped, spFlags: DISPFlagLocalToUnit | DISPFlagDefinition | DISPFlagOptimized, unit: !26, templateParams: !28, retainedNodes: !28)
!961 = !DINamespace(name: "to_usize", scope: !962)
!962 = !DINamespace(name: "count", scope: !939)
!963 = distinct !DILocation(line: 80, column: 28, scope: !964, inlinedAt: !966)
!964 = distinct !DISubprogram(name: "{{closure}}<&u8,usize,usize,closure-0,fn(usize, usize) -> usize>", linkageName: "_ZN4core4iter8adapters3map8map_fold28_$u7b$$u7b$closure$u7d$$u7d$17h0ca24d26fe032464E", scope: !965, file: !925, line: 80, type: !748, scopeLine: 80, flags: DIFlagPrototyped, spFlags: DISPFlagLocalToUnit | DISPFlagDefinition | DISPFlagOptimized, unit: !26, templateParams: !28, retainedNodes: !28)
!965 = !DINamespace(name: "map_fold", scope: !927)
!966 = distinct !DILocation(line: 2124, column: 21, scope: !919, inlinedAt: !923)
!967 = !DILocation(line: 79, column: 22, scope: !960, inlinedAt: !963)
!968 = !DILocation(line: 100, column: 45, scope: !969, inlinedAt: !973)
!969 = distinct !DISubprogram(name: "add", linkageName: "_ZN47_$LT$usize$u20$as$u20$core..ops..arith..Add$GT$3add17hbe6d59ae2dd9fec7E", scope: !971, file: !970, line: 100, type: !748, scopeLine: 100, flags: DIFlagPrototyped, spFlags: DISPFlagLocalToUnit | DISPFlagDefinition | DISPFlagOptimized, unit: !26, templateParams: !28, retainedNodes: !28)
!970 = !DIFile(filename: "library/core/src/ops/arith.rs", directory: "/rustc/2fd73fabe469357a12c2c974c140f67e7cdd76d0/", checksumkind: CSK_MD5, checksum: "06ad3b24a5552b7324fc4580f3116982")
!971 = !DINamespace(name: "{{impl}}", scope: !972)
!972 = !DINamespace(name: "arith", scope: !550)
!973 = distinct !DILocation(line: 150, column: 5, scope: !974, inlinedAt: !978)
!974 = distinct !DISubprogram(name: "call_mut<fn(usize, usize) -> usize,(usize, usize)>", linkageName: "_ZN4core3ops8function5FnMut8call_mut17hf0770d43755bab43E", scope: !976, file: !975, line: 150, type: !748, scopeLine: 150, flags: DIFlagPrototyped, spFlags: DISPFlagLocalToUnit | DISPFlagDefinition | DISPFlagOptimized, unit: !26, templateParams: !28, retainedNodes: !28)
!975 = !DIFile(filename: "library/core/src/ops/function.rs", directory: "/rustc/2fd73fabe469357a12c2c974c140f67e7cdd76d0/", checksumkind: CSK_MD5, checksum: "e7b2206724943b8a8140f7c1065997a3")
!976 = !DINamespace(name: "FnMut", scope: !977)
!977 = !DINamespace(name: "function", scope: !550)
!978 = distinct !DILocation(line: 80, column: 21, scope: !964, inlinedAt: !966)
!979 = distinct !{!979, !980}
!980 = !{!"llvm.loop.isvectorized", i32 1}
!981 = !DILocation(line: 232, column: 18, scope: !797, inlinedAt: !982)
!982 = distinct !DILocation(line: 93, column: 64, scope: !983, inlinedAt: !984)
!983 = distinct !DISubprogram(name: "post_inc_start<u8>", linkageName: "_ZN4core5slice4iter13Iter$LT$T$GT$14post_inc_start17h0c50b131f8045207E", scope: !902, file: !916, line: 85, type: !748, scopeLine: 85, flags: DIFlagPrototyped, spFlags: DISPFlagLocalToUnit | DISPFlagDefinition | DISPFlagOptimized, unit: !26, templateParams: !28, retainedNodes: !28)
!984 = distinct !DILocation(line: 149, column: 30, scope: !915, inlinedAt: !918)
!985 = distinct !{!985, !986, !980}
!986 = !{!"llvm.loop.unroll.runtime.disable"}
!987 = !DILocation(line: 0, scope: !919, inlinedAt: !923)
!988 = !DILocation(line: 1255, column: 13, scope: !875)
!989 = !DILocation(line: 1274, column: 13, scope: !875)
!990 = !DILocation(line: 1275, column: 17, scope: !875)
!991 = !DILocation(line: 1275, column: 49, scope: !875)
!992 = !DILocation(line: 1276, column: 17, scope: !875)
!993 = !DILocation(line: 1271, column: 9, scope: !875)
!994 = !DILocation(line: 1280, column: 18, scope: !875)
!995 = !DILocation(line: 1280, column: 35, scope: !875)
!996 = !DILocation(line: 1280, column: 26, scope: !875)
!997 = !DILocation(line: 1281, column: 17, scope: !875)
!998 = !DILocation(line: 1281, column: 49, scope: !875)
!999 = !DILocation(line: 1792, column: 9, scope: !1000, inlinedAt: !1001)
!1000 = distinct !DISubprogram(name: "sign_aware_zero_pad", linkageName: "_ZN4core3fmt9Formatter19sign_aware_zero_pad17he0679557a6a2de58E", scope: !876, file: !753, line: 1791, type: !748, scopeLine: 1791, flags: DIFlagPrototyped, spFlags: DISPFlagDefinition | DISPFlagOptimized, unit: !26, templateParams: !28, retainedNodes: !28)
!1001 = distinct !DILocation(line: 1286, column: 26, scope: !875)
!1002 = !DILocation(line: 1286, column: 26, scope: !875)
!1003 = !DILocation(line: 1282, column: 17, scope: !875)
!1004 = !DILocation(line: 1287, column: 52, scope: !875)
!1005 = !DILocation(line: 458, column: 21, scope: !1006, inlinedAt: !1007)
!1006 = distinct !DISubprogram(name: "swap_nonoverlapping_one<char>", linkageName: "_ZN4core3ptr23swap_nonoverlapping_one17h005e5f13fdb111f3E", scope: !794, file: !843, line: 451, type: !748, scopeLine: 451, flags: DIFlagPrototyped, spFlags: DISPFlagLocalToUnit | DISPFlagDefinition | DISPFlagOptimized, unit: !26, templateParams: !28, retainedNodes: !28)
!1007 = distinct !DILocation(line: 700, column: 9, scope: !1008, inlinedAt: !1011)
!1008 = distinct !DISubprogram(name: "swap<char>", linkageName: "_ZN4core3mem4swap17h20606a8cec4bb1b2E", scope: !1010, file: !1009, line: 696, type: !748, scopeLine: 696, flags: DIFlagPrototyped, spFlags: DISPFlagLocalToUnit | DISPFlagDefinition | DISPFlagOptimized, unit: !26, templateParams: !28, retainedNodes: !28)
!1009 = !DIFile(filename: "library/core/src/mem/mod.rs", directory: "/rustc/2fd73fabe469357a12c2c974c140f67e7cdd76d0/", checksumkind: CSK_MD5, checksum: "c6e13eb32828a8116f205e2f9341b1ad")
!1010 = !DINamespace(name: "mem", scope: !14)
!1011 = distinct !DILocation(line: 827, column: 5, scope: !1012, inlinedAt: !1013)
!1012 = distinct !DISubprogram(name: "replace<char>", linkageName: "_ZN4core3mem7replace17h7706ad797d085a5dE", scope: !1010, file: !1009, line: 826, type: !748, scopeLine: 826, flags: DIFlagPrototyped, spFlags: DISPFlagLocalToUnit | DISPFlagDefinition | DISPFlagOptimized, unit: !26, templateParams: !28, retainedNodes: !28)
!1013 = distinct !DILocation(line: 1287, column: 32, scope: !875)
!1014 = !DILocation(line: 1861, column: 14, scope: !1015, inlinedAt: !1016)
!1015 = distinct !DISubprogram(name: "copy_nonoverlapping<char>", linkageName: "_ZN4core10intrinsics19copy_nonoverlapping17h1a47ff6b0f2fa4f8E", scope: !805, file: !804, line: 1843, type: !748, scopeLine: 1843, flags: DIFlagPrototyped, spFlags: DISPFlagLocalToUnit | DISPFlagDefinition | DISPFlagOptimized, unit: !26, templateParams: !28, retainedNodes: !28)
!1016 = distinct !DILocation(line: 459, column: 13, scope: !1006, inlinedAt: !1007)
!1017 = !DILocation(line: 1288, column: 53, scope: !875)
!1018 = !DILocation(line: 458, column: 21, scope: !1019, inlinedAt: !1020)
!1019 = distinct !DISubprogram(name: "swap_nonoverlapping_one<core::fmt::rt::v1::Alignment>", linkageName: "_ZN4core3ptr23swap_nonoverlapping_one17h2ca0210682a15d14E", scope: !794, file: !843, line: 451, type: !748, scopeLine: 451, flags: DIFlagPrototyped, spFlags: DISPFlagLocalToUnit | DISPFlagDefinition | DISPFlagOptimized, unit: !26, templateParams: !28, retainedNodes: !28)
!1020 = distinct !DILocation(line: 700, column: 9, scope: !1021, inlinedAt: !1022)
!1021 = distinct !DISubprogram(name: "swap<core::fmt::rt::v1::Alignment>", linkageName: "_ZN4core3mem4swap17h0c7fd34e4a74c58dE", scope: !1010, file: !1009, line: 696, type: !748, scopeLine: 696, flags: DIFlagPrototyped, spFlags: DISPFlagLocalToUnit | DISPFlagDefinition | DISPFlagOptimized, unit: !26, templateParams: !28, retainedNodes: !28)
!1022 = distinct !DILocation(line: 827, column: 5, scope: !1023, inlinedAt: !1024)
!1023 = distinct !DISubprogram(name: "replace<core::fmt::rt::v1::Alignment>", linkageName: "_ZN4core3mem7replace17h7e7ab17f47dde080E", scope: !1010, file: !1009, line: 826, type: !748, scopeLine: 826, flags: DIFlagPrototyped, spFlags: DISPFlagLocalToUnit | DISPFlagDefinition | DISPFlagOptimized, unit: !26, templateParams: !28, retainedNodes: !28)
!1024 = distinct !DILocation(line: 1288, column: 33, scope: !875)
!1025 = !DILocation(line: 1861, column: 14, scope: !1026, inlinedAt: !1027)
!1026 = distinct !DISubprogram(name: "copy_nonoverlapping<core::fmt::rt::v1::Alignment>", linkageName: "_ZN4core10intrinsics19copy_nonoverlapping17hc4fc31309fdc78b2E", scope: !805, file: !804, line: 1843, type: !748, scopeLine: 1843, flags: DIFlagPrototyped, spFlags: DISPFlagLocalToUnit | DISPFlagDefinition | DISPFlagOptimized, unit: !26, templateParams: !28, retainedNodes: !28)
!1027 = distinct !DILocation(line: 459, column: 13, scope: !1019, inlinedAt: !1020)
!1028 = !DILocation(line: 1289, column: 17, scope: !875)
!1029 = !DILocation(line: 1289, column: 49, scope: !875)
!1030 = !DILocation(line: 1299, column: 49, scope: !875)
!1031 = !DILocation(line: 1387, column: 13, scope: !1032, inlinedAt: !1033)
!1032 = distinct !DISubprogram(name: "padding", linkageName: "_ZN4core3fmt9Formatter7padding17h26e671d35553fea1E", scope: !876, file: !753, line: 1381, type: !748, scopeLine: 1381, flags: DIFlagPrototyped, spFlags: DISPFlagLocalToUnit | DISPFlagDefinition | DISPFlagOptimized, unit: !26, templateParams: !28, retainedNodes: !28)
!1033 = distinct !DILocation(line: 1299, column: 36, scope: !875)
!1034 = !{i8 0, i8 4}
!1035 = !DILocation(line: 1386, column: 21, scope: !1032, inlinedAt: !1033)
!1036 = !DILocation(line: 1392, column: 13, scope: !1032, inlinedAt: !1033)
!1037 = !DILocation(line: 1394, column: 43, scope: !1032, inlinedAt: !1033)
!1038 = !DILocation(line: 1394, column: 56, scope: !1032, inlinedAt: !1033)
!1039 = !DILocation(line: 1391, column: 35, scope: !1032, inlinedAt: !1033)
!1040 = !DILocation(line: 1391, column: 41, scope: !1032, inlinedAt: !1033)
!1041 = !DILocation(line: 0, scope: !1032, inlinedAt: !1033)
!1042 = !DILocation(line: 1397, column: 9, scope: !1032, inlinedAt: !1033)
!1043 = !DILocation(line: 1258, column: 52, scope: !1044, inlinedAt: !1046)
!1044 = distinct !DISubprogram(name: "lt", linkageName: "_ZN4core3cmp5impls57_$LT$impl$u20$core..cmp..PartialOrd$u20$for$u20$usize$GT$2lt17h3d6b8eae00df6b0eE", scope: !408, file: !1045, line: 1258, type: !748, scopeLine: 1258, flags: DIFlagPrototyped, spFlags: DISPFlagLocalToUnit | DISPFlagDefinition | DISPFlagOptimized, unit: !26, templateParams: !28, retainedNodes: !28)
!1045 = !DIFile(filename: "library/core/src/cmp.rs", directory: "/rustc/2fd73fabe469357a12c2c974c140f67e7cdd76d0/", checksumkind: CSK_MD5, checksum: "216266272664f97bdd75a5a9e6b6ecd6")
!1046 = distinct !DILocation(line: 507, column: 12, scope: !1047, inlinedAt: !1049)
!1047 = distinct !DISubprogram(name: "next<usize>", linkageName: "_ZN4core4iter5range101_$LT$impl$u20$core..iter..traits..iterator..Iterator$u20$for$u20$core..ops..range..Range$LT$A$GT$$GT$4next17h0bf75b0d411aaeceE", scope: !394, file: !1048, line: 506, type: !748, scopeLine: 506, flags: DIFlagPrototyped, spFlags: DISPFlagLocalToUnit | DISPFlagDefinition | DISPFlagOptimized, unit: !26, templateParams: !28, retainedNodes: !28)
!1048 = !DIFile(filename: "library/core/src/iter/range.rs", directory: "/rustc/2fd73fabe469357a12c2c974c140f67e7cdd76d0/", checksumkind: CSK_MD5, checksum: "fe23579df17f109f3dfee33f341ff9d4")
!1049 = distinct !DILocation(line: 1397, column: 18, scope: !1032, inlinedAt: !1033)
!1050 = !DILocation(line: 507, column: 9, scope: !1047, inlinedAt: !1049)
!1051 = !DILocation(line: 434, column: 22, scope: !1052, inlinedAt: !1054)
!1052 = distinct !DISubprogram(name: "unchecked_add", linkageName: "_ZN4core3num23_$LT$impl$u20$usize$GT$13unchecked_add17h3e5d5637a609f3aeE", scope: !535, file: !1053, line: 431, type: !748, scopeLine: 431, flags: DIFlagPrototyped, spFlags: DISPFlagLocalToUnit | DISPFlagDefinition | DISPFlagOptimized, unit: !26, templateParams: !28, retainedNodes: !28)
!1053 = !DIFile(filename: "library/core/src/num/uint_macros.rs", directory: "/rustc/2fd73fabe469357a12c2c974c140f67e7cdd76d0/", checksumkind: CSK_MD5, checksum: "5308d1208452a53e75e28bb7633fba69")
!1054 = distinct !DILocation(line: 193, column: 22, scope: !1055, inlinedAt: !1056)
!1055 = distinct !DISubprogram(name: "forward_unchecked", linkageName: "_ZN49_$LT$usize$u20$as$u20$core..iter..range..Step$GT$17forward_unchecked17h8eeb84e4142205c4E", scope: !394, file: !1048, line: 191, type: !748, scopeLine: 191, flags: DIFlagPrototyped, spFlags: DISPFlagLocalToUnit | DISPFlagDefinition | DISPFlagOptimized, unit: !26, templateParams: !28, retainedNodes: !28)
!1056 = distinct !DILocation(line: 509, column: 30, scope: !1047, inlinedAt: !1049)
!1057 = !DILocation(line: 1398, column: 13, scope: !1032, inlinedAt: !1033)
!1058 = !DILocation(line: 1398, column: 33, scope: !1032, inlinedAt: !1033)
!1059 = !{i32 0, i32 1114112}
!1060 = !DILocation(line: 1398, column: 43, scope: !1032, inlinedAt: !1033)
!1061 = !DILocation(line: 1290, column: 49, scope: !875)
!1062 = !DILocation(line: 1387, column: 13, scope: !1032, inlinedAt: !1063)
!1063 = distinct !DILocation(line: 1290, column: 36, scope: !875)
!1064 = !DILocation(line: 1386, column: 21, scope: !1032, inlinedAt: !1063)
!1065 = !DILocation(line: 1392, column: 13, scope: !1032, inlinedAt: !1063)
!1066 = !DILocation(line: 1394, column: 43, scope: !1032, inlinedAt: !1063)
!1067 = !DILocation(line: 1394, column: 56, scope: !1032, inlinedAt: !1063)
!1068 = !DILocation(line: 1391, column: 35, scope: !1032, inlinedAt: !1063)
!1069 = !DILocation(line: 1391, column: 41, scope: !1032, inlinedAt: !1063)
!1070 = !DILocation(line: 0, scope: !1032, inlinedAt: !1063)
!1071 = !DILocation(line: 1397, column: 9, scope: !1032, inlinedAt: !1063)
!1072 = !DILocation(line: 1258, column: 52, scope: !1044, inlinedAt: !1073)
!1073 = distinct !DILocation(line: 507, column: 12, scope: !1047, inlinedAt: !1074)
!1074 = distinct !DILocation(line: 1397, column: 18, scope: !1032, inlinedAt: !1063)
!1075 = !DILocation(line: 507, column: 9, scope: !1047, inlinedAt: !1074)
!1076 = !DILocation(line: 434, column: 22, scope: !1052, inlinedAt: !1077)
!1077 = distinct !DILocation(line: 193, column: 22, scope: !1055, inlinedAt: !1078)
!1078 = distinct !DILocation(line: 509, column: 30, scope: !1047, inlinedAt: !1074)
!1079 = !DILocation(line: 1398, column: 13, scope: !1032, inlinedAt: !1063)
!1080 = !DILocation(line: 1398, column: 33, scope: !1032, inlinedAt: !1063)
!1081 = !DILocation(line: 1398, column: 43, scope: !1032, inlinedAt: !1063)
!1082 = !DILocation(line: 1401, column: 29, scope: !1032, inlinedAt: !1063)
!1083 = !DILocation(line: 1291, column: 17, scope: !875)
!1084 = !DILocation(line: 1291, column: 40, scope: !875)
!1085 = !DILocation(line: 1292, column: 36, scope: !875)
!1086 = !DILocation(line: 0, scope: !1087, inlinedAt: !1089)
!1087 = distinct !DISubprogram(name: "write", linkageName: "_ZN4core3fmt11PostPadding5write17h3400f741060dd64cE", scope: !1088, file: !753, line: 1168, type: !748, scopeLine: 1168, flags: DIFlagPrototyped, spFlags: DISPFlagLocalToUnit | DISPFlagDefinition | DISPFlagOptimized, unit: !26, templateParams: !28, retainedNodes: !28)
!1088 = !DINamespace(name: "PostPadding", scope: !13)
!1089 = distinct !DILocation(line: 1292, column: 17, scope: !875)
!1090 = !DILocation(line: 1169, column: 9, scope: !1087, inlinedAt: !1089)
!1091 = !DILocation(line: 1258, column: 52, scope: !1044, inlinedAt: !1092)
!1092 = distinct !DILocation(line: 507, column: 12, scope: !1047, inlinedAt: !1093)
!1093 = distinct !DILocation(line: 1169, column: 18, scope: !1087, inlinedAt: !1089)
!1094 = !DILocation(line: 507, column: 9, scope: !1047, inlinedAt: !1093)
!1095 = !DILocation(line: 434, column: 22, scope: !1052, inlinedAt: !1096)
!1096 = distinct !DILocation(line: 193, column: 22, scope: !1055, inlinedAt: !1097)
!1097 = distinct !DILocation(line: 509, column: 30, scope: !1047, inlinedAt: !1093)
!1098 = !DILocation(line: 1170, column: 13, scope: !1087, inlinedAt: !1089)
!1099 = !{!1100}
!1100 = distinct !{!1100, !1101, !"_ZN4core3fmt11PostPadding5write17h3400f741060dd64cE: argument 0"}
!1101 = distinct !{!1101, !"_ZN4core3fmt11PostPadding5write17h3400f741060dd64cE"}
!1102 = !DILocation(line: 1170, column: 38, scope: !1087, inlinedAt: !1089)
!1103 = !DILocation(line: 1293, column: 17, scope: !875)
!1104 = !DILocation(line: 1294, column: 17, scope: !875)
!1105 = !DILocation(line: 1401, column: 29, scope: !1032, inlinedAt: !1033)
!1106 = !DILocation(line: 1300, column: 17, scope: !875)
!1107 = !DILocation(line: 1300, column: 49, scope: !875)
!1108 = !DILocation(line: 1301, column: 17, scope: !875)
!1109 = !DILocation(line: 1301, column: 40, scope: !875)
!1110 = !DILocation(line: 1302, column: 36, scope: !875)
!1111 = !DILocation(line: 0, scope: !1087, inlinedAt: !1112)
!1112 = distinct !DILocation(line: 1302, column: 17, scope: !875)
!1113 = !DILocation(line: 1169, column: 9, scope: !1087, inlinedAt: !1112)
!1114 = !DILocation(line: 1258, column: 52, scope: !1044, inlinedAt: !1115)
!1115 = distinct !DILocation(line: 507, column: 12, scope: !1047, inlinedAt: !1116)
!1116 = distinct !DILocation(line: 1169, column: 18, scope: !1087, inlinedAt: !1112)
!1117 = !DILocation(line: 507, column: 9, scope: !1047, inlinedAt: !1116)
!1118 = !DILocation(line: 434, column: 22, scope: !1052, inlinedAt: !1119)
!1119 = distinct !DILocation(line: 193, column: 22, scope: !1055, inlinedAt: !1120)
!1120 = distinct !DILocation(line: 509, column: 30, scope: !1047, inlinedAt: !1116)
!1121 = !DILocation(line: 1170, column: 13, scope: !1087, inlinedAt: !1112)
!1122 = !{!1123}
!1123 = distinct !{!1123, !1124, !"_ZN4core3fmt11PostPadding5write17h3400f741060dd64cE: argument 0"}
!1124 = distinct !{!1124, !"_ZN4core3fmt11PostPadding5write17h3400f741060dd64cE"}
!1125 = !DILocation(line: 1170, column: 38, scope: !1087, inlinedAt: !1112)
!1126 = !DILocation(line: 1305, column: 6, scope: !875)
!1127 = distinct !DISubprogram(name: "write_prefix", linkageName: "_ZN4core3fmt9Formatter12pad_integral12write_prefix17h89d94f6859d81915E", scope: !1128, file: !753, line: 1263, type: !748, scopeLine: 1263, flags: DIFlagPrototyped, spFlags: DISPFlagLocalToUnit | DISPFlagDefinition | DISPFlagOptimized, unit: !26, templateParams: !28, retainedNodes: !28)
!1128 = !DINamespace(name: "pad_integral", scope: !1129)
!1129 = !DINamespace(name: "{{impl}}", scope: !13)
!1130 = !DILocation(line: 1264, column: 20, scope: !1127)
!1131 = !DILocation(line: 1265, column: 17, scope: !1127)
!1132 = !DILocation(line: 1265, column: 36, scope: !1127)
!1133 = !DILocation(line: 1267, column: 20, scope: !1127)
!1134 = !DILocation(line: 1267, column: 25, scope: !1127)
!1135 = !DILocation(line: 1267, column: 44, scope: !1127)
!1136 = !DILocation(line: 1267, column: 13, scope: !1127)
!1137 = !DILocation(line: 1268, column: 10, scope: !1127)
!1138 = distinct !DISubprogram(name: "slice_start_index_len_fail", linkageName: "_ZN4core5slice5index26slice_start_index_len_fail17h1218e2e291e3f22cE", scope: !1140, file: !1139, line: 33, type: !748, scopeLine: 33, flags: DIFlagPrototyped | DIFlagNoReturn, spFlags: DISPFlagDefinition | DISPFlagOptimized, unit: !26, templateParams: !28, retainedNodes: !28)
!1139 = !DIFile(filename: "library/core/src/slice/index.rs", directory: "/rustc/2fd73fabe469357a12c2c974c140f67e7cdd76d0/", checksumkind: CSK_MD5, checksum: "05d32fa54efed7351250bd83b0024732")
!1140 = !DINamespace(name: "index", scope: !848)
!1141 = !DILocation(line: 34, column: 5, scope: !1138)
!1142 = !DILocation(line: 314, column: 9, scope: !752, inlinedAt: !1143)
!1143 = distinct !DILocation(line: 34, column: 5, scope: !1138)
!1144 = !{!1145}
!1145 = distinct !{!1145, !1146, !"_ZN4core3fmt9Arguments6new_v117hb7d5c859a9eeb48fE: argument 0"}
!1146 = distinct !{!1146, !"_ZN4core3fmt9Arguments6new_v117hb7d5c859a9eeb48fE"}
!1147 = !{!1148, !1149}
!1148 = distinct !{!1148, !1146, !"_ZN4core3fmt9Arguments6new_v117hb7d5c859a9eeb48fE: argument 1"}
!1149 = distinct !{!1149, !1146, !"_ZN4core3fmt9Arguments6new_v117hb7d5c859a9eeb48fE: argument 2"}
!1150 = distinct !DISubprogram(name: "debug_lower_hex", linkageName: "_ZN4core3fmt9Formatter15debug_lower_hex17hb9158b04f1f1b6d1E", scope: !876, file: !753, line: 1797, type: !748, scopeLine: 1797, flags: DIFlagPrototyped, spFlags: DISPFlagDefinition | DISPFlagOptimized, unit: !26, templateParams: !28, retainedNodes: !28)
!1151 = !DILocation(line: 1798, column: 9, scope: !1150)
!1152 = !DILocation(line: 1799, column: 6, scope: !1150)
!1153 = distinct !DISubprogram(name: "debug_upper_hex", linkageName: "_ZN4core3fmt9Formatter15debug_upper_hex17hdbac3cb457cbbe5cE", scope: !876, file: !753, line: 1801, type: !748, scopeLine: 1801, flags: DIFlagPrototyped, spFlags: DISPFlagDefinition | DISPFlagOptimized, unit: !26, templateParams: !28, retainedNodes: !28)
!1154 = !DILocation(line: 1802, column: 9, scope: !1153)
!1155 = !DILocation(line: 1803, column: 6, scope: !1153)
!1156 = distinct !DISubprogram(name: "fmt", linkageName: "_ZN4core3fmt3num53_$LT$impl$u20$core..fmt..LowerHex$u20$for$u20$i64$GT$3fmt17hc386b79478f7220bE", scope: !770, file: !764, line: 154, type: !748, scopeLine: 154, flags: DIFlagPrototyped, spFlags: DISPFlagDefinition | DISPFlagOptimized, unit: !26, templateParams: !28, retainedNodes: !28)
!1157 = !DILocation(line: 155, column: 32, scope: !1156)
!1158 = !DILocation(line: 72, column: 13, scope: !1159, inlinedAt: !1161)
!1159 = distinct !DISubprogram(name: "fmt_int<core::fmt::num::LowerHex,u64>", linkageName: "_ZN4core3fmt3num12GenericRadix7fmt_int17h283c30abe17eb09fE", scope: !1160, file: !764, line: 67, type: !748, scopeLine: 67, flags: DIFlagPrototyped, spFlags: DISPFlagLocalToUnit | DISPFlagDefinition | DISPFlagOptimized, unit: !26, templateParams: !28, retainedNodes: !28)
!1160 = !DINamespace(name: "GenericRadix", scope: !767)
!1161 = distinct !DILocation(line: 155, column: 17, scope: !1156)
!1162 = !DILocation(line: 72, column: 23, scope: !1159, inlinedAt: !1161)
!1163 = !DILocation(line: 232, column: 18, scope: !1164, inlinedAt: !1165)
!1164 = distinct !DISubprogram(name: "offset<core::mem::maybe_uninit::MaybeUninit<u8>>", linkageName: "_ZN4core3ptr7mut_ptr31_$LT$impl$u20$$BP$mut$u20$T$GT$6offset17ha963e0ded540f8bdE", scope: !799, file: !798, line: 225, type: !748, scopeLine: 225, flags: DIFlagPrototyped, spFlags: DISPFlagLocalToUnit | DISPFlagDefinition | DISPFlagOptimized, unit: !26, templateParams: !28, retainedNodes: !28)
!1165 = distinct !DILocation(line: 610, column: 18, scope: !1166, inlinedAt: !1167)
!1166 = distinct !DISubprogram(name: "add<core::mem::maybe_uninit::MaybeUninit<u8>>", linkageName: "_ZN4core3ptr7mut_ptr31_$LT$impl$u20$$BP$mut$u20$T$GT$3add17h8f1ed1748b1e2f45E", scope: !799, file: !798, line: 605, type: !748, scopeLine: 605, flags: DIFlagPrototyped, spFlags: DISPFlagLocalToUnit | DISPFlagDefinition | DISPFlagOptimized, unit: !26, templateParams: !28, retainedNodes: !28)
!1167 = distinct !DILocation(line: 231, column: 17, scope: !1168, inlinedAt: !1170)
!1168 = distinct !DISubprogram(name: "new<core::mem::maybe_uninit::MaybeUninit<u8>>", linkageName: "_ZN4core5slice4iter16IterMut$LT$T$GT$3new17h17c3a9af2286daa7E", scope: !1169, file: !901, line: 207, type: !748, scopeLine: 207, flags: DIFlagPrototyped, spFlags: DISPFlagLocalToUnit | DISPFlagDefinition | DISPFlagOptimized, unit: !26, templateParams: !28, retainedNodes: !28)
!1169 = !DINamespace(name: "IterMut", scope: !903)
!1170 = distinct !DILocation(line: 703, column: 9, scope: !1171, inlinedAt: !1172)
!1171 = distinct !DISubprogram(name: "iter_mut<core::mem::maybe_uninit::MaybeUninit<u8>>", linkageName: "_ZN4core5slice29_$LT$impl$u20$$u5b$T$u5d$$GT$8iter_mut17h779efeb4de81657dE", scope: !898, file: !897, line: 702, type: !748, scopeLine: 702, flags: DIFlagPrototyped, spFlags: DISPFlagLocalToUnit | DISPFlagDefinition | DISPFlagOptimized, unit: !26, templateParams: !28, retainedNodes: !28)
!1172 = distinct !DILocation(line: 0, scope: !1159, inlinedAt: !1161)
!1173 = !DILocation(line: 78, column: 13, scope: !1159, inlinedAt: !1161)
!1174 = !DILocation(line: 78, column: 25, scope: !1159, inlinedAt: !1161)
!1175 = !DILocation(line: 0, scope: !1159, inlinedAt: !1161)
!1176 = !DILocation(line: 232, column: 18, scope: !1164, inlinedAt: !1177)
!1177 = distinct !DILocation(line: 110, column: 41, scope: !1178, inlinedAt: !1179)
!1178 = distinct !DISubprogram(name: "pre_dec_end<core::mem::maybe_uninit::MaybeUninit<u8>>", linkageName: "_ZN4core5slice4iter16IterMut$LT$T$GT$11pre_dec_end17h099940833bcff967E", scope: !1169, file: !916, line: 102, type: !748, scopeLine: 102, flags: DIFlagPrototyped, spFlags: DISPFlagLocalToUnit | DISPFlagDefinition | DISPFlagOptimized, unit: !26, templateParams: !28, retainedNodes: !28)
!1179 = distinct !DILocation(line: 356, column: 30, scope: !1180, inlinedAt: !1181)
!1180 = distinct !DISubprogram(name: "next_back<core::mem::maybe_uninit::MaybeUninit<u8>>", linkageName: "_ZN109_$LT$core..slice..iter..IterMut$LT$T$GT$$u20$as$u20$core..iter..traits..double_ended..DoubleEndedIterator$GT$9next_back17hcfb988368199fc6fE", scope: !917, file: !916, line: 341, type: !748, scopeLine: 341, flags: DIFlagPrototyped, spFlags: DISPFlagLocalToUnit | DISPFlagDefinition | DISPFlagOptimized, unit: !26, templateParams: !28, retainedNodes: !28)
!1181 = distinct !DILocation(line: 33, column: 9, scope: !1182, inlinedAt: !1186)
!1182 = distinct !DISubprogram(name: "next<core::slice::iter::IterMut<core::mem::maybe_uninit::MaybeUninit<u8>>>", linkageName: "_ZN98_$LT$core..iter..adapters..rev..Rev$LT$I$GT$$u20$as$u20$core..iter..traits..iterator..Iterator$GT$4next17hbcf32e61a3246dd9E", scope: !1184, file: !1183, line: 32, type: !748, scopeLine: 32, flags: DIFlagPrototyped, spFlags: DISPFlagLocalToUnit | DISPFlagDefinition | DISPFlagOptimized, unit: !26, templateParams: !28, retainedNodes: !28)
!1183 = !DIFile(filename: "library/core/src/iter/adapters/rev.rs", directory: "/rustc/2fd73fabe469357a12c2c974c140f67e7cdd76d0/", checksumkind: CSK_MD5, checksum: "78a0369cfded39d825274a306a762cf1")
!1184 = !DINamespace(name: "{{impl}}", scope: !1185)
!1185 = !DINamespace(name: "rev", scope: !928)
!1186 = distinct !DILocation(line: 78, column: 25, scope: !1159, inlinedAt: !1161)
!1187 = !DILocation(line: 467, column: 45, scope: !1188, inlinedAt: !1189)
!1188 = distinct !DISubprogram(name: "div", linkageName: "_ZN45_$LT$u64$u20$as$u20$core..ops..arith..Div$GT$3div17h701072cdbebd0668E", scope: !971, file: !970, line: 467, type: !748, scopeLine: 467, flags: DIFlagPrototyped, spFlags: DISPFlagLocalToUnit | DISPFlagDefinition | DISPFlagOptimized, unit: !26, templateParams: !28, retainedNodes: !28)
!1189 = distinct !DILocation(line: 80, column: 21, scope: !1159, inlinedAt: !1161)
!1190 = !DILocation(line: 42, column: 35, scope: !1191, inlinedAt: !1192)
!1191 = distinct !DISubprogram(name: "to_u8", linkageName: "_ZN50_$LT$u64$u20$as$u20$core..fmt..num..DisplayInt$GT$5to_u817h2b7d67a0912618d4E", scope: !770, file: !764, line: 42, type: !748, scopeLine: 42, flags: DIFlagPrototyped, spFlags: DISPFlagDefinition | DISPFlagOptimized, unit: !26, templateParams: !28, retainedNodes: !28)
!1192 = distinct !DILocation(line: 81, column: 40, scope: !1159, inlinedAt: !1161)
!1193 = !DILocation(line: 147, column: 35, scope: !1194, inlinedAt: !1195)
!1194 = distinct !DISubprogram(name: "digit", linkageName: "_ZN73_$LT$core..fmt..num..LowerHex$u20$as$u20$core..fmt..num..GenericRadix$GT$5digit17h7f04237c58dc6e5aE", scope: !770, file: !764, line: 135, type: !748, scopeLine: 135, flags: DIFlagPrototyped, spFlags: DISPFlagDefinition | DISPFlagOptimized, unit: !26, templateParams: !28, retainedNodes: !28)
!1195 = distinct !DILocation(line: 81, column: 28, scope: !1159, inlinedAt: !1161)
!1196 = !DILocation(line: 410, column: 9, scope: !1197, inlinedAt: !1201)
!1197 = distinct !DISubprogram(name: "write<u8>", linkageName: "_ZN4core3mem12maybe_uninit20MaybeUninit$LT$T$GT$5write17hfaf570588b72d664E", scope: !1199, file: !1198, line: 409, type: !748, scopeLine: 409, flags: DIFlagPrototyped, spFlags: DISPFlagLocalToUnit | DISPFlagDefinition | DISPFlagOptimized, unit: !26, templateParams: !28, retainedNodes: !28)
!1198 = !DIFile(filename: "library/core/src/mem/maybe_uninit.rs", directory: "/rustc/2fd73fabe469357a12c2c974c140f67e7cdd76d0/", checksumkind: CSK_MD5, checksum: "03b43ae1e9b14d05f4f2ba9780321a7a")
!1199 = !DINamespace(name: "MaybeUninit", scope: !1200)
!1200 = !DINamespace(name: "maybe_uninit", scope: !1010)
!1201 = distinct !DILocation(line: 81, column: 17, scope: !1159, inlinedAt: !1161)
!1202 = !DILocation(line: 82, column: 17, scope: !1159, inlinedAt: !1161)
!1203 = !DILocation(line: 1174, column: 52, scope: !1204, inlinedAt: !1205)
!1204 = distinct !DISubprogram(name: "eq", linkageName: "_ZN4core3cmp5impls54_$LT$impl$u20$core..cmp..PartialEq$u20$for$u20$u64$GT$2eq17h3895dcd5e64d1372E", scope: !408, file: !1045, line: 1174, type: !748, scopeLine: 1174, flags: DIFlagPrototyped, spFlags: DISPFlagLocalToUnit | DISPFlagDefinition | DISPFlagOptimized, unit: !26, templateParams: !28, retainedNodes: !28)
!1205 = distinct !DILocation(line: 83, column: 20, scope: !1159, inlinedAt: !1161)
!1206 = !DILocation(line: 83, column: 17, scope: !1159, inlinedAt: !1161)
!1207 = !DILocation(line: 321, column: 12, scope: !1208, inlinedAt: !1210)
!1208 = distinct !DISubprogram(name: "index<core::mem::maybe_uninit::MaybeUninit<u8>>", linkageName: "_ZN110_$LT$core..ops..range..RangeFrom$LT$usize$GT$$u20$as$u20$core..slice..index..SliceIndex$LT$$u5b$T$u5d$$GT$$GT$5index17hedf7d9df0aad7080E", scope: !1209, file: !1139, line: 320, type: !748, scopeLine: 320, flags: DIFlagPrototyped, spFlags: DISPFlagLocalToUnit | DISPFlagDefinition | DISPFlagOptimized, unit: !26, templateParams: !28, retainedNodes: !28)
!1209 = !DINamespace(name: "{{impl}}", scope: !1140)
!1210 = distinct !DILocation(line: 15, column: 9, scope: !1211, inlinedAt: !1212)
!1211 = distinct !DISubprogram(name: "index<core::mem::maybe_uninit::MaybeUninit<u8>,core::ops::range::RangeFrom<usize>>", linkageName: "_ZN4core5slice5index74_$LT$impl$u20$core..ops..index..Index$LT$I$GT$$u20$for$u20$$u5b$T$u5d$$GT$5index17h7ff5650970835343E", scope: !1209, file: !1139, line: 14, type: !748, scopeLine: 14, flags: DIFlagPrototyped, spFlags: DISPFlagLocalToUnit | DISPFlagDefinition | DISPFlagOptimized, unit: !26, templateParams: !28, retainedNodes: !28)
!1212 = distinct !DILocation(line: 222, column: 9, scope: !1213, inlinedAt: !1217)
!1213 = distinct !DISubprogram(name: "index<core::mem::maybe_uninit::MaybeUninit<u8>,core::ops::range::RangeFrom<usize>>", linkageName: "_ZN4core5array85_$LT$impl$u20$core..ops..index..Index$LT$I$GT$$u20$for$u20$$u5b$T$u3b$$u20$N$u5d$$GT$5index17h473b2050ad6bf17aE", scope: !1215, file: !1214, line: 221, type: !748, scopeLine: 221, flags: DIFlagPrototyped, spFlags: DISPFlagLocalToUnit | DISPFlagDefinition | DISPFlagOptimized, unit: !26, templateParams: !28, retainedNodes: !28)
!1214 = !DIFile(filename: "library/core/src/array/mod.rs", directory: "/rustc/2fd73fabe469357a12c2c974c140f67e7cdd76d0/", checksumkind: CSK_MD5, checksum: "aa6f40fdc9c9c608277911b485e34b87")
!1215 = !DINamespace(name: "{{impl}}", scope: !1216)
!1216 = !DINamespace(name: "array", scope: !14)
!1217 = distinct !DILocation(line: 101, column: 20, scope: !1159, inlinedAt: !1161)
!1218 = !DILocation(line: 321, column: 9, scope: !1208, inlinedAt: !1210)
!1219 = !DILocation(line: 322, column: 13, scope: !1208, inlinedAt: !1210)
!1220 = !DILocation(line: 225, column: 18, scope: !1221, inlinedAt: !1222)
!1221 = distinct !DISubprogram(name: "offset<core::mem::maybe_uninit::MaybeUninit<u8>>", linkageName: "_ZN4core3ptr9const_ptr33_$LT$impl$u20$$BP$const$u20$T$GT$6offset17h794c34578eed1a67E", scope: !792, file: !791, line: 220, type: !748, scopeLine: 220, flags: DIFlagPrototyped, spFlags: DISPFlagLocalToUnit | DISPFlagDefinition | DISPFlagOptimized, unit: !26, templateParams: !28, retainedNodes: !28)
!1222 = distinct !DILocation(line: 503, column: 18, scope: !1223, inlinedAt: !1224)
!1223 = distinct !DISubprogram(name: "add<core::mem::maybe_uninit::MaybeUninit<u8>>", linkageName: "_ZN4core3ptr9const_ptr33_$LT$impl$u20$$BP$const$u20$T$GT$3add17h9cf2c31ca6963d3cE", scope: !792, file: !791, line: 498, type: !748, scopeLine: 498, flags: DIFlagPrototyped, spFlags: DISPFlagLocalToUnit | DISPFlagDefinition | DISPFlagOptimized, unit: !26, templateParams: !28, retainedNodes: !28)
!1224 = distinct !DILocation(line: 222, column: 44, scope: !1225, inlinedAt: !1226)
!1225 = distinct !DISubprogram(name: "get_unchecked<core::mem::maybe_uninit::MaybeUninit<u8>>", linkageName: "_ZN106_$LT$core..ops..range..Range$LT$usize$GT$$u20$as$u20$core..slice..index..SliceIndex$LT$$u5b$T$u5d$$GT$$GT$13get_unchecked17h6e510c1e14762a4aE", scope: !1209, file: !1139, line: 217, type: !748, scopeLine: 217, flags: DIFlagPrototyped, spFlags: DISPFlagLocalToUnit | DISPFlagDefinition | DISPFlagOptimized, unit: !26, templateParams: !28, retainedNodes: !28)
!1226 = distinct !DILocation(line: 310, column: 18, scope: !1227, inlinedAt: !1228)
!1227 = distinct !DISubprogram(name: "get_unchecked<core::mem::maybe_uninit::MaybeUninit<u8>>", linkageName: "_ZN110_$LT$core..ops..range..RangeFrom$LT$usize$GT$$u20$as$u20$core..slice..index..SliceIndex$LT$$u5b$T$u5d$$GT$$GT$13get_unchecked17h71e67ac7217363c9E", scope: !1209, file: !1139, line: 308, type: !748, scopeLine: 308, flags: DIFlagPrototyped, spFlags: DISPFlagLocalToUnit | DISPFlagDefinition | DISPFlagOptimized, unit: !26, templateParams: !28, retainedNodes: !28)
!1228 = distinct !DILocation(line: 325, column: 20, scope: !1208, inlinedAt: !1210)
!1229 = !DILocation(line: 222, column: 76, scope: !1225, inlinedAt: !1226)
!1230 = !DILocation(line: 273, column: 14, scope: !842, inlinedAt: !1231)
!1231 = distinct !DILocation(line: 96, column: 16, scope: !845, inlinedAt: !1232)
!1232 = distinct !DILocation(line: 105, column: 38, scope: !1159, inlinedAt: !1161)
!1233 = !DILocation(line: 110, column: 9, scope: !1159, inlinedAt: !1161)
!1234 = !DILocation(line: 156, column: 14, scope: !1156)
!1235 = distinct !DISubprogram(name: "fmt", linkageName: "_ZN4core3fmt3num53_$LT$impl$u20$core..fmt..UpperHex$u20$for$u20$i64$GT$3fmt17h5804edae826a5de1E", scope: !770, file: !764, line: 154, type: !748, scopeLine: 154, flags: DIFlagPrototyped, spFlags: DISPFlagDefinition | DISPFlagOptimized, unit: !26, templateParams: !28, retainedNodes: !28)
!1236 = !DILocation(line: 155, column: 32, scope: !1235)
!1237 = !DILocation(line: 72, column: 13, scope: !1238, inlinedAt: !1239)
!1238 = distinct !DISubprogram(name: "fmt_int<core::fmt::num::UpperHex,u64>", linkageName: "_ZN4core3fmt3num12GenericRadix7fmt_int17h8ec166b68c1d9a2cE", scope: !1160, file: !764, line: 67, type: !748, scopeLine: 67, flags: DIFlagPrototyped, spFlags: DISPFlagLocalToUnit | DISPFlagDefinition | DISPFlagOptimized, unit: !26, templateParams: !28, retainedNodes: !28)
!1239 = distinct !DILocation(line: 155, column: 17, scope: !1235)
