; ModuleID = '/home/ubuntu/container-data/primes/target/debug/deps/primes-734ee4e948b4d20b.ll'
source_filename = "primes.j8ktdhq9-cgu.0"
target datalayout = "e-m:e-p270:32:32-p271:32:32-p272:64:64-i64:64-f80:128-n8:16:32:64-S128"
target triple = "x86_64-unknown-linux-gnu"

%"core::fmt::Formatter" = type { [0 x i64], { i64, i64 }, [0 x i64], { i64, i64 }, [0 x i64], { {}*, [3 x i64]* }, [0 x i32], i32, [0 x i32], i32, [0 x i8], i8, [7 x i8] }
%"core::fmt::Opaque" = type {}
%"core::fmt::Arguments" = type { [0 x i64], { [0 x { [0 x i8]*, i64 }]*, i64 }, [0 x i64], { i64*, i64 }, [0 x i64], { [0 x { i8*, i64* }]*, i64 }, [0 x i64] }
%"core::option::Option<usize>::Some" = type { [1 x i64], i64, [0 x i64] }
%"klee_sys::CStr" = type { [0 x i8], [0 x i8] }
%"core::panic::Location" = type { [0 x i64], { [0 x i8]*, i64 }, [0 x i32], i32, [0 x i32], i32, [0 x i32] }
%"panic::PanicInfo" = type { [0 x i64], { {}*, [3 x i64]* }, [0 x i64], i64*, [0 x i64], %"core::panic::Location"*, [0 x i64] }
%"core::mem::MaybeUninit<core::ptr::swap_nonoverlapping_bytes::UnalignedBlock>" = type { [4 x i64] }
%"hash::sip::State" = type { [0 x i64], i64, [0 x i64], i64, [0 x i64], i64, [0 x i64], i64, [0 x i64] }

@alloc20 = private unnamed_addr constant <{ [11 x i8] }> <{ [11 x i8] c"src/main.rs" }>, align 1
@alloc17 = private unnamed_addr constant <{ i8*, [16 x i8] }> <{ i8* getelementptr inbounds (<{ [11 x i8] }>, <{ [11 x i8] }>* @alloc20, i32 0, i32 0, i32 0), [16 x i8] c"\0B\00\00\00\00\00\00\00\16\00\00\00\11\00\00\00" }>, align 8
@str.0 = internal constant [33 x i8] c"attempt to subtract with overflow"
@alloc19 = private unnamed_addr constant <{ i8*, [16 x i8] }> <{ i8* getelementptr inbounds (<{ [11 x i8] }>, <{ [11 x i8] }>* @alloc20, i32 0, i32 0, i32 0), [16 x i8] c"\0B\00\00\00\00\00\00\00\17\00\00\00\0C\00\00\00" }>, align 8
@str.1 = internal constant [57 x i8] c"attempt to calculate the remainder with a divisor of zero"
@alloc5 = private unnamed_addr constant <{ [45 x i8] }> <{ [45 x i8] c"assertion failed: `(left == right)`\0A  left: `" }>, align 1
@alloc7 = private unnamed_addr constant <{ [12 x i8] }> <{ [12 x i8] c"`,\0A right: `" }>, align 1
@alloc8 = private unnamed_addr constant <{ [1 x i8] }> <{ [1 x i8] c"`" }>, align 1
@alloc6 = private unnamed_addr constant <{ i8*, [8 x i8], i8*, [8 x i8], i8*, [8 x i8] }> <{ i8* getelementptr inbounds (<{ [45 x i8] }>, <{ [45 x i8] }>* @alloc5, i32 0, i32 0, i32 0), [8 x i8] c"-\00\00\00\00\00\00\00", i8* getelementptr inbounds (<{ [12 x i8] }>, <{ [12 x i8] }>* @alloc7, i32 0, i32 0, i32 0), [8 x i8] c"\0C\00\00\00\00\00\00\00", i8* getelementptr inbounds (<{ [1 x i8] }>, <{ [1 x i8] }>* @alloc8, i32 0, i32 0, i32 0), [8 x i8] c"\01\00\00\00\00\00\00\00" }>, align 8
@alloc21 = private unnamed_addr constant <{ i8*, [16 x i8] }> <{ i8* getelementptr inbounds (<{ [11 x i8] }>, <{ [11 x i8] }>* @alloc20, i32 0, i32 0, i32 0), [16 x i8] c"\0B\00\00\00\00\00\00\00 \00\00\00\05\00\00\00" }>, align 8
@alloc22 = private unnamed_addr constant <{ [2 x i8] }> <{ [2 x i8] c"n\00" }>, align 1
@anon.965c706604096d42e5b155eaa3c30edf.12 = private unnamed_addr constant <{ [0 x i8] }> zeroinitializer, align 8
@anon.965c706604096d42e5b155eaa3c30edf.177 = private unnamed_addr constant { void ({}*)*, i64, i64, i64 ({}*)* } { void ({}*)* bitcast (void ({ i8*, i8* }**)* @"_ZN4core3ptr102drop_in_place$LT$$RF$core..iter..adapters..copied..Copied$LT$core..slice..iter..Iter$LT$u8$GT$$GT$$GT$17h5913dccf4681891cE" to void ({}*)*), i64 0, i64 1, i64 ({}*)* @"_ZN36_$LT$T$u20$as$u20$core..any..Any$GT$7type_id17h108f63b8120e9c9cE" }, align 8
@anon.965c706604096d42e5b155eaa3c30edf.232 = private unnamed_addr constant <{ [4 x i8] }> <{ [4 x i8] c"true" }>, align 1
@anon.965c706604096d42e5b155eaa3c30edf.233 = private unnamed_addr constant <{ [5 x i8] }> <{ [5 x i8] c"false" }>, align 1
@.str = private unnamed_addr constant [58 x i8] c"/home/ubuntu/klee/runtime/Intrinsic/klee_div_zero_check.c\00", align 1
@.str.1 = private unnamed_addr constant [15 x i8] c"divide by zero\00", align 1
@.str.2 = private unnamed_addr constant [8 x i8] c"div.err\00", align 1

; Function Attrs: inlinehint nounwind nonlazybind
define internal zeroext i1 @"_ZN41_$LT$bool$u20$as$u20$core..fmt..Debug$GT$3fmt17hbbdad82e961c64d2E"(i8* noalias readonly align 1 dereferenceable(1) %self, %"core::fmt::Formatter"* align 8 dereferenceable(64) %f) unnamed_addr #0 !dbg !393 {
start:
  %f.dbg.spill = alloca %"core::fmt::Formatter"*, align 8
  %self.dbg.spill = alloca i8*, align 8
  store i8* %self, i8** %self.dbg.spill, align 8
  call void @llvm.dbg.declare(metadata i8** %self.dbg.spill, metadata !430, metadata !DIExpression()), !dbg !432
  store %"core::fmt::Formatter"* %f, %"core::fmt::Formatter"** %f.dbg.spill, align 8
  call void @llvm.dbg.declare(metadata %"core::fmt::Formatter"** %f.dbg.spill, metadata !431, metadata !DIExpression()), !dbg !433
  %0 = call zeroext i1 @"_ZN43_$LT$bool$u20$as$u20$core..fmt..Display$GT$3fmt17h68936f9faabe396cE"(i8* noalias readonly align 1 dereferenceable(1) %self, %"core::fmt::Formatter"* align 8 dereferenceable(64) %f), !dbg !434
  ret i1 %0, !dbg !435
}

; Function Attrs: nounwind nonlazybind
define internal zeroext i1 @"_ZN42_$LT$$RF$T$u20$as$u20$core..fmt..Debug$GT$3fmt17h1e688dea0c748a2dE"(i8** noalias readonly align 8 dereferenceable(8) %self, %"core::fmt::Formatter"* align 8 dereferenceable(64) %f) unnamed_addr #1 !dbg !436 {
start:
  %f.dbg.spill = alloca %"core::fmt::Formatter"*, align 8
  %self.dbg.spill = alloca i8**, align 8
  store i8** %self, i8*** %self.dbg.spill, align 8
  call void @llvm.dbg.declare(metadata i8*** %self.dbg.spill, metadata !441, metadata !DIExpression()), !dbg !445
  store %"core::fmt::Formatter"* %f, %"core::fmt::Formatter"** %f.dbg.spill, align 8
  call void @llvm.dbg.declare(metadata %"core::fmt::Formatter"** %f.dbg.spill, metadata !442, metadata !DIExpression()), !dbg !446
  %_4 = load i8*, i8** %self, align 8, !dbg !447, !nonnull !28
  %0 = call zeroext i1 @"_ZN41_$LT$bool$u20$as$u20$core..fmt..Debug$GT$3fmt17hbbdad82e961c64d2E"(i8* noalias readonly align 1 dereferenceable(1) %_4, %"core::fmt::Formatter"* align 8 dereferenceable(64) %f), !dbg !448
  ret i1 %0, !dbg !449
}

; Function Attrs: inlinehint norecurse nounwind nonlazybind readnone
define internal i64 @"_ZN49_$LT$usize$u20$as$u20$core..iter..range..Step$GT$17forward_unchecked17he3b104086c00f484E"(i64 %start1, i64 %n) unnamed_addr #2 !dbg !450 {
start:
  %n.dbg.spill = alloca i64, align 8
  %start.dbg.spill = alloca i64, align 8
  store i64 %start1, i64* %start.dbg.spill, align 8
  call void @llvm.dbg.declare(metadata i64* %start.dbg.spill, metadata !458, metadata !DIExpression()), !dbg !460
  store i64 %n, i64* %n.dbg.spill, align 8
  call void @llvm.dbg.declare(metadata i64* %n.dbg.spill, metadata !459, metadata !DIExpression()), !dbg !461
  %0 = call i64 @"_ZN4core3num23_$LT$impl$u20$usize$GT$13unchecked_add17h07e9c748368d816cE"(i64 %start1, i64 %n), !dbg !462
  ret i64 %0, !dbg !463
}

; Function Attrs: inlinehint norecurse nounwind nonlazybind readonly
define internal zeroext i1 @"_ZN4core3cmp5impls57_$LT$impl$u20$core..cmp..PartialOrd$u20$for$u20$usize$GT$2lt17h79f54d1533900ab1E"(i64* noalias readonly align 8 dereferenceable(8) %self, i64* noalias readonly align 8 dereferenceable(8) %other) unnamed_addr #3 !dbg !464 {
start:
  %other.dbg.spill = alloca i64*, align 8
  %self.dbg.spill = alloca i64*, align 8
  store i64* %self, i64** %self.dbg.spill, align 8
  call void @llvm.dbg.declare(metadata i64** %self.dbg.spill, metadata !471, metadata !DIExpression()), !dbg !473
  store i64* %other, i64** %other.dbg.spill, align 8
  call void @llvm.dbg.declare(metadata i64** %other.dbg.spill, metadata !472, metadata !DIExpression()), !dbg !474
  %_3 = load i64, i64* %self, align 8, !dbg !475
  %_4 = load i64, i64* %other, align 8, !dbg !476
  %0 = icmp ult i64 %_3, %_4, !dbg !475
  ret i1 %0, !dbg !477
}

; Function Attrs: norecurse nounwind nonlazybind readnone
define internal { i8*, i64* } @_ZN4core3fmt10ArgumentV13new17hf1032d8672fab895E(i8** noalias readonly align 8 dereferenceable(8) %x, i1 (i8**, %"core::fmt::Formatter"*)* nonnull %f) unnamed_addr #4 !dbg !478 {
start:
  %0 = alloca %"core::fmt::Opaque"*, align 8
  %1 = alloca i1 (%"core::fmt::Opaque"*, %"core::fmt::Formatter"*)*, align 8
  %f.dbg.spill = alloca i1 (i8**, %"core::fmt::Formatter"*)*, align 8
  %x.dbg.spill = alloca i8**, align 8
  %2 = alloca { i8*, i64* }, align 8
  store i8** %x, i8*** %x.dbg.spill, align 8
  call void @llvm.dbg.declare(metadata i8*** %x.dbg.spill, metadata !492, metadata !DIExpression()), !dbg !496
  store i1 (i8**, %"core::fmt::Formatter"*)* %f, i1 (i8**, %"core::fmt::Formatter"*)** %f.dbg.spill, align 8
  call void @llvm.dbg.declare(metadata i1 (i8**, %"core::fmt::Formatter"*)** %f.dbg.spill, metadata !493, metadata !DIExpression()), !dbg !497
  %3 = bitcast i1 (i8**, %"core::fmt::Formatter"*)* %f to i1 (%"core::fmt::Opaque"*, %"core::fmt::Formatter"*)*, !dbg !498
  store i1 (%"core::fmt::Opaque"*, %"core::fmt::Formatter"*)* %3, i1 (%"core::fmt::Opaque"*, %"core::fmt::Formatter"*)** %1, align 8, !dbg !498
  %_3 = load i1 (%"core::fmt::Opaque"*, %"core::fmt::Formatter"*)*, i1 (%"core::fmt::Opaque"*, %"core::fmt::Formatter"*)** %1, align 8, !dbg !498, !nonnull !28
  %4 = bitcast i8** %x to %"core::fmt::Opaque"*, !dbg !499
  store %"core::fmt::Opaque"* %4, %"core::fmt::Opaque"** %0, align 8, !dbg !499
  %_5 = load %"core::fmt::Opaque"*, %"core::fmt::Opaque"** %0, align 8, !dbg !499, !nonnull !28
  %5 = bitcast { i8*, i64* }* %2 to %"core::fmt::Opaque"**, !dbg !500
  store %"core::fmt::Opaque"* %_5, %"core::fmt::Opaque"** %5, align 8, !dbg !500
  %6 = getelementptr inbounds { i8*, i64* }, { i8*, i64* }* %2, i32 0, i32 1, !dbg !500
  %7 = bitcast i64** %6 to i1 (%"core::fmt::Opaque"*, %"core::fmt::Formatter"*)**, !dbg !500
  store i1 (%"core::fmt::Opaque"*, %"core::fmt::Formatter"*)* %_3, i1 (%"core::fmt::Opaque"*, %"core::fmt::Formatter"*)** %7, align 8, !dbg !500
  %8 = getelementptr inbounds { i8*, i64* }, { i8*, i64* }* %2, i32 0, i32 0, !dbg !501
  %9 = load i8*, i8** %8, align 8, !dbg !501, !nonnull !28
  %10 = getelementptr inbounds { i8*, i64* }, { i8*, i64* }* %2, i32 0, i32 1, !dbg !501
  %11 = load i64*, i64** %10, align 8, !dbg !501, !nonnull !28
  %12 = insertvalue { i8*, i64* } undef, i8* %9, 0, !dbg !501
  %13 = insertvalue { i8*, i64* } %12, i64* %11, 1, !dbg !501
  ret { i8*, i64* } %13, !dbg !501
}

; Function Attrs: inlinehint nofree norecurse nounwind nonlazybind writeonly
define internal void @_ZN4core3fmt9Arguments6new_v117hc0cebfa07679db19E(%"core::fmt::Arguments"* noalias nocapture sret dereferenceable(48) %0, [0 x { [0 x i8]*, i64 }]* noalias nonnull readonly align 8 %pieces.0, i64 %pieces.1, [0 x { i8*, i64* }]* noalias nonnull readonly align 8 %args.0, i64 %args.1) unnamed_addr #5 !dbg !502 {
start:
  %args.dbg.spill = alloca { [0 x { i8*, i64* }]*, i64 }, align 8
  %pieces.dbg.spill = alloca { [0 x { [0 x i8]*, i64 }]*, i64 }, align 8
  %_4 = alloca { i64*, i64 }, align 8
  %1 = getelementptr inbounds { [0 x { [0 x i8]*, i64 }]*, i64 }, { [0 x { [0 x i8]*, i64 }]*, i64 }* %pieces.dbg.spill, i32 0, i32 0
  store [0 x { [0 x i8]*, i64 }]* %pieces.0, [0 x { [0 x i8]*, i64 }]** %1, align 8
  %2 = getelementptr inbounds { [0 x { [0 x i8]*, i64 }]*, i64 }, { [0 x { [0 x i8]*, i64 }]*, i64 }* %pieces.dbg.spill, i32 0, i32 1
  store i64 %pieces.1, i64* %2, align 8
  call void @llvm.dbg.declare(metadata { [0 x { [0 x i8]*, i64 }]*, i64 }* %pieces.dbg.spill, metadata !568, metadata !DIExpression()), !dbg !570
  %3 = getelementptr inbounds { [0 x { i8*, i64* }]*, i64 }, { [0 x { i8*, i64* }]*, i64 }* %args.dbg.spill, i32 0, i32 0
  store [0 x { i8*, i64* }]* %args.0, [0 x { i8*, i64* }]** %3, align 8
  %4 = getelementptr inbounds { [0 x { i8*, i64* }]*, i64 }, { [0 x { i8*, i64* }]*, i64 }* %args.dbg.spill, i32 0, i32 1
  store i64 %args.1, i64* %4, align 8
  call void @llvm.dbg.declare(metadata { [0 x { i8*, i64* }]*, i64 }* %args.dbg.spill, metadata !569, metadata !DIExpression()), !dbg !571
  %5 = bitcast { i64*, i64 }* %_4 to {}**, !dbg !572
  store {}* null, {}** %5, align 8, !dbg !572
  %6 = bitcast %"core::fmt::Arguments"* %0 to { [0 x { [0 x i8]*, i64 }]*, i64 }*, !dbg !573
  %7 = getelementptr inbounds { [0 x { [0 x i8]*, i64 }]*, i64 }, { [0 x { [0 x i8]*, i64 }]*, i64 }* %6, i32 0, i32 0, !dbg !573
  store [0 x { [0 x i8]*, i64 }]* %pieces.0, [0 x { [0 x i8]*, i64 }]** %7, align 8, !dbg !573
  %8 = getelementptr inbounds { [0 x { [0 x i8]*, i64 }]*, i64 }, { [0 x { [0 x i8]*, i64 }]*, i64 }* %6, i32 0, i32 1, !dbg !573
  store i64 %pieces.1, i64* %8, align 8, !dbg !573
  %9 = getelementptr inbounds %"core::fmt::Arguments", %"core::fmt::Arguments"* %0, i32 0, i32 3, !dbg !573
  %10 = getelementptr inbounds { i64*, i64 }, { i64*, i64 }* %_4, i32 0, i32 0, !dbg !573
  %11 = load i64*, i64** %10, align 8, !dbg !573
  %12 = getelementptr inbounds { i64*, i64 }, { i64*, i64 }* %_4, i32 0, i32 1, !dbg !573
  %13 = load i64, i64* %12, align 8, !dbg !573
  %14 = getelementptr inbounds { i64*, i64 }, { i64*, i64 }* %9, i32 0, i32 0, !dbg !573
  store i64* %11, i64** %14, align 8, !dbg !573
  %15 = getelementptr inbounds { i64*, i64 }, { i64*, i64 }* %9, i32 0, i32 1, !dbg !573
  store i64 %13, i64* %15, align 8, !dbg !573
  %16 = getelementptr inbounds %"core::fmt::Arguments", %"core::fmt::Arguments"* %0, i32 0, i32 5, !dbg !573
  %17 = getelementptr inbounds { [0 x { i8*, i64* }]*, i64 }, { [0 x { i8*, i64* }]*, i64 }* %16, i32 0, i32 0, !dbg !573
  store [0 x { i8*, i64* }]* %args.0, [0 x { i8*, i64* }]** %17, align 8, !dbg !573
  %18 = getelementptr inbounds { [0 x { i8*, i64* }]*, i64 }, { [0 x { i8*, i64* }]*, i64 }* %16, i32 0, i32 1, !dbg !573
  store i64 %args.1, i64* %18, align 8, !dbg !573
  ret void, !dbg !574
}

; Function Attrs: inlinehint norecurse nounwind nonlazybind readnone
define internal i64 @"_ZN4core3num23_$LT$impl$u20$usize$GT$13unchecked_add17h07e9c748368d816cE"(i64 %self, i64 %rhs) unnamed_addr #2 !dbg !575 {
start:
  %0 = alloca i64, align 8
  %rhs.dbg.spill = alloca i64, align 8
  %self.dbg.spill = alloca i64, align 8
  store i64 %self, i64* %self.dbg.spill, align 8
  call void @llvm.dbg.declare(metadata i64* %self.dbg.spill, metadata !580, metadata !DIExpression()), !dbg !582
  store i64 %rhs, i64* %rhs.dbg.spill, align 8
  call void @llvm.dbg.declare(metadata i64* %rhs.dbg.spill, metadata !581, metadata !DIExpression()), !dbg !583
  %1 = add nuw i64 %self, %rhs, !dbg !584
  store i64 %1, i64* %0, align 8, !dbg !584
  %2 = load i64, i64* %0, align 8, !dbg !584
  ret i64 %2, !dbg !585
}

; Function Attrs: inlinehint nounwind nonlazybind
define internal { i64, i64 } @"_ZN4core4iter5range101_$LT$impl$u20$core..iter..traits..iterator..Iterator$u20$for$u20$core..ops..range..Range$LT$A$GT$$GT$4next17he5d90fe4aa83f56bE"({ i64, i64 }* align 8 dereferenceable(16) %self) unnamed_addr #0 !dbg !586 {
start:
  %n.dbg.spill = alloca i64, align 8
  %self.dbg.spill = alloca { i64, i64 }*, align 8
  %0 = alloca { i64, i64 }, align 8
  store { i64, i64 }* %self, { i64, i64 }** %self.dbg.spill, align 8
  call void @llvm.dbg.declare(metadata { i64, i64 }** %self.dbg.spill, metadata !599, metadata !DIExpression()), !dbg !604
  %_3 = bitcast { i64, i64 }* %self to i64*, !dbg !605
  %_4 = getelementptr inbounds { i64, i64 }, { i64, i64 }* %self, i32 0, i32 1, !dbg !606
  %_2 = call zeroext i1 @"_ZN4core3cmp5impls57_$LT$impl$u20$core..cmp..PartialOrd$u20$for$u20$usize$GT$2lt17h79f54d1533900ab1E"(i64* noalias readonly align 8 dereferenceable(8) %_3, i64* noalias readonly align 8 dereferenceable(8) %_4), !dbg !605
  br i1 %_2, label %bb2, label %bb3, !dbg !607

bb2:                                              ; preds = %start
  %_7 = bitcast { i64, i64 }* %self to i64*, !dbg !608
  %_6 = call i64 @"_ZN4core5clone5impls54_$LT$impl$u20$core..clone..Clone$u20$for$u20$usize$GT$5clone17h6f6aa62c521a810fE"(i64* noalias readonly align 8 dereferenceable(8) %_7), !dbg !608
  %n = call i64 @"_ZN49_$LT$usize$u20$as$u20$core..iter..range..Step$GT$17forward_unchecked17he3b104086c00f484E"(i64 %_6, i64 1), !dbg !609
  store i64 %n, i64* %n.dbg.spill, align 8, !dbg !609
  call void @llvm.dbg.declare(metadata i64* %n.dbg.spill, metadata !600, metadata !DIExpression()), !dbg !610
  %_10 = bitcast { i64, i64 }* %self to i64*, !dbg !611
  %_8 = call i64 @_ZN4core3mem7replace17hf3b6497db9e66a68E(i64* align 8 dereferenceable(8) %_10, i64 %n), !dbg !612
  %1 = bitcast { i64, i64 }* %0 to %"core::option::Option<usize>::Some"*, !dbg !613
  %2 = getelementptr inbounds %"core::option::Option<usize>::Some", %"core::option::Option<usize>::Some"* %1, i32 0, i32 1, !dbg !613
  store i64 %_8, i64* %2, align 8, !dbg !613
  %3 = bitcast { i64, i64 }* %0 to i64*, !dbg !613
  store i64 1, i64* %3, align 8, !dbg !613
  br label %bb7, !dbg !607

bb3:                                              ; preds = %start
  %4 = bitcast { i64, i64 }* %0 to i64*, !dbg !614
  store i64 0, i64* %4, align 8, !dbg !614
  br label %bb7, !dbg !607

bb7:                                              ; preds = %bb3, %bb2
  %5 = getelementptr inbounds { i64, i64 }, { i64, i64 }* %0, i32 0, i32 0, !dbg !615
  %6 = load i64, i64* %5, align 8, !dbg !615, !range !616
  %7 = getelementptr inbounds { i64, i64 }, { i64, i64 }* %0, i32 0, i32 1, !dbg !615
  %8 = load i64, i64* %7, align 8, !dbg !615
  %9 = insertvalue { i64, i64 } undef, i64 %6, 0, !dbg !615
  %10 = insertvalue { i64, i64 } %9, i64 %8, 1, !dbg !615
  ret { i64, i64 } %10, !dbg !615
}

; Function Attrs: inlinehint norecurse nounwind nonlazybind readonly
define internal i64 @"_ZN4core5clone5impls54_$LT$impl$u20$core..clone..Clone$u20$for$u20$usize$GT$5clone17h6f6aa62c521a810fE"(i64* noalias readonly align 8 dereferenceable(8) %self) unnamed_addr #3 !dbg !617 {
start:
  %self.dbg.spill = alloca i64*, align 8
  store i64* %self, i64** %self.dbg.spill, align 8
  call void @llvm.dbg.declare(metadata i64** %self.dbg.spill, metadata !625, metadata !DIExpression()), !dbg !626
  %0 = load i64, i64* %self, align 8, !dbg !627
  ret i64 %0, !dbg !628
}

; Function Attrs: norecurse nounwind nonlazybind readnone
define internal { i64, i64 } @"_ZN63_$LT$I$u20$as$u20$core..iter..traits..collect..IntoIterator$GT$9into_iter17hb4833e6104678c19E"(i64 %self.0, i64 %self.1) unnamed_addr #4 !dbg !629 {
start:
  %self.dbg.spill = alloca { i64, i64 }, align 8
  %0 = getelementptr inbounds { i64, i64 }, { i64, i64 }* %self.dbg.spill, i32 0, i32 0
  store i64 %self.0, i64* %0, align 8
  %1 = getelementptr inbounds { i64, i64 }, { i64, i64 }* %self.dbg.spill, i32 0, i32 1
  store i64 %self.1, i64* %1, align 8
  call void @llvm.dbg.declare(metadata { i64, i64 }* %self.dbg.spill, metadata !637, metadata !DIExpression()), !dbg !640
  %2 = insertvalue { i64, i64 } undef, i64 %self.0, 0, !dbg !641
  %3 = insertvalue { i64, i64 } %2, i64 %self.1, 1, !dbg !641
  ret { i64, i64 } %3, !dbg !641
}

; Function Attrs: inlinehint norecurse nounwind nonlazybind readnone
define internal { %"klee_sys::CStr"*, i64 } @_ZN9cstr_core4CStr29from_bytes_with_nul_unchecked17hd578fe73d06082acE([0 x i8]* noalias nonnull readonly align 1 %bytes.0, i64 %bytes.1) unnamed_addr #2 !dbg !642 {
start:
  %bytes.dbg.spill = alloca { [0 x i8]*, i64 }, align 8
  %0 = getelementptr inbounds { [0 x i8]*, i64 }, { [0 x i8]*, i64 }* %bytes.dbg.spill, i32 0, i32 0
  store [0 x i8]* %bytes.0, [0 x i8]** %0, align 8
  %1 = getelementptr inbounds { [0 x i8]*, i64 }, { [0 x i8]*, i64 }* %bytes.dbg.spill, i32 0, i32 1
  store i64 %bytes.1, i64* %1, align 8
  call void @llvm.dbg.declare(metadata { [0 x i8]*, i64 }* %bytes.dbg.spill, metadata !658, metadata !DIExpression()), !dbg !659
  %_2.0 = bitcast [0 x i8]* %bytes.0 to %"klee_sys::CStr"*, !dbg !660
  %2 = insertvalue { %"klee_sys::CStr"*, i64 } undef, %"klee_sys::CStr"* %_2.0, 0, !dbg !661
  %3 = insertvalue { %"klee_sys::CStr"*, i64 } %2, i64 %bytes.1, 1, !dbg !661
  ret { %"klee_sys::CStr"*, i64 } %3, !dbg !661
}

; Function Attrs: inlinehint norecurse nounwind nonlazybind readnone
define internal nonnull i8* @_ZN9cstr_core4CStr6as_ptr17hcecb48312159a4a6E(%"klee_sys::CStr"* noalias nonnull readonly align 1 %self.0, i64 %self.1) unnamed_addr #2 !dbg !662 {
start:
  %self.dbg.spill = alloca { %"klee_sys::CStr"*, i64 }, align 8
  %0 = getelementptr inbounds { %"klee_sys::CStr"*, i64 }, { %"klee_sys::CStr"*, i64 }* %self.dbg.spill, i32 0, i32 0
  store %"klee_sys::CStr"* %self.0, %"klee_sys::CStr"** %0, align 8
  %1 = getelementptr inbounds { %"klee_sys::CStr"*, i64 }, { %"klee_sys::CStr"*, i64 }* %self.dbg.spill, i32 0, i32 1
  store i64 %self.1, i64* %1, align 8
  call void @llvm.dbg.declare(metadata { %"klee_sys::CStr"*, i64 }* %self.dbg.spill, metadata !667, metadata !DIExpression()), !dbg !668
  %_2.0 = bitcast %"klee_sys::CStr"* %self.0 to [0 x i8]*, !dbg !669
  %2 = call i8* @"_ZN4core5slice29_$LT$impl$u20$$u5b$T$u5d$$GT$6as_ptr17hc11cd399229b063eE"([0 x i8]* noalias nonnull readonly align 1 %_2.0, i64 %self.1), !dbg !669
  ret i8* %2, !dbg !670
}

; Function Attrs: norecurse nounwind nonlazybind readnone
define internal zeroext i1 @_ZN6primes13isprime_wrong17h96f52ba5ffe32583E(i64 %n) unnamed_addr #4 !dbg !671 {
start:
  %n.dbg.spill = alloca i64, align 8
  %_4 = alloca i8, align 1
  %_3 = alloca i8, align 1
  %_2 = alloca i8, align 1
  %0 = alloca i8, align 1
  store i64 %n, i64* %n.dbg.spill, align 8
  call void @llvm.dbg.declare(metadata i64* %n.dbg.spill, metadata !677, metadata !DIExpression()), !dbg !678
  %n.off = add i64 %n, -2, !dbg !679
  %switch = icmp ult i64 %n.off, 2, !dbg !679
  br i1 %switch, label %bb9, label %bb10, !dbg !679

bb1:                                              ; preds = %bb8
  store i8 1, i8* %_2, align 1, !dbg !679
  br label %bb4, !dbg !679

bb2:                                              ; preds = %bb8
  store i8 0, i8* %_2, align 1, !dbg !679
  br label %bb4, !dbg !679

bb4:                                              ; preds = %bb2, %bb1
  %1 = load i8, i8* %_2, align 1, !dbg !680, !range !681
  %2 = trunc i8 %1 to i1, !dbg !680
  br i1 %2, label %bb13, label %bb14, !dbg !680

bb5:                                              ; preds = %bb12
  store i8 1, i8* %_3, align 1, !dbg !679
  br label %bb8, !dbg !679

bb6:                                              ; preds = %bb12
  store i8 0, i8* %_3, align 1, !dbg !679
  br label %bb8, !dbg !679

bb8:                                              ; preds = %bb6, %bb5
  %3 = load i8, i8* %_3, align 1, !dbg !679, !range !681
  %4 = trunc i8 %3 to i1, !dbg !679
  %5 = icmp eq i64 %n, 7
  %or.cond = or i1 %4, %5, !dbg !679
  br i1 %or.cond, label %bb1, label %bb2, !dbg !679

bb9:                                              ; preds = %start
  store i8 1, i8* %_4, align 1, !dbg !679
  br label %bb12, !dbg !679

bb10:                                             ; preds = %start
  store i8 0, i8* %_4, align 1, !dbg !679
  br label %bb12, !dbg !679

bb12:                                             ; preds = %bb10, %bb9
  %6 = load i8, i8* %_4, align 1, !dbg !679, !range !681
  %7 = trunc i8 %6 to i1, !dbg !679
  %8 = icmp eq i64 %n, 5
  %or.cond1 = or i1 %7, %8, !dbg !679
  br i1 %or.cond1, label %bb5, label %bb6, !dbg !679

bb13:                                             ; preds = %bb4
  store i8 1, i8* %0, align 1, !dbg !682
  br label %bb18, !dbg !683

bb14:                                             ; preds = %bb4
  %_9 = urem i64 %n, 2, !dbg !684
  %9 = icmp eq i64 %_9, 0, !dbg !685
  br i1 %9, label %bb15, label %bb16, !dbg !685

bb15:                                             ; preds = %bb14
  store i8 0, i8* %0, align 1, !dbg !686
  br label %bb18, !dbg !687

bb16:                                             ; preds = %bb14
  store i8 1, i8* %0, align 1, !dbg !688
  br label %bb18, !dbg !689

bb18:                                             ; preds = %bb16, %bb15, %bb13
  %10 = load i8, i8* %0, align 1, !dbg !690, !range !681
  %11 = trunc i8 %10 to i1, !dbg !690
  ret i1 %11, !dbg !690
}

; Function Attrs: nounwind nonlazybind
define internal zeroext i1 @_ZN6primes13isprime_check17hee4c830b2cfe391dE(i64 %n) unnamed_addr #1 !dbg !691 {
start:
  %m.dbg.spill = alloca i64, align 8
  %__next.dbg.spill = alloca i64, align 8
  %val.dbg.spill = alloca i64, align 8
  %n.dbg.spill = alloca i64, align 8
  %_10 = alloca { i64, i64 }, align 8
  %iter = alloca { i64, i64 }, align 8
  %_4 = alloca { i64, i64 }, align 8
  %0 = alloca i8, align 1
  store i64 %n, i64* %n.dbg.spill, align 8
  call void @llvm.dbg.declare(metadata i64* %n.dbg.spill, metadata !693, metadata !DIExpression()), !dbg !702
  call void @llvm.dbg.declare(metadata { i64, i64 }* %iter, metadata !694, metadata !DIExpression()), !dbg !703
  %1 = icmp eq i64 %n, 1, !dbg !704
  br i1 %1, label %bb1, label %bb2, !dbg !704

bb1:                                              ; preds = %start
  store i8 0, i8* %0, align 1, !dbg !705
  br label %bb13, !dbg !706

bb2:                                              ; preds = %start
  %2 = zext i64 %n to i128, !dbg !707
  %3 = sub i128 %2, 1, !dbg !707
  %4 = icmp ugt i128 %3, 18446744073709551615, !dbg !707
  %5 = trunc i128 %3 to i64, !dbg !707
  %6 = insertvalue { i64, i1 } undef, i64 %5, 0, !dbg !707
  %7 = insertvalue { i64, i1 } %6, i1 %4, 1, !dbg !707
  %_7.0 = extractvalue { i64, i1 } %7, 0, !dbg !707
  %_7.1 = extractvalue { i64, i1 } %7, 1, !dbg !707
  br i1 %_7.1, label %panic, label %bb3, !dbg !707

bb3:                                              ; preds = %bb2
  %8 = bitcast { i64, i64 }* %_4 to i64*, !dbg !708
  store i64 2, i64* %8, align 8, !dbg !708
  %9 = getelementptr inbounds { i64, i64 }, { i64, i64 }* %_4, i32 0, i32 1, !dbg !708
  store i64 %_7.0, i64* %9, align 8, !dbg !708
  %10 = getelementptr inbounds { i64, i64 }, { i64, i64 }* %_4, i32 0, i32 0, !dbg !708
  %11 = load i64, i64* %10, align 8, !dbg !708
  %12 = getelementptr inbounds { i64, i64 }, { i64, i64 }* %_4, i32 0, i32 1, !dbg !708
  %13 = load i64, i64* %12, align 8, !dbg !708
  %14 = call { i64, i64 } @"_ZN63_$LT$I$u20$as$u20$core..iter..traits..collect..IntoIterator$GT$9into_iter17hb4833e6104678c19E"(i64 %11, i64 %13), !dbg !708
  %_3.0 = extractvalue { i64, i64 } %14, 0, !dbg !708
  %_3.1 = extractvalue { i64, i64 } %14, 1, !dbg !708
  %15 = getelementptr inbounds { i64, i64 }, { i64, i64 }* %iter, i32 0, i32 0, !dbg !708
  store i64 %_3.0, i64* %15, align 8, !dbg !708
  %16 = getelementptr inbounds { i64, i64 }, { i64, i64 }* %iter, i32 0, i32 1, !dbg !708
  store i64 %_3.1, i64* %16, align 8, !dbg !708
  br label %bb5, !dbg !709

bb5:                                              ; preds = %bb10, %bb3
  %17 = call { i64, i64 } @"_ZN4core4iter5range101_$LT$impl$u20$core..iter..traits..iterator..Iterator$u20$for$u20$core..ops..range..Range$LT$A$GT$$GT$4next17he5d90fe4aa83f56bE"({ i64, i64 }* align 8 dereferenceable(16) %iter), !dbg !710
  store { i64, i64 } %17, { i64, i64 }* %_10, align 8, !dbg !710
  %18 = bitcast { i64, i64 }* %_10 to i64*, !dbg !711
  %_13 = load i64, i64* %18, align 8, !dbg !711, !range !616
  %switch = icmp ult i64 %_13, 1, !dbg !711
  br i1 %switch, label %bb7, label %bb9, !dbg !711

bb7:                                              ; preds = %bb5
  store i8 1, i8* %0, align 1, !dbg !712
  br label %bb13, !dbg !713

bb9:                                              ; preds = %bb5
  %19 = bitcast { i64, i64 }* %_10 to %"core::option::Option<usize>::Some"*, !dbg !711
  %20 = getelementptr inbounds %"core::option::Option<usize>::Some", %"core::option::Option<usize>::Some"* %19, i32 0, i32 1, !dbg !711
  %val = load i64, i64* %20, align 8, !dbg !711
  store i64 %val, i64* %val.dbg.spill, align 8, !dbg !711
  call void @llvm.dbg.declare(metadata i64* %val.dbg.spill, metadata !698, metadata !DIExpression()), !dbg !714
  store i64 %val, i64* %__next.dbg.spill, align 8, !dbg !714
  call void @llvm.dbg.declare(metadata i64* %__next.dbg.spill, metadata !696, metadata !DIExpression()), !dbg !710
  store i64 %val, i64* %m.dbg.spill, align 8, !dbg !710
  call void @llvm.dbg.declare(metadata i64* %m.dbg.spill, metadata !700, metadata !DIExpression()), !dbg !715
  %_20 = icmp eq i64 %val, 0, !dbg !716
  br i1 %_20, label %panic1, label %bb10, !dbg !716

bb10:                                             ; preds = %bb9
  call void @klee_div_zero_check(i64 %val), !dbg !716
  %_17 = urem i64 %n, %val, !dbg !716, !klee.check.div !717
  %21 = icmp eq i64 %_17, 0, !dbg !718
  br i1 %21, label %bb11, label %bb5, !dbg !718

bb11:                                             ; preds = %bb10
  store i8 0, i8* %0, align 1, !dbg !719
  br label %bb13, !dbg !706

bb13:                                             ; preds = %bb11, %bb7, %bb1
  %22 = load i8, i8* %0, align 1, !dbg !720, !range !681
  %23 = trunc i8 %22 to i1, !dbg !720
  ret i1 %23, !dbg !720

panic:                                            ; preds = %bb2
  call void @_ZN4core9panicking5panic17h07405d6be4bce887E([0 x i8]* noalias nonnull readonly align 1 bitcast ([33 x i8]* @str.0 to [0 x i8]*), i64 33, %"core::panic::Location"* noalias readonly align 8 dereferenceable(24) bitcast (<{ i8*, [16 x i8] }>* @alloc17 to %"core::panic::Location"*)), !dbg !707
  unreachable, !dbg !707

panic1:                                           ; preds = %bb9
  call void @_ZN4core9panicking5panic17h07405d6be4bce887E([0 x i8]* noalias nonnull readonly align 1 bitcast ([57 x i8]* @str.1 to [0 x i8]*), i64 57, %"core::panic::Location"* noalias readonly align 8 dereferenceable(24) bitcast (<{ i8*, [16 x i8] }>* @alloc19 to %"core::panic::Location"*)), !dbg !716
  unreachable, !dbg !716
}

; Function Attrs: nounwind nonlazybind
define internal void @_ZN6primes10prime_test17he3eb7209752c09d9E(i64 %n) unnamed_addr #1 !dbg !721 {
start:
  %arg1.dbg.spill = alloca i8**, align 8
  %arg0.dbg.spill = alloca i8**, align 8
  %right_val.dbg.spill = alloca i8*, align 8
  %left_val.dbg.spill = alloca i8*, align 8
  %n.dbg.spill = alloca i64, align 8
  %_27 = alloca i8*, align 8
  %_25 = alloca i8*, align 8
  %_23 = alloca { i64*, i64* }, align 8
  %_22 = alloca [2 x { i8*, i64* }], align 8
  %_15 = alloca %"core::fmt::Arguments", align 8
  %_7 = alloca i8, align 1
  %_4 = alloca i8, align 1
  %_2 = alloca { i8*, i8* }, align 8
  store i64 %n, i64* %n.dbg.spill, align 8
  call void @llvm.dbg.declare(metadata i64* %n.dbg.spill, metadata !725, metadata !DIExpression()), !dbg !736
  %0 = call zeroext i1 @_ZN6primes13isprime_check17hee4c830b2cfe391dE(i64 %n), !dbg !737
  %1 = zext i1 %0 to i8, !dbg !737
  store i8 %1, i8* %_4, align 1, !dbg !737
  %2 = call zeroext i1 @_ZN6primes13isprime_wrong17h96f52ba5ffe32583E(i64 %n), !dbg !738
  %3 = zext i1 %2 to i8, !dbg !738
  store i8 %3, i8* %_7, align 1, !dbg !738
  %4 = bitcast { i8*, i8* }* %_2 to i8**, !dbg !739
  store i8* %_4, i8** %4, align 8, !dbg !739
  %5 = getelementptr inbounds { i8*, i8* }, { i8*, i8* }* %_2, i32 0, i32 1, !dbg !739
  store i8* %_7, i8** %5, align 8, !dbg !739
  %6 = bitcast { i8*, i8* }* %_2 to i8**, !dbg !739
  %left_val = load i8*, i8** %6, align 8, !dbg !739, !nonnull !28
  store i8* %left_val, i8** %left_val.dbg.spill, align 8, !dbg !739
  call void @llvm.dbg.declare(metadata i8** %left_val.dbg.spill, metadata !726, metadata !DIExpression()), !dbg !740
  %7 = getelementptr inbounds { i8*, i8* }, { i8*, i8* }* %_2, i32 0, i32 1, !dbg !739
  %right_val = load i8*, i8** %7, align 8, !dbg !739, !nonnull !28
  store i8* %right_val, i8** %right_val.dbg.spill, align 8, !dbg !739
  call void @llvm.dbg.declare(metadata i8** %right_val.dbg.spill, metadata !730, metadata !DIExpression()), !dbg !740
  %8 = load i8, i8* %left_val, align 1, !dbg !740, !range !681
  %_13 = trunc i8 %8 to i1, !dbg !740
  %9 = load i8, i8* %right_val, align 1, !dbg !740, !range !681
  %_14 = trunc i8 %9 to i1, !dbg !740
  %_12 = icmp eq i1 %_13, %_14, !dbg !740
  %_11 = xor i1 %_12, true, !dbg !740
  br i1 %_11, label %bb3, label %bb4, !dbg !740

bb3:                                              ; preds = %start
  store i8* %left_val, i8** %_25, align 8, !dbg !740
  store i8* %right_val, i8** %_27, align 8, !dbg !740
  %10 = bitcast { i64*, i64* }* %_23 to i8***, !dbg !740
  store i8** %_25, i8*** %10, align 8, !dbg !740
  %11 = getelementptr inbounds { i64*, i64* }, { i64*, i64* }* %_23, i32 0, i32 1, !dbg !740
  %12 = bitcast i64** %11 to i8***, !dbg !740
  store i8** %_27, i8*** %12, align 8, !dbg !740
  %13 = bitcast { i64*, i64* }* %_23 to i8***, !dbg !740
  %arg0 = load i8**, i8*** %13, align 8, !dbg !740, !nonnull !28
  store i8** %arg0, i8*** %arg0.dbg.spill, align 8, !dbg !740
  call void @llvm.dbg.declare(metadata i8*** %arg0.dbg.spill, metadata !731, metadata !DIExpression()), !dbg !741
  %14 = getelementptr inbounds { i64*, i64* }, { i64*, i64* }* %_23, i32 0, i32 1, !dbg !740
  %15 = bitcast i64** %14 to i8***, !dbg !740
  %arg1 = load i8**, i8*** %15, align 8, !dbg !740, !nonnull !28
  store i8** %arg1, i8*** %arg1.dbg.spill, align 8, !dbg !740
  call void @llvm.dbg.declare(metadata i8*** %arg1.dbg.spill, metadata !735, metadata !DIExpression()), !dbg !741
  %16 = call { i8*, i64* } @_ZN4core3fmt10ArgumentV13new17hf1032d8672fab895E(i8** noalias readonly align 8 dereferenceable(8) %arg0, i1 (i8**, %"core::fmt::Formatter"*)* nonnull @"_ZN42_$LT$$RF$T$u20$as$u20$core..fmt..Debug$GT$3fmt17h1e688dea0c748a2dE"), !dbg !741
  %_30.0 = extractvalue { i8*, i64* } %16, 0, !dbg !741
  %_30.1 = extractvalue { i8*, i64* } %16, 1, !dbg !741
  %17 = call { i8*, i64* } @_ZN4core3fmt10ArgumentV13new17hf1032d8672fab895E(i8** noalias readonly align 8 dereferenceable(8) %arg1, i1 (i8**, %"core::fmt::Formatter"*)* nonnull @"_ZN42_$LT$$RF$T$u20$as$u20$core..fmt..Debug$GT$3fmt17h1e688dea0c748a2dE"), !dbg !741
  %_33.0 = extractvalue { i8*, i64* } %17, 0, !dbg !741
  %_33.1 = extractvalue { i8*, i64* } %17, 1, !dbg !741
  %18 = bitcast [2 x { i8*, i64* }]* %_22 to { i8*, i64* }*, !dbg !741
  %19 = getelementptr inbounds { i8*, i64* }, { i8*, i64* }* %18, i32 0, i32 0, !dbg !741
  store i8* %_30.0, i8** %19, align 8, !dbg !741
  %20 = getelementptr inbounds { i8*, i64* }, { i8*, i64* }* %18, i32 0, i32 1, !dbg !741
  store i64* %_30.1, i64** %20, align 8, !dbg !741
  %21 = getelementptr inbounds [2 x { i8*, i64* }], [2 x { i8*, i64* }]* %_22, i32 0, i32 1, !dbg !741
  %22 = getelementptr inbounds { i8*, i64* }, { i8*, i64* }* %21, i32 0, i32 0, !dbg !741
  store i8* %_33.0, i8** %22, align 8, !dbg !741
  %23 = getelementptr inbounds { i8*, i64* }, { i8*, i64* }* %21, i32 0, i32 1, !dbg !741
  store i64* %_33.1, i64** %23, align 8, !dbg !741
  %_19.0 = bitcast [2 x { i8*, i64* }]* %_22 to [0 x { i8*, i64* }]*, !dbg !740
  call void @_ZN4core3fmt9Arguments6new_v117hc0cebfa07679db19E(%"core::fmt::Arguments"* noalias nocapture sret dereferenceable(48) %_15, [0 x { [0 x i8]*, i64 }]* noalias nonnull readonly align 8 bitcast (<{ i8*, [8 x i8], i8*, [8 x i8], i8*, [8 x i8] }>* @alloc6 to [0 x { [0 x i8]*, i64 }]*), i64 3, [0 x { i8*, i64* }]* noalias nonnull readonly align 8 %_19.0, i64 2), !dbg !740
  call void @_ZN4core9panicking9panic_fmt17hcd56f7f635f62c74E(%"core::fmt::Arguments"* noalias nocapture dereferenceable(48) %_15, %"core::panic::Location"* noalias readonly align 8 dereferenceable(24) bitcast (<{ i8*, [16 x i8] }>* @alloc21 to %"core::panic::Location"*)), !dbg !740
  unreachable, !dbg !740

bb4:                                              ; preds = %start
  ret void, !dbg !742
}

; Function Attrs: nounwind nonlazybind
define void @main() unnamed_addr #1 !dbg !743 {
start:
  %name.dbg.spill.i = alloca { %"klee_sys::CStr"*, i64 }, align 8
  %t.dbg.spill.i = alloca i64*, align 8
  %0 = alloca { [0 x i8]*, i64 }, align 8
  %self.dbg.spill.i = alloca { [0 x i8]*, i64 }, align 8
  %n = alloca i64, align 8
  call void @llvm.dbg.declare(metadata i64* %n, metadata !747, metadata !DIExpression()), !dbg !749
  store i64 2147483647, i64* %n, align 8, !dbg !750
  %1 = getelementptr inbounds { [0 x i8]*, i64 }, { [0 x i8]*, i64 }* %self.dbg.spill.i, i32 0, i32 0
  store [0 x i8]* bitcast (<{ [2 x i8] }>* @alloc22 to [0 x i8]*), [0 x i8]** %1, align 8, !noalias !751
  %2 = getelementptr inbounds { [0 x i8]*, i64 }, { [0 x i8]*, i64 }* %self.dbg.spill.i, i32 0, i32 1
  store i64 2, i64* %2, align 8, !noalias !751
  call void @llvm.dbg.declare(metadata { [0 x i8]*, i64 }* %self.dbg.spill.i, metadata !754, metadata !DIExpression()), !dbg !762
  %3 = getelementptr inbounds { [0 x i8]*, i64 }, { [0 x i8]*, i64 }* %0, i32 0, i32 0, !dbg !764
  store [0 x i8]* bitcast (<{ [2 x i8] }>* @alloc22 to [0 x i8]*), [0 x i8]** %3, align 8, !dbg !764, !noalias !751
  %4 = getelementptr inbounds { [0 x i8]*, i64 }, { [0 x i8]*, i64 }* %0, i32 0, i32 1, !dbg !764
  store i64 2, i64* %4, align 8, !dbg !764, !noalias !751
  %5 = getelementptr inbounds { [0 x i8]*, i64 }, { [0 x i8]*, i64 }* %0, i32 0, i32 0, !dbg !764
  %6 = load [0 x i8]*, [0 x i8]** %5, align 8, !dbg !764, !noalias !751, !nonnull !28
  %7 = getelementptr inbounds { [0 x i8]*, i64 }, { [0 x i8]*, i64 }* %0, i32 0, i32 1, !dbg !764
  %8 = load i64, i64* %7, align 8, !dbg !764, !noalias !751
  %9 = insertvalue { [0 x i8]*, i64 } undef, [0 x i8]* %6, 0, !dbg !765
  %10 = insertvalue { [0 x i8]*, i64 } %9, i64 %8, 1, !dbg !765
  %_9.0 = extractvalue { [0 x i8]*, i64 } %10, 0, !dbg !766
  %_9.1 = extractvalue { [0 x i8]*, i64 } %10, 1, !dbg !766
  %11 = call { %"klee_sys::CStr"*, i64 } @_ZN9cstr_core4CStr29from_bytes_with_nul_unchecked17hd578fe73d06082acE([0 x i8]* noalias nonnull readonly align 1 %_9.0, i64 %_9.1), !dbg !766
  %_7.0 = extractvalue { %"klee_sys::CStr"*, i64 } %11, 0, !dbg !766
  %_7.1 = extractvalue { %"klee_sys::CStr"*, i64 } %11, 1, !dbg !766
  store i64* %n, i64** %t.dbg.spill.i, align 8, !noalias !767
  call void @llvm.dbg.declare(metadata i64** %t.dbg.spill.i, metadata !770, metadata !DIExpression()) #19, !dbg !780
  %12 = getelementptr inbounds { %"klee_sys::CStr"*, i64 }, { %"klee_sys::CStr"*, i64 }* %name.dbg.spill.i, i32 0, i32 0
  store %"klee_sys::CStr"* %_7.0, %"klee_sys::CStr"** %12, align 8, !noalias !767
  %13 = getelementptr inbounds { %"klee_sys::CStr"*, i64 }, { %"klee_sys::CStr"*, i64 }* %name.dbg.spill.i, i32 0, i32 1
  store i64 %_7.1, i64* %13, align 8, !noalias !767
  call void @llvm.dbg.declare(metadata { %"klee_sys::CStr"*, i64 }* %name.dbg.spill.i, metadata !779, metadata !DIExpression()) #19, !dbg !782
  %_3.i = bitcast i64* %n to i8*, !dbg !783
  %_6.i = call i8* @_ZN9cstr_core4CStr6as_ptr17hcecb48312159a4a6E(%"klee_sys::CStr"* noalias nonnull readonly align 1 %_7.0, i64 %_7.1) #19, !dbg !784
  call void @klee_make_symbolic(i8* %_3.i, i64 8, i8* %_6.i) #19, !dbg !785
  %_13 = load i64, i64* %n, align 8, !dbg !786
  call void @_ZN6primes10prime_test17he3eb7209752c09d9E(i64 %_13), !dbg !787
  ret void, !dbg !788
}

; Function Attrs: nounwind readnone speculatable willreturn
declare void @llvm.dbg.declare(metadata, metadata, metadata) #6

; Function Attrs: nounwind nonlazybind
declare void @klee_make_symbolic(i8*, i64, i8*) unnamed_addr #1

; Function Attrs: nounwind readnone speculatable willreturn
declare { i64, i1 } @llvm.usub.with.overflow.i64(i64, i64) #6

; Function Attrs: nounwind readnone willreturn
declare i1 @llvm.expect.i1(i1, i1) #7

; Function Attrs: nounwind nonlazybind
declare i32 @rust_eh_personality(...) unnamed_addr #8

; Function Attrs: cold noinline noreturn nounwind nonlazybind uwtable
define internal void @_ZN4core9panicking5panic17h07405d6be4bce887E([0 x i8]* noalias nonnull readonly align 1 %0, i64 %1, %"core::panic::Location"* noalias readonly align 8 dereferenceable(24) %2) unnamed_addr #9 !dbg !789 {
  %4 = alloca [1 x { [0 x i8]*, i64 }], align 8
  %5 = alloca %"core::fmt::Arguments", align 8
  %6 = bitcast %"core::fmt::Arguments"* %5 to i8*, !dbg !793
  %7 = bitcast [1 x { [0 x i8]*, i64 }]* %4 to i8*, !dbg !794
  %8 = getelementptr inbounds [1 x { [0 x i8]*, i64 }], [1 x { [0 x i8]*, i64 }]* %4, i64 0, i64 0, i32 0, !dbg !794
  store [0 x i8]* %0, [0 x i8]** %8, align 8, !dbg !794
  %9 = getelementptr inbounds [1 x { [0 x i8]*, i64 }], [1 x { [0 x i8]*, i64 }]* %4, i64 0, i64 0, i32 1, !dbg !794
  store i64 %1, i64* %9, align 8, !dbg !794
  %10 = bitcast %"core::fmt::Arguments"* %5 to [1 x { [0 x i8]*, i64 }]**, !dbg !795
  store [1 x { [0 x i8]*, i64 }]* %4, [1 x { [0 x i8]*, i64 }]** %10, align 8, !dbg !795, !alias.scope !800, !noalias !803
  %11 = getelementptr inbounds %"core::fmt::Arguments", %"core::fmt::Arguments"* %5, i64 0, i32 1, i32 1, !dbg !795
  store i64 1, i64* %11, align 8, !dbg !795, !alias.scope !800, !noalias !803
  %12 = getelementptr inbounds %"core::fmt::Arguments", %"core::fmt::Arguments"* %5, i64 0, i32 3, i32 0, !dbg !795
  store i64* null, i64** %12, align 8, !dbg !795, !alias.scope !800, !noalias !803
  %13 = getelementptr inbounds %"core::fmt::Arguments", %"core::fmt::Arguments"* %5, i64 0, i32 5, i32 0, !dbg !795
  store [0 x { i8*, i64* }]* bitcast (<{ [0 x i8] }>* @anon.965c706604096d42e5b155eaa3c30edf.12 to [0 x { i8*, i64* }]*), [0 x { i8*, i64* }]** %13, align 8, !dbg !795, !alias.scope !800, !noalias !803
  %14 = getelementptr inbounds %"core::fmt::Arguments", %"core::fmt::Arguments"* %5, i64 0, i32 5, i32 1, !dbg !795
  store i64 0, i64* %14, align 8, !dbg !795, !alias.scope !800, !noalias !803
  call void @_ZN4core9panicking9panic_fmt17hcd56f7f635f62c74E(%"core::fmt::Arguments"* noalias nocapture nonnull dereferenceable(48) %5, %"core::panic::Location"* noalias nonnull readonly align 8 dereferenceable(24) %2), !dbg !806
  unreachable, !dbg !806
}

; Function Attrs: argmemonly nounwind willreturn
declare void @llvm.lifetime.start.p0i8(i64 immarg, i8* nocapture) #10

; Function Attrs: cold noinline noreturn nounwind nonlazybind uwtable
define internal void @_ZN4core9panicking9panic_fmt17hcd56f7f635f62c74E(%"core::fmt::Arguments"* noalias nocapture dereferenceable(48) %0, %"core::panic::Location"* noalias readonly align 8 dereferenceable(24) %1) unnamed_addr #9 !dbg !807 {
  %3 = alloca %"panic::PanicInfo", align 8
  %4 = bitcast %"panic::PanicInfo"* %3 to i8*, !dbg !808
  %5 = getelementptr inbounds %"core::fmt::Arguments", %"core::fmt::Arguments"* %0, i64 0, i32 0, i64 0, !dbg !809
  %6 = bitcast %"panic::PanicInfo"* %3 to {}**, !dbg !810
  store {}* bitcast (<{ [0 x i8] }>* @anon.965c706604096d42e5b155eaa3c30edf.12 to {}*), {}** %6, align 8, !dbg !810, !alias.scope !816, !noalias !819
  %7 = getelementptr inbounds %"panic::PanicInfo", %"panic::PanicInfo"* %3, i64 0, i32 1, i32 1, !dbg !810
  store [3 x i64]* bitcast ({ void ({}*)*, i64, i64, i64 ({}*)* }* @anon.965c706604096d42e5b155eaa3c30edf.177 to [3 x i64]*), [3 x i64]** %7, align 8, !dbg !810, !alias.scope !816, !noalias !819
  %8 = getelementptr inbounds %"panic::PanicInfo", %"panic::PanicInfo"* %3, i64 0, i32 3, !dbg !810
  store i64* %5, i64** %8, align 8, !dbg !810, !alias.scope !816, !noalias !819
  %9 = getelementptr inbounds %"panic::PanicInfo", %"panic::PanicInfo"* %3, i64 0, i32 5, !dbg !810
  store %"core::panic::Location"* %1, %"core::panic::Location"** %9, align 8, !dbg !810, !alias.scope !816, !noalias !819
  call void @rust_begin_unwind(%"panic::PanicInfo"* noalias nonnull readonly align 8 dereferenceable(32) %3), !dbg !822
  unreachable, !dbg !822
}

; Function Attrs: inlinehint norecurse nounwind nonlazybind readnone uwtable
define internal void @"_ZN4core3ptr102drop_in_place$LT$$RF$core..iter..adapters..copied..Copied$LT$core..slice..iter..Iter$LT$u8$GT$$GT$$GT$17h5913dccf4681891cE"({ i8*, i8* }** nocapture %0) unnamed_addr #11 !dbg !823 {
  ret void, !dbg !826
}

; Function Attrs: norecurse nounwind nonlazybind readnone uwtable
define internal i64 @"_ZN36_$LT$T$u20$as$u20$core..any..Any$GT$7type_id17h108f63b8120e9c9cE"({}* noalias nocapture nonnull readonly align 1 %0) unnamed_addr #12 !dbg !827 {
  ret i64 6876091270197435960, !dbg !831
}

; Function Attrs: nounwind readnone willreturn
declare i64 @llvm.experimental.vector.reduce.add.v2i64(<2 x i64>) #7

; Function Attrs: nounwind nonlazybind uwtable
define internal zeroext i1 @_ZN4core3fmt9Formatter3pad17h2bed62c7a96ce09cE(%"core::fmt::Formatter"* nocapture readonly align 8 dereferenceable(64) %0, [0 x i8]* noalias nonnull readonly align 1 %1, i64 %2) unnamed_addr #13 personality i32 (...)* @rust_eh_personality !dbg !832 {
  %4 = getelementptr inbounds %"core::fmt::Formatter", %"core::fmt::Formatter"* %0, i64 0, i32 0, i64 0, !dbg !834
  %5 = load i64, i64* %4, align 8, !dbg !834
  %6 = icmp eq i64 %5, 1, !dbg !835
  %7 = getelementptr inbounds %"core::fmt::Formatter", %"core::fmt::Formatter"* %0, i64 0, i32 3, i32 0, !dbg !842
  %8 = load i64, i64* %7, align 8, !dbg !842
  %9 = icmp eq i64 %8, 1, !dbg !842
  br i1 %6, label %10, label %11, !dbg !834

10:                                               ; preds = %3
  br i1 %9, label %21, label %169, !dbg !843

11:                                               ; preds = %3
  br i1 %9, label %21, label %12, !dbg !834

12:                                               ; preds = %11
  %13 = getelementptr inbounds %"core::fmt::Formatter", %"core::fmt::Formatter"* %0, i64 0, i32 5, i32 0, !dbg !844
  %14 = load {}*, {}** %13, align 8, !dbg !844, !nonnull !28
  %15 = getelementptr inbounds %"core::fmt::Formatter", %"core::fmt::Formatter"* %0, i64 0, i32 5, i32 1, !dbg !844
  %16 = bitcast [3 x i64]** %15 to i1 ({}*, [0 x i8]*, i64)***, !dbg !844
  %17 = load i1 ({}*, [0 x i8]*, i64)**, i1 ({}*, [0 x i8]*, i64)*** %16, align 8, !dbg !844, !nonnull !28
  %18 = getelementptr inbounds i1 ({}*, [0 x i8]*, i64)*, i1 ({}*, [0 x i8]*, i64)** %17, i64 3, !dbg !844
  %19 = load i1 ({}*, [0 x i8]*, i64)*, i1 ({}*, [0 x i8]*, i64)** %18, align 8, !dbg !844, !invariant.load !28, !nonnull !28
  %20 = tail call zeroext i1 %19({}* nonnull align 1 %14, [0 x i8]* noalias nonnull readonly align 1 %1, i64 %2), !dbg !844
  br label %361, !dbg !845

21:                                               ; preds = %11, %10
  %22 = getelementptr inbounds %"core::fmt::Formatter", %"core::fmt::Formatter"* %0, i64 0, i32 3, i32 1, !dbg !848
  %23 = load i64, i64* %22, align 8, !dbg !848
  %24 = getelementptr [0 x i8], [0 x i8]* %1, i64 0, i64 0, !dbg !849
  %25 = getelementptr inbounds [0 x i8], [0 x i8]* %1, i64 0, i64 %2, !dbg !867
  %26 = ptrtoint [0 x i8]* %1 to i64, !dbg !875
  %27 = icmp eq i64 %23, 0, !dbg !876
  br i1 %27, label %91, label %28, !dbg !890

28:                                               ; preds = %86, %21
  %29 = phi i64 [ %89, %86 ], [ 0, %21 ], !dbg !842
  %30 = phi i64 [ %87, %86 ], [ %26, %21 ], !dbg !891
  %31 = phi i64 [ %32, %86 ], [ 0, %21 ]
  %32 = add nuw i64 %31, 1, !dbg !901
  %33 = inttoptr i64 %30 to i8*, !dbg !907
  %34 = icmp eq i8* %25, %33, !dbg !907
  br i1 %34, label %156, label %35, !dbg !916

35:                                               ; preds = %28
  %36 = getelementptr inbounds i8, i8* %33, i64 1, !dbg !917
  %37 = load i8, i8* %33, align 1, !dbg !925
  %38 = icmp sgt i8 %37, -1, !dbg !926
  %39 = ptrtoint i8* %36 to i64, !dbg !927
  br i1 %38, label %86, label %40, !dbg !927

40:                                               ; preds = %35
  %41 = zext i8 %37 to i32, !dbg !928
  %42 = icmp eq i8* %36, %25, !dbg !931
  br i1 %42, label %49, label %43, !dbg !933

43:                                               ; preds = %40
  %44 = getelementptr inbounds i8, i8* %33, i64 2, !dbg !934
  %45 = load i8, i8* %36, align 1, !dbg !937, !alias.scope !940
  %46 = and i8 %45, 63, !dbg !943
  %47 = zext i8 %46 to i32, !dbg !943
  %48 = ptrtoint i8* %44 to i64, !dbg !943
  br label %49, !dbg !943

49:                                               ; preds = %43, %40
  %50 = phi i64 [ %48, %43 ], [ %39, %40 ]
  %51 = phi i8* [ %44, %43 ], [ %25, %40 ]
  %52 = phi i32 [ %47, %43 ], [ 0, %40 ]
  %53 = icmp ugt i8 %37, -33, !dbg !944
  br i1 %53, label %54, label %86, !dbg !945

54:                                               ; preds = %49
  %55 = icmp eq i8* %51, %25, !dbg !946
  br i1 %55, label %62, label %56, !dbg !948

56:                                               ; preds = %54
  %57 = getelementptr inbounds i8, i8* %51, i64 1, !dbg !949
  %58 = load i8, i8* %51, align 1, !dbg !952, !alias.scope !954
  %59 = and i8 %58, 63, !dbg !957
  %60 = zext i8 %59 to i32, !dbg !957
  %61 = ptrtoint i8* %57 to i64, !dbg !957
  br label %62, !dbg !957

62:                                               ; preds = %56, %54
  %63 = phi i64 [ %61, %56 ], [ %50, %54 ]
  %64 = phi i8* [ %57, %56 ], [ %25, %54 ]
  %65 = phi i32 [ %60, %56 ], [ 0, %54 ]
  %66 = icmp ugt i8 %37, -17, !dbg !958
  br i1 %66, label %67, label %86, !dbg !959

67:                                               ; preds = %62
  %68 = icmp eq i8* %64, %25, !dbg !960
  br i1 %68, label %75, label %69, !dbg !962

69:                                               ; preds = %67
  %70 = getelementptr inbounds i8, i8* %64, i64 1, !dbg !963
  %71 = load i8, i8* %64, align 1, !dbg !966, !alias.scope !968
  %72 = and i8 %71, 63, !dbg !971
  %73 = zext i8 %72 to i32, !dbg !971
  %74 = ptrtoint i8* %70 to i64, !dbg !971
  br label %75, !dbg !971

75:                                               ; preds = %69, %67
  %76 = phi i64 [ %74, %69 ], [ %63, %67 ]
  %77 = phi i32 [ %73, %69 ], [ 0, %67 ]
  %78 = shl nuw nsw i32 %41, 18, !dbg !972
  %79 = and i32 %78, 1835008, !dbg !972
  %80 = shl nuw nsw i32 %52, 12, !dbg !973
  %81 = shl nuw nsw i32 %65, 6, !dbg !973
  %82 = or i32 %80, %79, !dbg !973
  %83 = or i32 %82, %81, !dbg !973
  %84 = or i32 %83, %77, !dbg !976
  %85 = icmp eq i32 %84, 1114112, !dbg !977
  br i1 %85, label %156, label %86, !dbg !977

86:                                               ; preds = %75, %62, %49, %35
  %87 = phi i64 [ %76, %75 ], [ %63, %62 ], [ %50, %49 ], [ %39, %35 ]
  %88 = sub i64 %87, %30, !dbg !978
  %89 = add i64 %88, %29, !dbg !979
  %90 = icmp eq i64 %32, %23, !dbg !876
  br i1 %90, label %91, label %28, !dbg !890

91:                                               ; preds = %86, %21
  %92 = phi i64 [ 0, %21 ], [ %89, %86 ], !dbg !842
  %93 = phi i64 [ %26, %21 ], [ %87, %86 ], !dbg !980
  %94 = inttoptr i64 %93 to i8*, !dbg !983
  %95 = icmp eq i8* %25, %94, !dbg !983
  br i1 %95, label %156, label %96, !dbg !987

96:                                               ; preds = %91
  %97 = getelementptr inbounds i8, i8* %94, i64 1, !dbg !988
  %98 = load i8, i8* %94, align 1, !dbg !991
  %99 = icmp sgt i8 %98, -1, !dbg !992
  br i1 %99, label %139, label %100, !dbg !993

100:                                              ; preds = %96
  %101 = zext i8 %98 to i32, !dbg !994
  %102 = icmp eq i8* %97, %25, !dbg !996
  br i1 %102, label %109, label %103, !dbg !998

103:                                              ; preds = %100
  %104 = getelementptr inbounds i8, i8* %94, i64 2, !dbg !999
  %105 = load i8, i8* %97, align 1, !dbg !1002, !alias.scope !1004
  %106 = and i8 %105, 63, !dbg !1007
  %107 = zext i8 %106 to i32, !dbg !1007
  %108 = shl nuw nsw i32 %107, 6, !dbg !1007
  br label %109, !dbg !1007

109:                                              ; preds = %103, %100
  %110 = phi i8* [ %104, %103 ], [ %25, %100 ]
  %111 = phi i32 [ %108, %103 ], [ 0, %100 ]
  %112 = icmp ugt i8 %98, -33, !dbg !1008
  br i1 %112, label %113, label %139, !dbg !1009

113:                                              ; preds = %109
  %114 = icmp eq i8* %110, %25, !dbg !1010
  br i1 %114, label %120, label %115, !dbg !1012

115:                                              ; preds = %113
  %116 = getelementptr inbounds i8, i8* %110, i64 1, !dbg !1013
  %117 = load i8, i8* %110, align 1, !dbg !1016, !alias.scope !1018
  %118 = and i8 %117, 63, !dbg !1021
  %119 = zext i8 %118 to i32, !dbg !1021
  br label %120, !dbg !1021

120:                                              ; preds = %115, %113
  %121 = phi i8* [ %116, %115 ], [ %25, %113 ]
  %122 = phi i32 [ %119, %115 ], [ 0, %113 ]
  %123 = or i32 %122, %111, !dbg !1022
  %124 = icmp ugt i8 %98, -17, !dbg !1024
  br i1 %124, label %125, label %139, !dbg !1025

125:                                              ; preds = %120
  %126 = icmp eq i8* %121, %25, !dbg !1026
  br i1 %126, label %131, label %127, !dbg !1028

127:                                              ; preds = %125
  %128 = load i8, i8* %121, align 1, !dbg !1029, !alias.scope !1031
  %129 = and i8 %128, 63, !dbg !1034
  %130 = zext i8 %129 to i32, !dbg !1034
  br label %131, !dbg !1034

131:                                              ; preds = %127, %125
  %132 = phi i32 [ %130, %127 ], [ 0, %125 ]
  %133 = shl nuw nsw i32 %101, 18, !dbg !1035
  %134 = and i32 %133, 1835008, !dbg !1035
  %135 = shl nuw nsw i32 %123, 6, !dbg !1036
  %136 = or i32 %135, %134, !dbg !1036
  %137 = or i32 %136, %132, !dbg !1038
  %138 = icmp eq i32 %137, 1114112, !dbg !1039
  br i1 %138, label %156, label %139, !dbg !1039

139:                                              ; preds = %131, %120, %109, %96
  %140 = icmp eq i64 %92, 0, !dbg !1040
  %141 = icmp eq i64 %92, %2
  %142 = or i1 %140, %141, !dbg !1040
  br i1 %142, label %149, label %143, !dbg !1040

143:                                              ; preds = %139
  %144 = icmp ult i64 %92, %2, !dbg !1050
  br i1 %144, label %145, label %150, !dbg !1058

145:                                              ; preds = %143
  %146 = getelementptr inbounds [0 x i8], [0 x i8]* %1, i64 0, i64 %92
  %147 = load i8, i8* %146, align 1, !dbg !1059, !alias.scope !1060
  %148 = icmp sgt i8 %147, -65, !dbg !1067
  br i1 %148, label %149, label %150, !dbg !1068

149:                                              ; preds = %145, %139
  br label %150, !dbg !1068

150:                                              ; preds = %149, %145, %143
  %151 = phi i8* [ %24, %149 ], [ null, %145 ], [ null, %143 ], !dbg !1069
  %152 = icmp eq i8* %151, null, !dbg !1070
  %153 = bitcast i8* %151 to [0 x i8]*, !dbg !1070
  %154 = select i1 %152, [0 x i8]* %1, [0 x i8]* %153, !dbg !1070
  %155 = select i1 %152, i64 %2, i64 %92, !dbg !1070
  br label %156, !dbg !1073

156:                                              ; preds = %150, %131, %91, %75, %28
  %157 = phi [0 x i8]* [ %154, %150 ], [ %1, %131 ], [ %1, %91 ], [ %1, %28 ], [ %1, %75 ], !dbg !842
  %158 = phi i64 [ %155, %150 ], [ %2, %131 ], [ %2, %91 ], [ %2, %28 ], [ %2, %75 ], !dbg !842
  br i1 %6, label %169, label %159, !dbg !1074

159:                                              ; preds = %156
  %160 = getelementptr inbounds %"core::fmt::Formatter", %"core::fmt::Formatter"* %0, i64 0, i32 5, i32 0, !dbg !1075
  %161 = load {}*, {}** %160, align 8, !dbg !1075, !nonnull !28
  %162 = getelementptr inbounds %"core::fmt::Formatter", %"core::fmt::Formatter"* %0, i64 0, i32 5, i32 1, !dbg !1075
  %163 = bitcast [3 x i64]** %162 to i1 ({}*, [0 x i8]*, i64)***, !dbg !1075
  %164 = load i1 ({}*, [0 x i8]*, i64)**, i1 ({}*, [0 x i8]*, i64)*** %163, align 8, !dbg !1075, !nonnull !28
  %165 = icmp ne [0 x i8]* %157, null
  %166 = getelementptr inbounds i1 ({}*, [0 x i8]*, i64)*, i1 ({}*, [0 x i8]*, i64)** %164, i64 3, !dbg !1075
  %167 = load i1 ({}*, [0 x i8]*, i64)*, i1 ({}*, [0 x i8]*, i64)** %166, align 8, !dbg !1075, !invariant.load !28, !nonnull !28
  %168 = tail call zeroext i1 %167({}* nonnull align 1 %161, [0 x i8]* noalias nonnull readonly align 1 %157, i64 %158), !dbg !1075
  br label %361, !dbg !1076

169:                                              ; preds = %156, %10
  %170 = phi i64 [ %158, %156 ], [ %2, %10 ]
  %171 = phi [0 x i8]* [ %157, %156 ], [ %1, %10 ]
  %172 = getelementptr inbounds %"core::fmt::Formatter", %"core::fmt::Formatter"* %0, i64 0, i32 1, i32 1, !dbg !1077
  %173 = icmp ne [0 x i8]* %171, null
  %174 = getelementptr [0 x i8], [0 x i8]* %171, i64 0, i64 0, !dbg !1078
  %175 = getelementptr inbounds [0 x i8], [0 x i8]* %171, i64 0, i64 %170, !dbg !1083
  %176 = icmp eq i64 %170, 0, !dbg !1086
  br i1 %176, label %287, label %177, !dbg !1110

177:                                              ; preds = %169
  %178 = icmp ult i64 %170, 4, !dbg !1110
  br i1 %178, label %222, label %179, !dbg !1110

179:                                              ; preds = %177
  %180 = and i64 %170, -4, !dbg !1110
  %181 = getelementptr [0 x i8], [0 x i8]* %171, i64 0, i64 %180, !dbg !1110
  %182 = add i64 %180, -4, !dbg !1110
  %183 = lshr exact i64 %182, 2, !dbg !1110
  %184 = add nuw nsw i64 %183, 1, !dbg !1110
  %185 = and i64 %184, 1, !dbg !1110
  %186 = icmp eq i64 %182, 0, !dbg !1110
  br i1 %186, label %208, label %187, !dbg !1110

187:                                              ; preds = %179
  %188 = and i64 %184, 9223372036854775806, !dbg !1110
  br label %189, !dbg !1110

189:                                              ; preds = %189, %187
  %190 = phi i64 [ 0, %187 ], [ %205, %189 ]
  %.i0 = phi i64 [ 0, %187 ], [ %.i01, %189 ]
  %.i1 = phi i64 [ 0, %187 ], [ %.i12, %189 ]
  %.i03 = phi i64 [ 0, %187 ], [ %.i05, %189 ]
  %.i14 = phi i64 [ 0, %187 ], [ %.i16, %189 ]
  %191 = phi i64 [ %188, %187 ], [ %206, %189 ]
  %192 = getelementptr [0 x i8], [0 x i8]* %171, i64 0, i64 %190
  %193 = bitcast i8* %192 to <2 x i8>*, !dbg !1111
  %194 = load <2 x i8>, <2 x i8>* %193, align 1, !dbg !1111, !alias.scope !1112
  %.i07 = extractelement <2 x i8> %194, i32 0, !dbg !1111
  %.i19 = extractelement <2 x i8> %194, i32 1, !dbg !1111
  %195 = getelementptr i8, i8* %192, i64 2, !dbg !1111
  %196 = bitcast i8* %195 to <2 x i8>*, !dbg !1111
  %197 = load <2 x i8>, <2 x i8>* %196, align 1, !dbg !1111, !alias.scope !1112
  %.i011 = extractelement <2 x i8> %197, i32 0, !dbg !1115
  %.i113 = extractelement <2 x i8> %197, i32 1, !dbg !1115
  %.i08 = and i8 %.i07, -64, !dbg !1115
  %.i110 = and i8 %.i19, -64, !dbg !1115
  %.i012 = and i8 %.i011, -64, !dbg !1115
  %.i114 = and i8 %.i113, -64, !dbg !1115
  %.i015 = icmp ne i8 %.i08, -128, !dbg !1115
  %.i116 = icmp ne i8 %.i110, -128, !dbg !1115
  %.i017 = icmp ne i8 %.i012, -128, !dbg !1115
  %.i118 = icmp ne i8 %.i114, -128, !dbg !1115
  %.i019 = zext i1 %.i015 to i64, !dbg !1128
  %.i120 = zext i1 %.i116 to i64, !dbg !1128
  %.i021 = zext i1 %.i017 to i64, !dbg !1128
  %.i122 = zext i1 %.i118 to i64, !dbg !1128
  %.i023 = add i64 %.i0, %.i019, !dbg !1129
  %.i124 = add i64 %.i1, %.i120, !dbg !1129
  %.i025 = add i64 %.i03, %.i021, !dbg !1129
  %.i126 = add i64 %.i14, %.i122, !dbg !1129
  %198 = or i64 %190, 4
  %199 = getelementptr [0 x i8], [0 x i8]* %171, i64 0, i64 %198
  %200 = bitcast i8* %199 to <2 x i8>*, !dbg !1111
  %201 = load <2 x i8>, <2 x i8>* %200, align 1, !dbg !1111, !alias.scope !1112
  %.i027 = extractelement <2 x i8> %201, i32 0, !dbg !1111
  %.i129 = extractelement <2 x i8> %201, i32 1, !dbg !1111
  %202 = getelementptr i8, i8* %199, i64 2, !dbg !1111
  %203 = bitcast i8* %202 to <2 x i8>*, !dbg !1111
  %204 = load <2 x i8>, <2 x i8>* %203, align 1, !dbg !1111, !alias.scope !1112
  %.i031 = extractelement <2 x i8> %204, i32 0, !dbg !1115
  %.i133 = extractelement <2 x i8> %204, i32 1, !dbg !1115
  %.i028 = and i8 %.i027, -64, !dbg !1115
  %.i130 = and i8 %.i129, -64, !dbg !1115
  %.i032 = and i8 %.i031, -64, !dbg !1115
  %.i134 = and i8 %.i133, -64, !dbg !1115
  %.i035 = icmp ne i8 %.i028, -128, !dbg !1115
  %.i136 = icmp ne i8 %.i130, -128, !dbg !1115
  %.i037 = icmp ne i8 %.i032, -128, !dbg !1115
  %.i138 = icmp ne i8 %.i134, -128, !dbg !1115
  %.i039 = zext i1 %.i035 to i64, !dbg !1128
  %.i140 = zext i1 %.i136 to i64, !dbg !1128
  %.i041 = zext i1 %.i037 to i64, !dbg !1128
  %.i142 = zext i1 %.i138 to i64, !dbg !1128
  %.i01 = add i64 %.i023, %.i039, !dbg !1129
  %.i12 = add i64 %.i124, %.i140, !dbg !1129
  %.i05 = add i64 %.i025, %.i041, !dbg !1129
  %.i16 = add i64 %.i126, %.i142, !dbg !1129
  %205 = add i64 %190, 8
  %206 = add i64 %191, -2
  %207 = icmp eq i64 %206, 0
  br i1 %207, label %208, label %189, !llvm.loop !1140

208:                                              ; preds = %189, %179
  %.i047 = phi i64 [ undef, %179 ], [ %.i01, %189 ]
  %.i148 = phi i64 [ undef, %179 ], [ %.i12, %189 ]
  %.i049 = phi i64 [ undef, %179 ], [ %.i05, %189 ]
  %.i150 = phi i64 [ undef, %179 ], [ %.i16, %189 ]
  %209 = phi i64 [ 0, %179 ], [ %205, %189 ]
  %.i051 = phi i64 [ 0, %179 ], [ %.i01, %189 ]
  %.i152 = phi i64 [ 0, %179 ], [ %.i12, %189 ]
  %.i053 = phi i64 [ 0, %179 ], [ %.i05, %189 ]
  %.i154 = phi i64 [ 0, %179 ], [ %.i16, %189 ]
  %210 = icmp eq i64 %185, 0
  br i1 %210, label %218, label %211

211:                                              ; preds = %208
  %212 = getelementptr [0 x i8], [0 x i8]* %171, i64 0, i64 %209
  %213 = getelementptr i8, i8* %212, i64 2, !dbg !1111
  %214 = bitcast i8* %213 to <2 x i8>*, !dbg !1111
  %215 = load <2 x i8>, <2 x i8>* %214, align 1, !dbg !1111, !alias.scope !1112
  %.i055 = extractelement <2 x i8> %215, i32 0, !dbg !1115
  %.i056 = and i8 %.i055, -64, !dbg !1115
  %.i157 = extractelement <2 x i8> %215, i32 1, !dbg !1115
  %.i158 = and i8 %.i157, -64, !dbg !1115
  %.i059 = icmp ne i8 %.i056, -128, !dbg !1115
  %.i160 = icmp ne i8 %.i158, -128, !dbg !1115
  %.i061 = zext i1 %.i059 to i64, !dbg !1128
  %.i162 = zext i1 %.i160 to i64, !dbg !1128
  %.i063 = add i64 %.i053, %.i061, !dbg !1129
  %.i164 = add i64 %.i154, %.i162, !dbg !1129
  %216 = bitcast i8* %212 to <2 x i8>*, !dbg !1111
  %217 = load <2 x i8>, <2 x i8>* %216, align 1, !dbg !1111, !alias.scope !1112
  %.i065 = extractelement <2 x i8> %217, i32 0, !dbg !1115
  %.i066 = and i8 %.i065, -64, !dbg !1115
  %.i167 = extractelement <2 x i8> %217, i32 1, !dbg !1115
  %.i168 = and i8 %.i167, -64, !dbg !1115
  %.i069 = icmp ne i8 %.i066, -128, !dbg !1115
  %.i170 = icmp ne i8 %.i168, -128, !dbg !1115
  %.i071 = zext i1 %.i069 to i64, !dbg !1128
  %.i172 = zext i1 %.i170 to i64, !dbg !1128
  %.i073 = add i64 %.i051, %.i071, !dbg !1129
  %.i174 = add i64 %.i152, %.i172, !dbg !1129
  br label %218, !dbg !1110

218:                                              ; preds = %211, %208
  %.i075 = phi i64 [ %.i047, %208 ], [ %.i073, %211 ], !dbg !1129
  %.i176 = phi i64 [ %.i148, %208 ], [ %.i174, %211 ], !dbg !1129
  %.i077 = phi i64 [ %.i049, %208 ], [ %.i063, %211 ], !dbg !1129
  %.i178 = phi i64 [ %.i150, %208 ], [ %.i164, %211 ], !dbg !1129
  %.i079 = add i64 %.i077, %.i075, !dbg !1110
  %.i180 = add i64 %.i178, %.i176, !dbg !1110
  %.upto0 = insertelement <2 x i64> undef, i64 %.i079, i32 0, !dbg !1110
  %219 = insertelement <2 x i64> %.upto0, i64 %.i180, i32 1, !dbg !1110
  %220 = call i64 @llvm.experimental.vector.reduce.add.v2i64(<2 x i64> %219), !dbg !1110
  %221 = icmp eq i64 %170, %180, !dbg !1110
  br i1 %221, label %235, label %222, !dbg !1110

222:                                              ; preds = %218, %177
  %223 = phi i64 [ 0, %177 ], [ %220, %218 ]
  %224 = phi i8* [ %174, %177 ], [ %181, %218 ]
  br label %225, !dbg !1110

225:                                              ; preds = %225, %222
  %226 = phi i64 [ %233, %225 ], [ %223, %222 ]
  %227 = phi i8* [ %228, %225 ], [ %224, %222 ]
  %228 = getelementptr inbounds i8, i8* %227, i64 1, !dbg !1142
  %229 = load i8, i8* %227, align 1, !dbg !1111, !alias.scope !1112
  %230 = and i8 %229, -64, !dbg !1115
  %231 = icmp ne i8 %230, -128, !dbg !1115
  %232 = zext i1 %231 to i64, !dbg !1128
  %233 = add i64 %226, %232, !dbg !1129
  %234 = icmp eq i8* %228, %175, !dbg !1086
  br i1 %234, label %235, label %225, !dbg !1110, !llvm.loop !1145

235:                                              ; preds = %225, %218
  %236 = phi i64 [ %220, %218 ], [ %233, %225 ], !dbg !1129
  %237 = load i64, i64* %172, align 8, !dbg !1147
  %238 = icmp ult i64 %236, %237, !dbg !1148
  br i1 %238, label %239, label %290, !dbg !1148

239:                                              ; preds = %235
  %240 = icmp ult i64 %170, 4, !dbg !1149
  br i1 %240, label %241, label %244, !dbg !1149

241:                                              ; preds = %283, %239
  %242 = phi i64 [ 0, %239 ], [ %285, %283 ]
  %243 = phi i8* [ %174, %239 ], [ %246, %283 ]
  br label %299, !dbg !1149

244:                                              ; preds = %239
  %245 = and i64 %170, -4, !dbg !1149
  %246 = getelementptr [0 x i8], [0 x i8]* %171, i64 0, i64 %245, !dbg !1149
  %247 = add i64 %245, -4, !dbg !1149
  %248 = lshr exact i64 %247, 2, !dbg !1149
  %249 = add nuw nsw i64 %248, 1, !dbg !1149
  %250 = and i64 %249, 1, !dbg !1149
  %251 = icmp eq i64 %247, 0, !dbg !1149
  br i1 %251, label %273, label %252, !dbg !1149

252:                                              ; preds = %244
  %253 = and i64 %249, 9223372036854775806, !dbg !1149
  br label %254, !dbg !1149

254:                                              ; preds = %254, %252
  %255 = phi i64 [ 0, %252 ], [ %270, %254 ]
  %.i081 = phi i64 [ 0, %252 ], [ %.i083, %254 ]
  %.i182 = phi i64 [ 0, %252 ], [ %.i184, %254 ]
  %.i085 = phi i64 [ 0, %252 ], [ %.i087, %254 ]
  %.i186 = phi i64 [ 0, %252 ], [ %.i188, %254 ]
  %256 = phi i64 [ %253, %252 ], [ %271, %254 ]
  %257 = getelementptr [0 x i8], [0 x i8]* %171, i64 0, i64 %255
  %258 = bitcast i8* %257 to <2 x i8>*, !dbg !1157
  %259 = load <2 x i8>, <2 x i8>* %258, align 1, !dbg !1157, !alias.scope !1158
  %.i089 = extractelement <2 x i8> %259, i32 0, !dbg !1157
  %.i191 = extractelement <2 x i8> %259, i32 1, !dbg !1157
  %260 = getelementptr i8, i8* %257, i64 2, !dbg !1157
  %261 = bitcast i8* %260 to <2 x i8>*, !dbg !1157
  %262 = load <2 x i8>, <2 x i8>* %261, align 1, !dbg !1157, !alias.scope !1158
  %.i093 = extractelement <2 x i8> %262, i32 0, !dbg !1161
  %.i195 = extractelement <2 x i8> %262, i32 1, !dbg !1161
  %.i090 = and i8 %.i089, -64, !dbg !1161
  %.i192 = and i8 %.i191, -64, !dbg !1161
  %.i094 = and i8 %.i093, -64, !dbg !1161
  %.i196 = and i8 %.i195, -64, !dbg !1161
  %.i097 = icmp ne i8 %.i090, -128, !dbg !1161
  %.i198 = icmp ne i8 %.i192, -128, !dbg !1161
  %.i099 = icmp ne i8 %.i094, -128, !dbg !1161
  %.i1100 = icmp ne i8 %.i196, -128, !dbg !1161
  %.i0101 = zext i1 %.i097 to i64, !dbg !1166
  %.i1102 = zext i1 %.i198 to i64, !dbg !1166
  %.i0103 = zext i1 %.i099 to i64, !dbg !1166
  %.i1104 = zext i1 %.i1100 to i64, !dbg !1166
  %.i0105 = add i64 %.i081, %.i0101, !dbg !1167
  %.i1106 = add i64 %.i182, %.i1102, !dbg !1167
  %.i0107 = add i64 %.i085, %.i0103, !dbg !1167
  %.i1108 = add i64 %.i186, %.i1104, !dbg !1167
  %263 = or i64 %255, 4
  %264 = getelementptr [0 x i8], [0 x i8]* %171, i64 0, i64 %263
  %265 = bitcast i8* %264 to <2 x i8>*, !dbg !1157
  %266 = load <2 x i8>, <2 x i8>* %265, align 1, !dbg !1157, !alias.scope !1158
  %.i0109 = extractelement <2 x i8> %266, i32 0, !dbg !1157
  %.i1111 = extractelement <2 x i8> %266, i32 1, !dbg !1157
  %267 = getelementptr i8, i8* %264, i64 2, !dbg !1157
  %268 = bitcast i8* %267 to <2 x i8>*, !dbg !1157
  %269 = load <2 x i8>, <2 x i8>* %268, align 1, !dbg !1157, !alias.scope !1158
  %.i0113 = extractelement <2 x i8> %269, i32 0, !dbg !1161
  %.i1115 = extractelement <2 x i8> %269, i32 1, !dbg !1161
  %.i0110 = and i8 %.i0109, -64, !dbg !1161
  %.i1112 = and i8 %.i1111, -64, !dbg !1161
  %.i0114 = and i8 %.i0113, -64, !dbg !1161
  %.i1116 = and i8 %.i1115, -64, !dbg !1161
  %.i0117 = icmp ne i8 %.i0110, -128, !dbg !1161
  %.i1118 = icmp ne i8 %.i1112, -128, !dbg !1161
  %.i0119 = icmp ne i8 %.i0114, -128, !dbg !1161
  %.i1120 = icmp ne i8 %.i1116, -128, !dbg !1161
  %.i0121 = zext i1 %.i0117 to i64, !dbg !1166
  %.i1122 = zext i1 %.i1118 to i64, !dbg !1166
  %.i0123 = zext i1 %.i0119 to i64, !dbg !1166
  %.i1124 = zext i1 %.i1120 to i64, !dbg !1166
  %.i083 = add i64 %.i0105, %.i0121, !dbg !1167
  %.i184 = add i64 %.i1106, %.i1122, !dbg !1167
  %.i087 = add i64 %.i0107, %.i0123, !dbg !1167
  %.i188 = add i64 %.i1108, %.i1124, !dbg !1167
  %270 = add i64 %255, 8
  %271 = add i64 %256, -2
  %272 = icmp eq i64 %271, 0
  br i1 %272, label %273, label %254, !llvm.loop !1170

273:                                              ; preds = %254, %244
  %.i0129 = phi i64 [ undef, %244 ], [ %.i083, %254 ]
  %.i1130 = phi i64 [ undef, %244 ], [ %.i184, %254 ]
  %.i0131 = phi i64 [ undef, %244 ], [ %.i087, %254 ]
  %.i1132 = phi i64 [ undef, %244 ], [ %.i188, %254 ]
  %274 = phi i64 [ 0, %244 ], [ %270, %254 ]
  %.i0133 = phi i64 [ 0, %244 ], [ %.i083, %254 ]
  %.i1134 = phi i64 [ 0, %244 ], [ %.i184, %254 ]
  %.i0135 = phi i64 [ 0, %244 ], [ %.i087, %254 ]
  %.i1136 = phi i64 [ 0, %244 ], [ %.i188, %254 ]
  %275 = icmp eq i64 %250, 0
  br i1 %275, label %283, label %276

276:                                              ; preds = %273
  %277 = getelementptr [0 x i8], [0 x i8]* %171, i64 0, i64 %274
  %278 = getelementptr i8, i8* %277, i64 2, !dbg !1157
  %279 = bitcast i8* %278 to <2 x i8>*, !dbg !1157
  %280 = load <2 x i8>, <2 x i8>* %279, align 1, !dbg !1157, !alias.scope !1158
  %.i0137 = extractelement <2 x i8> %280, i32 0, !dbg !1161
  %.i0138 = and i8 %.i0137, -64, !dbg !1161
  %.i1139 = extractelement <2 x i8> %280, i32 1, !dbg !1161
  %.i1140 = and i8 %.i1139, -64, !dbg !1161
  %.i0141 = icmp ne i8 %.i0138, -128, !dbg !1161
  %.i1142 = icmp ne i8 %.i1140, -128, !dbg !1161
  %.i0143 = zext i1 %.i0141 to i64, !dbg !1166
  %.i1144 = zext i1 %.i1142 to i64, !dbg !1166
  %.i0145 = add i64 %.i0135, %.i0143, !dbg !1167
  %.i1146 = add i64 %.i1136, %.i1144, !dbg !1167
  %281 = bitcast i8* %277 to <2 x i8>*, !dbg !1157
  %282 = load <2 x i8>, <2 x i8>* %281, align 1, !dbg !1157, !alias.scope !1158
  %.i0147 = extractelement <2 x i8> %282, i32 0, !dbg !1161
  %.i0148 = and i8 %.i0147, -64, !dbg !1161
  %.i1149 = extractelement <2 x i8> %282, i32 1, !dbg !1161
  %.i1150 = and i8 %.i1149, -64, !dbg !1161
  %.i0151 = icmp ne i8 %.i0148, -128, !dbg !1161
  %.i1152 = icmp ne i8 %.i1150, -128, !dbg !1161
  %.i0153 = zext i1 %.i0151 to i64, !dbg !1166
  %.i1154 = zext i1 %.i1152 to i64, !dbg !1166
  %.i0155 = add i64 %.i0133, %.i0153, !dbg !1167
  %.i1156 = add i64 %.i1134, %.i1154, !dbg !1167
  br label %283, !dbg !1149

283:                                              ; preds = %276, %273
  %.i0157 = phi i64 [ %.i0129, %273 ], [ %.i0155, %276 ], !dbg !1167
  %.i1158 = phi i64 [ %.i1130, %273 ], [ %.i1156, %276 ], !dbg !1167
  %.i0159 = phi i64 [ %.i0131, %273 ], [ %.i0145, %276 ], !dbg !1167
  %.i1160 = phi i64 [ %.i1132, %273 ], [ %.i1146, %276 ], !dbg !1167
  %.i0161 = add i64 %.i0159, %.i0157, !dbg !1149
  %.i1162 = add i64 %.i1160, %.i1158, !dbg !1149
  %.upto0163 = insertelement <2 x i64> undef, i64 %.i0161, i32 0, !dbg !1149
  %284 = insertelement <2 x i64> %.upto0163, i64 %.i1162, i32 1, !dbg !1149
  %285 = call i64 @llvm.experimental.vector.reduce.add.v2i64(<2 x i64> %284), !dbg !1149
  %286 = icmp eq i64 %170, %245, !dbg !1149
  br i1 %286, label %309, label %241, !dbg !1149

287:                                              ; preds = %169
  %288 = load i64, i64* %172, align 8, !dbg !1147
  %289 = icmp eq i64 %288, 0, !dbg !1148
  br i1 %289, label %290, label %309, !dbg !1148

290:                                              ; preds = %287, %235
  %291 = getelementptr inbounds %"core::fmt::Formatter", %"core::fmt::Formatter"* %0, i64 0, i32 5, i32 0, !dbg !1171
  %292 = load {}*, {}** %291, align 8, !dbg !1171, !nonnull !28
  %293 = getelementptr inbounds %"core::fmt::Formatter", %"core::fmt::Formatter"* %0, i64 0, i32 5, i32 1, !dbg !1171
  %294 = bitcast [3 x i64]** %293 to i1 ({}*, [0 x i8]*, i64)***, !dbg !1171
  %295 = load i1 ({}*, [0 x i8]*, i64)**, i1 ({}*, [0 x i8]*, i64)*** %294, align 8, !dbg !1171, !nonnull !28
  %296 = getelementptr inbounds i1 ({}*, [0 x i8]*, i64)*, i1 ({}*, [0 x i8]*, i64)** %295, i64 3, !dbg !1171
  %297 = load i1 ({}*, [0 x i8]*, i64)*, i1 ({}*, [0 x i8]*, i64)** %296, align 8, !dbg !1171, !invariant.load !28, !nonnull !28
  %298 = tail call zeroext i1 %297({}* nonnull align 1 %292, [0 x i8]* noalias nonnull readonly align 1 %171, i64 %170), !dbg !1171
  br label %361, !dbg !1076

299:                                              ; preds = %299, %241
  %300 = phi i64 [ %307, %299 ], [ %242, %241 ]
  %301 = phi i8* [ %302, %299 ], [ %243, %241 ]
  %302 = getelementptr inbounds i8, i8* %301, i64 1, !dbg !1172
  %303 = load i8, i8* %301, align 1, !dbg !1157, !alias.scope !1158
  %304 = and i8 %303, -64, !dbg !1161
  %305 = icmp ne i8 %304, -128, !dbg !1161
  %306 = zext i1 %305 to i64, !dbg !1166
  %307 = add i64 %300, %306, !dbg !1167
  %308 = icmp eq i8* %302, %175, !dbg !1175
  br i1 %308, label %309, label %299, !dbg !1149, !llvm.loop !1176

309:                                              ; preds = %299, %287, %283
  %310 = phi i64 [ %288, %287 ], [ %237, %283 ], [ %237, %299 ]
  %311 = phi i64 [ 0, %287 ], [ %285, %283 ], [ %307, %299 ], !dbg !1177
  %312 = sub i64 %310, %311, !dbg !1178
  %313 = getelementptr inbounds %"core::fmt::Formatter", %"core::fmt::Formatter"* %0, i64 0, i32 11, !dbg !1179
  %314 = load i8, i8* %313, align 8, !dbg !1179, !range !1182
  %315 = icmp eq i8 %314, 3, !dbg !1179
  %316 = select i1 %315, i8 0, i8 %314, !dbg !1183
  switch i8 %316, label %321 [
    i8 0, label %323
    i8 1, label %322
    i8 2, label %317
    i8 3, label %322
  ], !dbg !1184

317:                                              ; preds = %309
  %318 = lshr i64 %312, 1, !dbg !1185
  %319 = add i64 %312, 1, !dbg !1186
  %320 = lshr i64 %319, 1, !dbg !1186
  br label %323, !dbg !1187

321:                                              ; preds = %309
  unreachable, !dbg !1188

322:                                              ; preds = %309, %309
  br label %323, !dbg !1187

323:                                              ; preds = %322, %317, %309
  %324 = phi i64 [ %320, %317 ], [ 0, %322 ], [ %312, %309 ], !dbg !1189
  %325 = phi i64 [ %318, %317 ], [ %312, %322 ], [ 0, %309 ], !dbg !1189
  %326 = getelementptr inbounds %"core::fmt::Formatter", %"core::fmt::Formatter"* %0, i64 0, i32 5, i32 0, !dbg !1189
  %327 = getelementptr inbounds %"core::fmt::Formatter", %"core::fmt::Formatter"* %0, i64 0, i32 5, i32 1, !dbg !1189
  %328 = bitcast [3 x i64]** %327 to i1 ({}*, i32)***, !dbg !1189
  %329 = getelementptr inbounds %"core::fmt::Formatter", %"core::fmt::Formatter"* %0, i64 0, i32 9, !dbg !1189
  br label %330, !dbg !1190

330:                                              ; preds = %333, %323
  %331 = phi i64 [ 0, %323 ], [ %334, %333 ], !dbg !1189
  %332 = icmp eq i64 %331, %325, !dbg !1191
  br i1 %332, label %341, label %333, !dbg !1194

333:                                              ; preds = %330
  %334 = add i64 %331, 1, !dbg !1195
  %335 = load {}*, {}** %326, align 8, !dbg !1198, !nonnull !28
  %336 = load i1 ({}*, i32)**, i1 ({}*, i32)*** %328, align 8, !dbg !1198, !nonnull !28
  %337 = load i32, i32* %329, align 4, !dbg !1199, !range !1200
  %338 = getelementptr inbounds i1 ({}*, i32)*, i1 ({}*, i32)** %336, i64 4, !dbg !1198
  %339 = load i1 ({}*, i32)*, i1 ({}*, i32)** %338, align 8, !dbg !1198, !invariant.load !28, !nonnull !28
  %340 = tail call zeroext i1 %339({}* nonnull align 1 %335, i32 %337), !dbg !1198
  br i1 %340, label %361, label %330, !dbg !1201

341:                                              ; preds = %330
  %342 = load i32, i32* %329, align 4, !dbg !1202, !range !1200
  %343 = load {}*, {}** %326, align 8, !dbg !1203, !nonnull !28
  %344 = bitcast [3 x i64]** %327 to i1 ({}*, [0 x i8]*, i64)***, !dbg !1203
  %345 = load i1 ({}*, [0 x i8]*, i64)**, i1 ({}*, [0 x i8]*, i64)*** %344, align 8, !dbg !1203, !nonnull !28
  %346 = getelementptr inbounds i1 ({}*, [0 x i8]*, i64)*, i1 ({}*, [0 x i8]*, i64)** %345, i64 3, !dbg !1203
  %347 = load i1 ({}*, [0 x i8]*, i64)*, i1 ({}*, [0 x i8]*, i64)** %346, align 8, !dbg !1203, !invariant.load !28, !nonnull !28
  %348 = tail call zeroext i1 %347({}* nonnull align 1 %343, [0 x i8]* noalias nonnull readonly align 1 %171, i64 %170), !dbg !1203
  br i1 %348, label %361, label %349, !dbg !1204

349:                                              ; preds = %341
  %350 = load {}*, {}** %326, align 8, !dbg !1205, !nonnull !28
  %351 = load [3 x i64]*, [3 x i64]** %327, align 8, !dbg !1205, !nonnull !28
  %352 = getelementptr inbounds [3 x i64], [3 x i64]* %351, i64 0, i64 4, !dbg !1206
  %353 = bitcast i64* %352 to i1 ({}*, i32)**, !dbg !1206
  br label %354, !dbg !1210

354:                                              ; preds = %357, %349
  %355 = phi i64 [ 0, %349 ], [ %358, %357 ], !dbg !1206
  %356 = icmp eq i64 %355, %324, !dbg !1211
  br i1 %356, label %361, label %357, !dbg !1214

357:                                              ; preds = %354
  %358 = add i64 %355, 1, !dbg !1215
  %359 = load i1 ({}*, i32)*, i1 ({}*, i32)** %353, align 8, !dbg !1218, !invariant.load !28, !alias.scope !1219, !nonnull !28
  %360 = tail call zeroext i1 %359({}* nonnull align 1 %350, i32 %342), !dbg !1218, !noalias !1219
  br i1 %360, label %361, label %354, !dbg !1222

361:                                              ; preds = %357, %354, %341, %333, %290, %159, %12
  %362 = phi i1 [ %20, %12 ], [ %168, %159 ], [ %298, %290 ], [ true, %341 ], [ true, %357 ], [ false, %354 ], [ true, %333 ], !dbg !842
  ret i1 %362, !dbg !1223
}

; Function Attrs: nounwind willreturn
declare void @llvm.assume(i1) #14

; Function Attrs: argmemonly nounwind willreturn
declare void @llvm.memcpy.p0i8.p0i8.i64(i8* noalias nocapture writeonly, i8* noalias nocapture readonly, i64, i1 immarg) #10

; Function Attrs: nounwind nonlazybind uwtable
define internal zeroext i1 @"_ZN43_$LT$bool$u20$as$u20$core..fmt..Display$GT$3fmt17h68936f9faabe396cE"(i8* noalias nocapture readonly align 1 dereferenceable(1) %0, %"core::fmt::Formatter"* nocapture readonly align 8 dereferenceable(64) %1) unnamed_addr #13 !dbg !1224 {
  %3 = load i8, i8* %0, align 1, !dbg !1225, !range !681
  %4 = icmp eq i8 %3, 0, !dbg !1225
  br i1 %4, label %7, label %5, !dbg !1226

5:                                                ; preds = %2
  %6 = tail call zeroext i1 @_ZN4core3fmt9Formatter3pad17h2bed62c7a96ce09cE(%"core::fmt::Formatter"* nonnull align 8 dereferenceable(64) %1, [0 x i8]* noalias nonnull readonly align 1 bitcast (<{ [4 x i8] }>* @anon.965c706604096d42e5b155eaa3c30edf.232 to [0 x i8]*), i64 4), !dbg !1227
  br label %9, !dbg !1226

7:                                                ; preds = %2
  %8 = tail call zeroext i1 @_ZN4core3fmt9Formatter3pad17h2bed62c7a96ce09cE(%"core::fmt::Formatter"* nonnull align 8 dereferenceable(64) %1, [0 x i8]* noalias nonnull readonly align 1 bitcast (<{ [5 x i8] }>* @anon.965c706604096d42e5b155eaa3c30edf.233 to [0 x i8]*), i64 5), !dbg !1230
  br label %9, !dbg !1226

9:                                                ; preds = %7, %5
  %10 = phi i1 [ %8, %7 ], [ %6, %5 ], !dbg !1232
  ret i1 %10, !dbg !1233
}

; Function Attrs: inlinehint norecurse nounwind nonlazybind readnone
define internal nonnull i8* @"_ZN4core5slice29_$LT$impl$u20$$u5b$T$u5d$$GT$6as_ptr17hc11cd399229b063eE"([0 x i8]* noalias nonnull readonly align 1 %0, i64 %1) unnamed_addr #2 !dbg !1234 {
  %3 = alloca { [0 x i8]*, i64 }, align 8
  %4 = getelementptr inbounds { [0 x i8]*, i64 }, { [0 x i8]*, i64 }* %3, i32 0, i32 0
  store [0 x i8]* %0, [0 x i8]** %4, align 8
  %5 = getelementptr inbounds { [0 x i8]*, i64 }, { [0 x i8]*, i64 }* %3, i32 0, i32 1
  store i64 %1, i64* %5, align 8
  call void @llvm.dbg.declare(metadata { [0 x i8]*, i64 }* %3, metadata !1243, metadata !DIExpression()), !dbg !1246
  %6 = bitcast [0 x i8]* %0 to i8*, !dbg !1247
  ret i8* %6, !dbg !1248
}

; Function Attrs: inlinehint nounwind nonlazybind
define internal i64 @_ZN4core3mem7replace17hf3b6497db9e66a68E(i64* align 8 dereferenceable(8) %0, i64 %1) unnamed_addr #0 personality i32 (...)* @rust_eh_personality !dbg !1249 {
  %3 = alloca { i8*, i32 }, align 8
  %4 = alloca i64*, align 8
  %5 = alloca i64, align 8
  store i64 %1, i64* %5, align 8
  store i64* %0, i64** %4, align 8
  call void @llvm.dbg.declare(metadata i64** %4, metadata !1255, metadata !DIExpression()), !dbg !1257
  call void @llvm.dbg.declare(metadata i64* %5, metadata !1256, metadata !DIExpression()), !dbg !1258
  call void @_ZN4core3mem4swap17h59ae4fd38c7c4bd2E(i64* align 8 dereferenceable(8) %0, i64* align 8 dereferenceable(8) %5), !dbg !1259
  %6 = load i64, i64* %5, align 8, !dbg !1260
  ret i64 %6, !dbg !1261
}

; Function Attrs: inlinehint nounwind nonlazybind
define internal void @_ZN4core3mem4swap17h59ae4fd38c7c4bd2E(i64* align 8 dereferenceable(8) %0, i64* align 8 dereferenceable(8) %1) unnamed_addr #0 !dbg !1262 {
  %3 = alloca i64*, align 8
  %4 = alloca i64*, align 8
  store i64* %0, i64** %4, align 8
  call void @llvm.dbg.declare(metadata i64** %4, metadata !1266, metadata !DIExpression()), !dbg !1268
  store i64* %1, i64** %3, align 8
  call void @llvm.dbg.declare(metadata i64** %3, metadata !1267, metadata !DIExpression()), !dbg !1269
  call void @_ZN4core3ptr23swap_nonoverlapping_one17hb8e549a2ed77324fE(i64* %0, i64* %1), !dbg !1270
  ret void, !dbg !1271
}

; Function Attrs: inlinehint nounwind nonlazybind
define internal void @_ZN4core3ptr23swap_nonoverlapping_one17hb8e549a2ed77324fE(i64* %0, i64* %1) unnamed_addr #0 personality i32 (...)* @rust_eh_personality !dbg !1272 {
  %3 = alloca { i8*, i32 }, align 8
  %4 = alloca i64, align 8
  %5 = alloca i64*, align 8
  %6 = alloca i64*, align 8
  %7 = alloca i8, align 1
  %8 = alloca {}, align 1
  store i64* %0, i64** %6, align 8
  call void @llvm.dbg.declare(metadata i64** %6, metadata !1278, metadata !DIExpression()), !dbg !1282
  store i64* %1, i64** %5, align 8
  call void @llvm.dbg.declare(metadata i64** %5, metadata !1279, metadata !DIExpression()), !dbg !1283
  store i8 0, i8* %7, align 1, !dbg !1284
  %9 = icmp ult i64 8, 32, !dbg !1284
  br i1 %9, label %10, label %12, !dbg !1285

10:                                               ; preds = %2
  store i8 1, i8* %7, align 1, !dbg !1286
  %11 = call i64 @_ZN4core3ptr4read17h313a7e7e77d2d4a5E(i64* %0), !dbg !1286
  store i64 %11, i64* %4, align 8, !dbg !1286
  call void @llvm.dbg.declare(metadata i64* %4, metadata !1280, metadata !DIExpression()), !dbg !1287
  call void @_ZN4core10intrinsics19copy_nonoverlapping17h8d5bd974e265d66cE(i64* %1, i64* %0, i64 1), !dbg !1288
  store i8 0, i8* %7, align 1, !dbg !1289
  call void @_ZN4core3ptr5write17hbb233c52978d0d77E(i64* %1, i64 %11), !dbg !1290
  store i8 0, i8* %7, align 1, !dbg !1291
  br label %13, !dbg !1285

12:                                               ; preds = %2
  call void @_ZN4core3ptr19swap_nonoverlapping17hdf533d4950df7233E(i64* %0, i64* %1, i64 1), !dbg !1292
  br label %13, !dbg !1285

13:                                               ; preds = %12, %10
  ret void, !dbg !1293
}

; Function Attrs: inlinehint nounwind nonlazybind
define internal i64 @_ZN4core3ptr4read17h313a7e7e77d2d4a5E(i64* %0) unnamed_addr #0 !dbg !1294 {
  %2 = alloca i64*, align 8
  %3 = alloca i64, align 8
  %4 = alloca i64, align 8
  %5 = alloca i64, align 8
  %6 = alloca i64*, align 8
  %7 = alloca i64, align 8
  store i64* %0, i64** %6, align 8
  call void @llvm.dbg.declare(metadata i64** %6, metadata !1299, metadata !DIExpression()), !dbg !1311
  call void @llvm.dbg.declare(metadata i64* %7, metadata !1300, metadata !DIExpression()), !dbg !1312
  %8 = bitcast i64* %5 to {}*, !dbg !1313
  %9 = load i64, i64* %5, align 8, !dbg !1319
  store i64 %9, i64* %7, align 8, !dbg !1320
  store i64* %7, i64** %2, align 8
  call void @llvm.dbg.declare(metadata i64** %2, metadata !1321, metadata !DIExpression()), !dbg !1327
  call void @_ZN4core10intrinsics19copy_nonoverlapping17h8d5bd974e265d66cE(i64* %0, i64* %7, i64 1), !dbg !1329
  %10 = load i64, i64* %7, align 8, !dbg !1330
  store i64 %10, i64* %4, align 8
  call void @llvm.dbg.declare(metadata i64* %4, metadata !1331, metadata !DIExpression()), !dbg !1336
  store i64 %10, i64* %3, align 8
  call void @llvm.dbg.declare(metadata i64* %3, metadata !1338, metadata !DIExpression()), !dbg !1344
  ret i64 %10, !dbg !1346
}

; Function Attrs: inlinehint nounwind nonlazybind
define internal void @_ZN4core3ptr19swap_nonoverlapping17hdf533d4950df7233E(i64* %0, i64* %1, i64 %2) unnamed_addr #0 !dbg !1347 {
  %4 = alloca i64, align 8
  %5 = alloca i8*, align 8
  %6 = alloca i8*, align 8
  %7 = alloca i64, align 8
  %8 = alloca i64*, align 8
  %9 = alloca i64*, align 8
  store i64* %0, i64** %9, align 8
  call void @llvm.dbg.declare(metadata i64** %9, metadata !1351, metadata !DIExpression()), !dbg !1360
  store i64* %1, i64** %8, align 8
  call void @llvm.dbg.declare(metadata i64** %8, metadata !1352, metadata !DIExpression()), !dbg !1361
  store i64 %2, i64* %7, align 8
  call void @llvm.dbg.declare(metadata i64* %7, metadata !1353, metadata !DIExpression()), !dbg !1362
  %10 = bitcast i64* %0 to i8*, !dbg !1363
  store i8* %10, i8** %6, align 8, !dbg !1363
  call void @llvm.dbg.declare(metadata i8** %6, metadata !1354, metadata !DIExpression()), !dbg !1364
  %11 = bitcast i64* %1 to i8*, !dbg !1365
  store i8* %11, i8** %5, align 8, !dbg !1365
  call void @llvm.dbg.declare(metadata i8** %5, metadata !1356, metadata !DIExpression()), !dbg !1366
  %12 = mul i64 8, %2, !dbg !1367
  store i64 %12, i64* %4, align 8, !dbg !1367
  call void @llvm.dbg.declare(metadata i64* %4, metadata !1358, metadata !DIExpression()), !dbg !1368
  call void @_ZN4core3ptr25swap_nonoverlapping_bytes17h514aa8232de39c2dE(i8* %10, i8* %11, i64 %12), !dbg !1369
  ret void, !dbg !1370
}

; Function Attrs: inlinehint nounwind nonlazybind
define internal void @_ZN4core10intrinsics19copy_nonoverlapping17h8d5bd974e265d66cE(i64* %0, i64* %1, i64 %2) unnamed_addr #0 !dbg !1371 {
  %4 = alloca i64, align 8
  %5 = alloca i64*, align 8
  %6 = alloca i64*, align 8
  store i64* %0, i64** %6, align 8
  call void @llvm.dbg.declare(metadata i64** %6, metadata !1377, metadata !DIExpression()), !dbg !1380
  store i64* %1, i64** %5, align 8
  call void @llvm.dbg.declare(metadata i64** %5, metadata !1378, metadata !DIExpression()), !dbg !1381
  store i64 %2, i64* %4, align 8
  call void @llvm.dbg.declare(metadata i64* %4, metadata !1379, metadata !DIExpression()), !dbg !1382
  %7 = mul i64 8, %2, !dbg !1383
  %8 = bitcast i64* %1 to i8*, !dbg !1383
  %9 = bitcast i64* %0 to i8*, !dbg !1383
  %10 = call i8* @memcpy(i8* %8, i8* %9, i64 %7), !dbg !1383
  ret void, !dbg !1384
}

; Function Attrs: inlinehint nounwind nonlazybind
define internal void @_ZN4core3ptr5write17hbb233c52978d0d77E(i64* %0, i64 %1) unnamed_addr #0 personality i32 (...)* @rust_eh_personality !dbg !1385 {
  %3 = alloca { i8*, i32 }, align 8
  %4 = alloca i64*, align 8
  %5 = alloca i8, align 1
  %6 = alloca i64, align 8
  store i64 %1, i64* %6, align 8
  store i64* %0, i64** %4, align 8
  call void @llvm.dbg.declare(metadata i64** %4, metadata !1389, metadata !DIExpression()), !dbg !1391
  call void @llvm.dbg.declare(metadata i64* %6, metadata !1390, metadata !DIExpression()), !dbg !1392
  store i8 0, i8* %5, align 1, !dbg !1393
  store i8 1, i8* %5, align 1, !dbg !1393
  %7 = bitcast i64* %0 to i8*, !dbg !1393
  %8 = bitcast i64* %6 to i8*, !dbg !1393
  %9 = call i8* @memcpy(i8* %7, i8* %8, i64 8), !dbg !1393
  store i8 0, i8* %5, align 1, !dbg !1394
  ret void, !dbg !1395
}

; Function Attrs: inlinehint nounwind nonlazybind
define internal void @_ZN4core3ptr25swap_nonoverlapping_bytes17h514aa8232de39c2dE(i8* %0, i8* %1, i64 %2) unnamed_addr #0 !dbg !1396 {
  %4 = alloca %"core::mem::MaybeUninit<core::ptr::swap_nonoverlapping_bytes::UnalignedBlock>"*, align 8
  %5 = alloca <4 x i64>*, align 8
  %6 = alloca i8*, align 8
  %7 = alloca i8*, align 8
  %8 = alloca i8*, align 8
  %9 = alloca i64, align 8
  %10 = alloca i8*, align 8
  %11 = alloca i8*, align 8
  %12 = alloca i8*, align 8
  %13 = alloca i64, align 8
  %14 = alloca i64, align 8
  %15 = alloca i8*, align 8
  %16 = alloca i8*, align 8
  %17 = alloca %"core::mem::MaybeUninit<core::ptr::swap_nonoverlapping_bytes::UnalignedBlock>", align 8
  %18 = alloca <4 x i64>, align 32
  %19 = alloca i64, align 8
  %20 = alloca {}, align 1
  store i8* %0, i8** %16, align 8
  call void @llvm.dbg.declare(metadata i8** %16, metadata !1400, metadata !DIExpression()), !dbg !1456
  store i8* %1, i8** %15, align 8
  call void @llvm.dbg.declare(metadata i8** %15, metadata !1401, metadata !DIExpression()), !dbg !1457
  store i64 %2, i64* %14, align 8
  call void @llvm.dbg.declare(metadata i64* %14, metadata !1402, metadata !DIExpression()), !dbg !1458
  call void @llvm.dbg.declare(metadata i64* %19, metadata !1405, metadata !DIExpression()), !dbg !1459
  call void @llvm.dbg.declare(metadata <4 x i64>* %18, metadata !1407, metadata !DIExpression()), !dbg !1460
  call void @llvm.dbg.declare(metadata %"core::mem::MaybeUninit<core::ptr::swap_nonoverlapping_bytes::UnalignedBlock>"* %17, metadata !1431, metadata !DIExpression()), !dbg !1461
  store i64 32, i64* %13, align 8, !dbg !1462
  call void @llvm.dbg.declare(metadata i64* %13, metadata !1403, metadata !DIExpression()), !dbg !1463
  store i64 0, i64* %19, align 8, !dbg !1464
  br label %21, !dbg !1465

21:                                               ; preds = %28, %3
  %22 = load i64, i64* %19, align 8, !dbg !1466
  %23 = add i64 %22, 32, !dbg !1466
  %24 = icmp ule i64 %23, %2, !dbg !1466
  br i1 %24, label %28, label %25, !dbg !1465

25:                                               ; preds = %21
  %26 = load i64, i64* %19, align 8, !dbg !1467
  %27 = icmp ult i64 %26, %2, !dbg !1467
  br i1 %27, label %37, label %47, !dbg !1468

28:                                               ; preds = %21
  %29 = bitcast <4 x i64>* %18 to {}*, !dbg !1469
  store <4 x i64>* %18, <4 x i64>** %5, align 8
  call void @llvm.dbg.declare(metadata <4 x i64>** %5, metadata !1474, metadata !DIExpression()), !dbg !1481
  %30 = bitcast <4 x i64>* %18 to i8*, !dbg !1483
  store i8* %30, i8** %12, align 8, !dbg !1483
  call void @llvm.dbg.declare(metadata i8** %12, metadata !1425, metadata !DIExpression()), !dbg !1484
  %31 = load i64, i64* %19, align 8, !dbg !1485
  %32 = call i8* @"_ZN4core3ptr7mut_ptr31_$LT$impl$u20$$BP$mut$u20$T$GT$3add17h90e417d9863cb405E"(i8* %0, i64 %31), !dbg !1486
  store i8* %32, i8** %11, align 8, !dbg !1486
  call void @llvm.dbg.declare(metadata i8** %11, metadata !1427, metadata !DIExpression()), !dbg !1487
  %33 = load i64, i64* %19, align 8, !dbg !1488
  %34 = call i8* @"_ZN4core3ptr7mut_ptr31_$LT$impl$u20$$BP$mut$u20$T$GT$3add17h90e417d9863cb405E"(i8* %1, i64 %33), !dbg !1489
  store i8* %34, i8** %10, align 8, !dbg !1489
  call void @llvm.dbg.declare(metadata i8** %10, metadata !1429, metadata !DIExpression()), !dbg !1490
  call void @_ZN4core10intrinsics19copy_nonoverlapping17h7df68daedec6b3d5E(i8* %32, i8* %30, i64 32), !dbg !1491
  call void @_ZN4core10intrinsics19copy_nonoverlapping17h7df68daedec6b3d5E(i8* %34, i8* %32, i64 32), !dbg !1492
  call void @_ZN4core10intrinsics19copy_nonoverlapping17h7df68daedec6b3d5E(i8* %30, i8* %34, i64 32), !dbg !1493
  %35 = load i64, i64* %19, align 8, !dbg !1494
  %36 = add i64 %35, 32, !dbg !1494
  store i64 %36, i64* %19, align 8, !dbg !1494
  br label %21, !dbg !1465

37:                                               ; preds = %25
  %38 = bitcast %"core::mem::MaybeUninit<core::ptr::swap_nonoverlapping_bytes::UnalignedBlock>"* %17 to {}*, !dbg !1495
  %39 = load i64, i64* %19, align 8, !dbg !1500
  %40 = sub i64 %2, %39, !dbg !1501
  store i64 %40, i64* %9, align 8, !dbg !1501
  call void @llvm.dbg.declare(metadata i64* %9, metadata !1448, metadata !DIExpression()), !dbg !1502
  store %"core::mem::MaybeUninit<core::ptr::swap_nonoverlapping_bytes::UnalignedBlock>"* %17, %"core::mem::MaybeUninit<core::ptr::swap_nonoverlapping_bytes::UnalignedBlock>"** %4, align 8
  call void @llvm.dbg.declare(metadata %"core::mem::MaybeUninit<core::ptr::swap_nonoverlapping_bytes::UnalignedBlock>"** %4, metadata !1503, metadata !DIExpression()), !dbg !1510
  %41 = bitcast %"core::mem::MaybeUninit<core::ptr::swap_nonoverlapping_bytes::UnalignedBlock>"* %17 to %"hash::sip::State"*, !dbg !1512
  %42 = bitcast %"hash::sip::State"* %41 to i8*, !dbg !1513
  store i8* %42, i8** %8, align 8, !dbg !1513
  call void @llvm.dbg.declare(metadata i8** %8, metadata !1450, metadata !DIExpression()), !dbg !1514
  %43 = load i64, i64* %19, align 8, !dbg !1515
  %44 = call i8* @"_ZN4core3ptr7mut_ptr31_$LT$impl$u20$$BP$mut$u20$T$GT$3add17h90e417d9863cb405E"(i8* %0, i64 %43), !dbg !1516
  store i8* %44, i8** %7, align 8, !dbg !1516
  call void @llvm.dbg.declare(metadata i8** %7, metadata !1452, metadata !DIExpression()), !dbg !1517
  %45 = load i64, i64* %19, align 8, !dbg !1518
  %46 = call i8* @"_ZN4core3ptr7mut_ptr31_$LT$impl$u20$$BP$mut$u20$T$GT$3add17h90e417d9863cb405E"(i8* %1, i64 %45), !dbg !1519
  store i8* %46, i8** %6, align 8, !dbg !1519
  call void @llvm.dbg.declare(metadata i8** %6, metadata !1454, metadata !DIExpression()), !dbg !1520
  call void @_ZN4core10intrinsics19copy_nonoverlapping17h7df68daedec6b3d5E(i8* %44, i8* %42, i64 %40), !dbg !1521
  call void @_ZN4core10intrinsics19copy_nonoverlapping17h7df68daedec6b3d5E(i8* %46, i8* %44, i64 %40), !dbg !1522
  call void @_ZN4core10intrinsics19copy_nonoverlapping17h7df68daedec6b3d5E(i8* %42, i8* %46, i64 %40), !dbg !1523
  br label %47, !dbg !1468

47:                                               ; preds = %37, %25
  ret void, !dbg !1524
}

; Function Attrs: inlinehint norecurse nounwind nonlazybind readnone
define internal i8* @"_ZN4core3ptr7mut_ptr31_$LT$impl$u20$$BP$mut$u20$T$GT$3add17h90e417d9863cb405E"(i8* %0, i64 %1) unnamed_addr #2 !dbg !1525 {
  %3 = alloca i64, align 8
  %4 = alloca i8*, align 8
  store i8* %0, i8** %4, align 8
  call void @llvm.dbg.declare(metadata i8** %4, metadata !1530, metadata !DIExpression()), !dbg !1534
  store i64 %1, i64* %3, align 8
  call void @llvm.dbg.declare(metadata i64* %3, metadata !1531, metadata !DIExpression()), !dbg !1535
  %5 = call i8* @"_ZN4core3ptr7mut_ptr31_$LT$impl$u20$$BP$mut$u20$T$GT$6offset17h0b3ce97c1f0a282eE"(i8* %0, i64 %1), !dbg !1536
  ret i8* %5, !dbg !1537
}

; Function Attrs: inlinehint nounwind nonlazybind
define internal void @_ZN4core10intrinsics19copy_nonoverlapping17h7df68daedec6b3d5E(i8* %0, i8* %1, i64 %2) unnamed_addr #0 !dbg !1538 {
  %4 = alloca i64, align 8
  %5 = alloca i8*, align 8
  %6 = alloca i8*, align 8
  store i8* %0, i8** %6, align 8
  call void @llvm.dbg.declare(metadata i8** %6, metadata !1542, metadata !DIExpression()), !dbg !1545
  store i8* %1, i8** %5, align 8
  call void @llvm.dbg.declare(metadata i8** %5, metadata !1543, metadata !DIExpression()), !dbg !1546
  store i64 %2, i64* %4, align 8
  call void @llvm.dbg.declare(metadata i64* %4, metadata !1544, metadata !DIExpression()), !dbg !1547
  %7 = mul i64 1, %2, !dbg !1548
  %8 = call i8* @memcpy(i8* %1, i8* %0, i64 %7), !dbg !1548
  ret void, !dbg !1549
}

; Function Attrs: inlinehint norecurse nounwind nonlazybind readnone
define internal i8* @"_ZN4core3ptr7mut_ptr31_$LT$impl$u20$$BP$mut$u20$T$GT$6offset17h0b3ce97c1f0a282eE"(i8* %0, i64 %1) unnamed_addr #2 !dbg !1550 {
  %3 = alloca i8*, align 8
  %4 = alloca i64, align 8
  %5 = alloca i8*, align 8
  store i8* %0, i8** %5, align 8
  call void @llvm.dbg.declare(metadata i8** %5, metadata !1555, metadata !DIExpression()), !dbg !1557
  store i64 %1, i64* %4, align 8
  call void @llvm.dbg.declare(metadata i64* %4, metadata !1556, metadata !DIExpression()), !dbg !1558
  %6 = getelementptr inbounds i8, i8* %0, i64 %1, !dbg !1559
  store i8* %6, i8** %3, align 8, !dbg !1559
  %7 = load i8*, i8** %3, align 8, !dbg !1559
  ret i8* %7, !dbg !1560
}

; Function Attrs: noinline noreturn nounwind nonlazybind
define internal void @rust_begin_unwind(%"panic::PanicInfo"* noalias readonly align 8 dereferenceable(32) %0) unnamed_addr #15 !dbg !1561 {
  %2 = alloca %"panic::PanicInfo"*, align 8
  store %"panic::PanicInfo"* %0, %"panic::PanicInfo"** %2, align 8
  call void @llvm.dbg.declare(metadata %"panic::PanicInfo"** %2, metadata !1687, metadata !DIExpression()), !dbg !1688
  call void @abort(), !dbg !1689
  unreachable, !dbg !1689
}

; Function Attrs: alwaysinline noreturn nounwind nonlazybind
declare void @abort() unnamed_addr #16

; Function Attrs: noinline nounwind uwtable
define dso_local i8* @memcpy(i8* %0, i8* %1, i64 %2) #17 !dbg !1690 {
  %4 = alloca i8*, align 8
  %5 = alloca i8*, align 8
  %6 = alloca i64, align 8
  %7 = alloca i8*, align 8
  %8 = alloca i8*, align 8
  store i8* %0, i8** %4, align 8
  call void @llvm.dbg.declare(metadata i8** %4, metadata !1700, metadata !DIExpression()), !dbg !1701
  store i8* %1, i8** %5, align 8
  call void @llvm.dbg.declare(metadata i8** %5, metadata !1702, metadata !DIExpression()), !dbg !1703
  store i64 %2, i64* %6, align 8
  call void @llvm.dbg.declare(metadata i64* %6, metadata !1704, metadata !DIExpression()), !dbg !1705
  call void @llvm.dbg.declare(metadata i8** %7, metadata !1706, metadata !DIExpression()), !dbg !1709
  %9 = load i8*, i8** %4, align 8, !dbg !1710
  store i8* %9, i8** %7, align 8, !dbg !1709
  call void @llvm.dbg.declare(metadata i8** %8, metadata !1711, metadata !DIExpression()), !dbg !1714
  %10 = load i8*, i8** %5, align 8, !dbg !1715
  store i8* %10, i8** %8, align 8, !dbg !1714
  br label %11, !dbg !1716

11:                                               ; preds = %15, %3
  %12 = load i64, i64* %6, align 8, !dbg !1717
  %13 = add i64 %12, -1, !dbg !1717
  store i64 %13, i64* %6, align 8, !dbg !1717
  %14 = icmp ugt i64 %12, 0, !dbg !1718
  br i1 %14, label %15, label %21, !dbg !1716

15:                                               ; preds = %11
  %16 = load i8*, i8** %8, align 8, !dbg !1719
  %17 = getelementptr inbounds i8, i8* %16, i32 1, !dbg !1719
  store i8* %17, i8** %8, align 8, !dbg !1719
  %18 = load i8, i8* %16, align 1, !dbg !1720
  %19 = load i8*, i8** %7, align 8, !dbg !1721
  %20 = getelementptr inbounds i8, i8* %19, i32 1, !dbg !1721
  store i8* %20, i8** %7, align 8, !dbg !1721
  store i8 %18, i8* %19, align 1, !dbg !1722
  br label %11, !dbg !1716, !llvm.loop !1723

21:                                               ; preds = %11
  %22 = load i8*, i8** %4, align 8, !dbg !1724
  ret i8* %22, !dbg !1725
}

; Function Attrs: noinline nounwind uwtable
define dso_local void @klee_div_zero_check(i64 %0) #17 !dbg !1726 {
  %2 = alloca i64, align 8
  store i64 %0, i64* %2, align 8
  call void @llvm.dbg.declare(metadata i64* %2, metadata !1731, metadata !DIExpression()), !dbg !1732
  %3 = load i64, i64* %2, align 8, !dbg !1733
  %4 = icmp eq i64 %3, 0, !dbg !1735
  br i1 %4, label %5, label %6, !dbg !1736

5:                                                ; preds = %1
  call void @klee_report_error(i8* getelementptr inbounds ([58 x i8], [58 x i8]* @.str, i64 0, i64 0), i32 14, i8* getelementptr inbounds ([15 x i8], [15 x i8]* @.str.1, i64 0, i64 0), i8* getelementptr inbounds ([8 x i8], [8 x i8]* @.str.2, i64 0, i64 0)) #20, !dbg !1737
  unreachable, !dbg !1737

6:                                                ; preds = %1
  ret void, !dbg !1738
}

; Function Attrs: noreturn
declare dso_local void @klee_report_error(i8*, i32, i8*, i8*) #18

attributes #0 = { inlinehint nounwind nonlazybind "probe-stack"="__rust_probestack" "target-cpu"="x86-64" }
attributes #1 = { nounwind nonlazybind "probe-stack"="__rust_probestack" "target-cpu"="x86-64" }
attributes #2 = { inlinehint norecurse nounwind nonlazybind readnone "probe-stack"="__rust_probestack" "target-cpu"="x86-64" }
attributes #3 = { inlinehint norecurse nounwind nonlazybind readonly "probe-stack"="__rust_probestack" "target-cpu"="x86-64" }
attributes #4 = { norecurse nounwind nonlazybind readnone "probe-stack"="__rust_probestack" "target-cpu"="x86-64" }
attributes #5 = { inlinehint nofree norecurse nounwind nonlazybind writeonly "probe-stack"="__rust_probestack" "target-cpu"="x86-64" }
attributes #6 = { nounwind readnone speculatable willreturn }
attributes #7 = { nounwind readnone willreturn }
attributes #8 = { nounwind nonlazybind "target-cpu"="x86-64" }
attributes #9 = { cold noinline noreturn nounwind nonlazybind uwtable "probe-stack"="__rust_probestack" "target-cpu"="x86-64" }
attributes #10 = { argmemonly nounwind willreturn }
attributes #11 = { inlinehint norecurse nounwind nonlazybind readnone uwtable "probe-stack"="__rust_probestack" "target-cpu"="x86-64" }
attributes #12 = { norecurse nounwind nonlazybind readnone uwtable "probe-stack"="__rust_probestack" "target-cpu"="x86-64" }
attributes #13 = { nounwind nonlazybind uwtable "probe-stack"="__rust_probestack" "target-cpu"="x86-64" }
attributes #14 = { nounwind willreturn }
attributes #15 = { noinline noreturn nounwind nonlazybind "probe-stack"="__rust_probestack" "target-cpu"="x86-64" }
attributes #16 = { alwaysinline noreturn nounwind nonlazybind "probe-stack"="__rust_probestack" "target-cpu"="x86-64" }
attributes #17 = { noinline nounwind uwtable "correctly-rounded-divide-sqrt-fp-math"="false" "disable-tail-calls"="false" "frame-pointer"="all" "less-precise-fpmad"="false" "min-legal-vector-width"="0" "no-infs-fp-math"="false" "no-jump-tables"="false" "no-nans-fp-math"="false" "no-signed-zeros-fp-math"="false" "no-trapping-math"="false" "stack-protector-buffer-size"="8" "target-cpu"="x86-64" "target-features"="+cx8,+fxsr,+mmx,+sse,+sse2,+x87" "unsafe-fp-math"="false" "use-soft-float"="false" }
attributes #18 = { noreturn "correctly-rounded-divide-sqrt-fp-math"="false" "disable-tail-calls"="false" "frame-pointer"="all" "less-precise-fpmad"="false" "no-infs-fp-math"="false" "no-nans-fp-math"="false" "no-signed-zeros-fp-math"="false" "no-trapping-math"="false" "stack-protector-buffer-size"="8" "target-cpu"="x86-64" "target-features"="+cx8,+fxsr,+mmx,+sse,+sse2,+x87" "unsafe-fp-math"="false" "use-soft-float"="false" }
attributes #19 = { nounwind }
attributes #20 = { noreturn }

!llvm.module.flags = !{!0, !1, !2, !3, !4, !5}
!llvm.dbg.cu = !{!6, !26, !29, !62, !64, !66, !383, !386, !388, !390}
!llvm.ident = !{!392, !392}

!0 = !{i32 7, !"PIC Level", i32 2}
!1 = !{i32 7, !"PIE Level", i32 2}
!2 = !{i32 2, !"RtLibUseGOT", i32 1}
!3 = !{i32 2, !"Debug Info Version", i32 3}
!4 = !{i32 7, !"Dwarf Version", i32 4}
!5 = !{i32 1, !"wchar_size", i32 4}
!6 = distinct !DICompileUnit(language: DW_LANG_Rust, file: !7, producer: "clang LLVM (rustc version 1.51.0 (2fd73fabe 2021-03-23))", isOptimized: false, runtimeVersion: 0, emissionKind: FullDebug, enums: !8)
!7 = !DIFile(filename: "src/main.rs", directory: "/home/ubuntu/container-data/primes/target/debug/deps")
!8 = !{!9, !17}
!9 = !DICompositeType(tag: DW_TAG_enumeration_type, name: "Result", scope: !11, file: !10, baseType: !13, size: 8, align: 8, flags: DIFlagEnumClass, elements: !14)
!10 = !DIFile(filename: "<unknown>", directory: "")
!11 = !DINamespace(name: "result", scope: !12)
!12 = !DINamespace(name: "core", scope: null)
!13 = !DIBasicType(name: "u8", size: 8, encoding: DW_ATE_unsigned)
!14 = !{!15, !16}
!15 = !DIEnumerator(name: "Ok", value: 0)
!16 = !DIEnumerator(name: "Err", value: 1)
!17 = !DICompositeType(tag: DW_TAG_enumeration_type, name: "Alignment", scope: !18, file: !10, baseType: !13, size: 8, align: 8, flags: DIFlagEnumClass, elements: !21)
!18 = !DINamespace(name: "v1", scope: !19)
!19 = !DINamespace(name: "rt", scope: !20)
!20 = !DINamespace(name: "fmt", scope: !12)
!21 = !{!22, !23, !24, !25}
!22 = !DIEnumerator(name: "Left", value: 0)
!23 = !DIEnumerator(name: "Right", value: 1)
!24 = !DIEnumerator(name: "Center", value: 2)
!25 = !DIEnumerator(name: "Unknown", value: 3)
!26 = distinct !DICompileUnit(language: DW_LANG_Rust, file: !27, producer: "clang LLVM (rustc version 1.51.0 (2fd73fabe 2021-03-23))", isOptimized: true, runtimeVersion: 0, emissionKind: FullDebug, enums: !28)
!27 = !DIFile(filename: "library/core/src/lib.rs", directory: "/checkout/obj/build/x86_64-unknown-linux-gnu/stage1-std/x86_64-unknown-linux-gnu/release/deps")
!28 = !{}
!29 = distinct !DICompileUnit(language: DW_LANG_Rust, file: !30, producer: "clang LLVM (rustc version 1.51.0 (2fd73fabe 2021-03-23))", isOptimized: false, runtimeVersion: 0, emissionKind: FullDebug, enums: !31, globals: !39)
!30 = !DIFile(filename: "/home/ubuntu/.cargo/registry/src/github.com-1ecc6299db9ec823/cstr_core-0.2.5/src/lib.rs", directory: "/home/ubuntu/container-data/primes/target/debug/deps")
!31 = !{!9, !17, !32}
!32 = !DICompositeType(tag: DW_TAG_enumeration_type, name: "Ordering", scope: !33, file: !10, baseType: !34, size: 8, align: 8, flags: DIFlagEnumClass, elements: !35)
!33 = !DINamespace(name: "cmp", scope: !12)
!34 = !DIBasicType(name: "i8", size: 8, encoding: DW_ATE_signed)
!35 = !{!36, !37, !38}
!36 = !DIEnumerator(name: "Less", value: -1)
!37 = !DIEnumerator(name: "Equal", value: 0)
!38 = !DIEnumerator(name: "Greater", value: 1)
!39 = !{!40, !58}
!40 = !DIGlobalVariableExpression(var: !41, expr: !DIExpression())
!41 = distinct !DIGlobalVariable(name: "vtable", scope: null, file: !10, type: !42, isLocal: true, isDefinition: true)
!42 = !DICompositeType(tag: DW_TAG_structure_type, name: "vtable", file: !10, align: 64, flags: DIFlagArtificial, elements: !28, vtableHolder: !43, identifier: "vtable")
!43 = !DIDerivedType(tag: DW_TAG_pointer_type, name: "&cstr_core::FromBytesWithNulErrorKind", baseType: !44, size: 64, align: 64, dwarfAddressSpace: 0)
!44 = !DICompositeType(tag: DW_TAG_structure_type, name: "FromBytesWithNulErrorKind", scope: !45, file: !10, size: 128, align: 64, elements: !46, identifier: "bbc6373f6c1b3f34c6d2b514ae57c5d8")
!45 = !DINamespace(name: "cstr_core", scope: null)
!46 = !{!47}
!47 = !DICompositeType(tag: DW_TAG_variant_part, scope: !45, file: !10, size: 128, align: 64, elements: !48, templateParams: !28, identifier: "bbc6373f6c1b3f34c6d2b514ae57c5d8_variant_part", discriminator: !56)
!48 = !{!49, !54}
!49 = !DIDerivedType(tag: DW_TAG_member, name: "InteriorNul", scope: !47, file: !10, baseType: !50, size: 128, align: 64, extraData: i64 0)
!50 = !DICompositeType(tag: DW_TAG_structure_type, name: "InteriorNul", scope: !44, file: !10, size: 128, align: 64, elements: !51, templateParams: !28, identifier: "bbc6373f6c1b3f34c6d2b514ae57c5d8::InteriorNul")
!51 = !{!52}
!52 = !DIDerivedType(tag: DW_TAG_member, name: "__0", scope: !50, file: !10, baseType: !53, size: 64, align: 64, offset: 64)
!53 = !DIBasicType(name: "usize", size: 64, encoding: DW_ATE_unsigned)
!54 = !DIDerivedType(tag: DW_TAG_member, name: "NotNulTerminated", scope: !47, file: !10, baseType: !55, size: 128, align: 64, extraData: i64 1)
!55 = !DICompositeType(tag: DW_TAG_structure_type, name: "NotNulTerminated", scope: !44, file: !10, size: 128, align: 64, elements: !28, templateParams: !28, identifier: "bbc6373f6c1b3f34c6d2b514ae57c5d8::NotNulTerminated")
!56 = !DIDerivedType(tag: DW_TAG_member, scope: !45, file: !10, baseType: !57, size: 64, align: 64, flags: DIFlagArtificial)
!57 = !DIBasicType(name: "u64", size: 64, encoding: DW_ATE_unsigned)
!58 = !DIGlobalVariableExpression(var: !59, expr: !DIExpression())
!59 = distinct !DIGlobalVariable(name: "vtable", scope: null, file: !10, type: !60, isLocal: true, isDefinition: true)
!60 = !DICompositeType(tag: DW_TAG_structure_type, name: "vtable", file: !10, align: 64, flags: DIFlagArtificial, elements: !28, vtableHolder: !61, identifier: "vtable")
!61 = !DIDerivedType(tag: DW_TAG_pointer_type, name: "&usize", baseType: !53, size: 64, align: 64, dwarfAddressSpace: 0)
!62 = distinct !DICompileUnit(language: DW_LANG_Rust, file: !63, producer: "clang LLVM (rustc version 1.51.0 (2fd73fabe 2021-03-23))", isOptimized: false, runtimeVersion: 0, emissionKind: FullDebug, enums: !28)
!63 = !DIFile(filename: "/home/ubuntu/.cargo/registry/src/github.com-1ecc6299db9ec823/cty-0.2.2/src/lib.rs", directory: "/home/ubuntu/container-data/primes/target/debug/deps")
!64 = distinct !DICompileUnit(language: DW_LANG_Rust, file: !65, producer: "clang LLVM (rustc version 1.51.0 (2fd73fabe 2021-03-23))", isOptimized: false, runtimeVersion: 0, emissionKind: FullDebug, enums: !28)
!65 = !DIFile(filename: "/home/ubuntu/.cargo/git/checkouts/klee-sys-7ee2aa8a1a6bbc46/9f462cc/src/lib.rs", directory: "/home/ubuntu/container-data/primes/target/debug/deps")
!66 = distinct !DICompileUnit(language: DW_LANG_Rust, file: !67, producer: "clang LLVM (rustc version 1.51.0 (2fd73fabe 2021-03-23))", isOptimized: false, runtimeVersion: 0, emissionKind: FullDebug, enums: !68, globals: !90)
!67 = !DIFile(filename: "/home/ubuntu/.cargo/registry/src/github.com-1ecc6299db9ec823/memchr-2.5.0/src/lib.rs", directory: "/home/ubuntu/container-data/primes/target/debug/deps")
!68 = !{!9, !17, !69, !32, !76, !81, !86}
!69 = !DICompositeType(tag: DW_TAG_enumeration_type, name: "Prefilter", scope: !70, file: !10, baseType: !13, size: 8, align: 8, flags: DIFlagEnumClass, elements: !73)
!70 = !DINamespace(name: "prefilter", scope: !71)
!71 = !DINamespace(name: "memmem", scope: !72)
!72 = !DINamespace(name: "memchr", scope: null)
!73 = !{!74, !75}
!74 = !DIEnumerator(name: "None", value: 0)
!75 = !DIEnumerator(name: "Auto", value: 1)
!76 = !DICompositeType(tag: DW_TAG_enumeration_type, name: "SuffixKind", scope: !77, file: !10, baseType: !13, size: 8, align: 8, flags: DIFlagEnumClass, elements: !78)
!77 = !DINamespace(name: "twoway", scope: !71)
!78 = !{!79, !80}
!79 = !DIEnumerator(name: "Minimal", value: 0)
!80 = !DIEnumerator(name: "Maximal", value: 1)
!81 = !DICompositeType(tag: DW_TAG_enumeration_type, name: "SuffixOrdering", scope: !77, file: !10, baseType: !13, size: 8, align: 8, flags: DIFlagEnumClass, elements: !82)
!82 = !{!83, !84, !85}
!83 = !DIEnumerator(name: "Accept", value: 0)
!84 = !DIEnumerator(name: "Skip", value: 1)
!85 = !DIEnumerator(name: "Push", value: 2)
!86 = !DICompositeType(tag: DW_TAG_enumeration_type, name: "Option", scope: !87, file: !10, baseType: !13, size: 8, align: 8, flags: DIFlagEnumClass, elements: !88)
!87 = !DINamespace(name: "option", scope: !12)
!88 = !{!74, !89}
!89 = !DIEnumerator(name: "Some", value: 1)
!90 = !{!91, !95, !147, !149, !157, !161, !165, !169, !194, !198, !202, !206, !211, !220, !224, !288, !317, !321, !325, !329, !336, !340, !343, !347, !351, !355, !359, !363, !367, !371, !375, !379}
!91 = !DIGlobalVariableExpression(var: !92, expr: !DIExpression())
!92 = distinct !DIGlobalVariable(name: "vtable", scope: null, file: !10, type: !93, isLocal: true, isDefinition: true)
!93 = !DICompositeType(tag: DW_TAG_structure_type, name: "vtable", file: !10, align: 64, flags: DIFlagArtificial, elements: !28, vtableHolder: !94, identifier: "vtable")
!94 = !DIDerivedType(tag: DW_TAG_pointer_type, name: "&u8", baseType: !13, size: 64, align: 64, dwarfAddressSpace: 0)
!95 = !DIGlobalVariableExpression(var: !96, expr: !DIExpression())
!96 = distinct !DIGlobalVariable(name: "vtable", scope: null, file: !10, type: !97, isLocal: true, isDefinition: true)
!97 = !DICompositeType(tag: DW_TAG_structure_type, name: "vtable", file: !10, align: 64, flags: DIFlagArtificial, elements: !28, vtableHolder: !98, identifier: "vtable")
!98 = !DIDerivedType(tag: DW_TAG_pointer_type, name: "&memchr::memmem::prefilter::PrefilterFn", baseType: !99, size: 64, align: 64, dwarfAddressSpace: 0)
!99 = !DICompositeType(tag: DW_TAG_structure_type, name: "PrefilterFn", scope: !70, file: !10, size: 64, align: 64, elements: !100, templateParams: !28, identifier: "fd07ce860b35c48843c0eb5698cc8fd9")
!100 = !{!101}
!101 = !DIDerivedType(tag: DW_TAG_member, name: "__0", scope: !99, file: !10, baseType: !102, size: 64, align: 64)
!102 = !DIDerivedType(tag: DW_TAG_pointer_type, name: "unsafe fn(&mut memchr::memmem::prefilter::PrefilterState, &memchr::memmem::NeedleInfo, &[u8], &[u8]) -> core::option::Option<usize>", baseType: !103, size: 64, align: 64, dwarfAddressSpace: 0)
!103 = !DISubroutineType(types: !104)
!104 = !{!105, !118, !124, !142, !142}
!105 = !DICompositeType(tag: DW_TAG_structure_type, name: "Option<usize>", scope: !87, file: !10, size: 128, align: 64, elements: !106, identifier: "9332858134cb740a2a89b17fc22aeac2")
!106 = !{!107}
!107 = !DICompositeType(tag: DW_TAG_variant_part, scope: !87, file: !10, size: 128, align: 64, elements: !108, templateParams: !111, identifier: "9332858134cb740a2a89b17fc22aeac2_variant_part", discriminator: !117)
!108 = !{!109, !113}
!109 = !DIDerivedType(tag: DW_TAG_member, name: "None", scope: !107, file: !10, baseType: !110, size: 128, align: 64, extraData: i64 0)
!110 = !DICompositeType(tag: DW_TAG_structure_type, name: "None", scope: !105, file: !10, size: 128, align: 64, elements: !28, templateParams: !111, identifier: "9332858134cb740a2a89b17fc22aeac2::None")
!111 = !{!112}
!112 = !DITemplateTypeParameter(name: "T", type: !53)
!113 = !DIDerivedType(tag: DW_TAG_member, name: "Some", scope: !107, file: !10, baseType: !114, size: 128, align: 64, extraData: i64 1)
!114 = !DICompositeType(tag: DW_TAG_structure_type, name: "Some", scope: !105, file: !10, size: 128, align: 64, elements: !115, templateParams: !111, identifier: "9332858134cb740a2a89b17fc22aeac2::Some")
!115 = !{!116}
!116 = !DIDerivedType(tag: DW_TAG_member, name: "__0", scope: !114, file: !10, baseType: !53, size: 64, align: 64, offset: 64)
!117 = !DIDerivedType(tag: DW_TAG_member, scope: !87, file: !10, baseType: !57, size: 64, align: 64, flags: DIFlagArtificial)
!118 = !DIDerivedType(tag: DW_TAG_pointer_type, name: "&mut memchr::memmem::prefilter::PrefilterState", baseType: !119, size: 64, align: 64, dwarfAddressSpace: 0)
!119 = !DICompositeType(tag: DW_TAG_structure_type, name: "PrefilterState", scope: !70, file: !10, size: 64, align: 32, elements: !120, templateParams: !28, identifier: "bbd8f00e63457a1f36453a76769a291")
!120 = !{!121, !123}
!121 = !DIDerivedType(tag: DW_TAG_member, name: "skips", scope: !119, file: !10, baseType: !122, size: 32, align: 32)
!122 = !DIBasicType(name: "u32", size: 32, encoding: DW_ATE_unsigned)
!123 = !DIDerivedType(tag: DW_TAG_member, name: "skipped", scope: !119, file: !10, baseType: !122, size: 32, align: 32, offset: 32)
!124 = !DIDerivedType(tag: DW_TAG_pointer_type, name: "&memchr::memmem::NeedleInfo", baseType: !125, size: 64, align: 64, dwarfAddressSpace: 0)
!125 = !DICompositeType(tag: DW_TAG_structure_type, name: "NeedleInfo", scope: !71, file: !10, size: 96, align: 32, elements: !126, templateParams: !28, identifier: "5af3f5f64479f07eeaefa4fa4ef8cc07")
!126 = !{!127, !133}
!127 = !DIDerivedType(tag: DW_TAG_member, name: "rarebytes", scope: !125, file: !10, baseType: !128, size: 16, align: 8, offset: 64)
!128 = !DICompositeType(tag: DW_TAG_structure_type, name: "RareNeedleBytes", scope: !129, file: !10, size: 16, align: 8, elements: !130, templateParams: !28, identifier: "568e7544adcdca1b4e0d1c2b2b58b314")
!129 = !DINamespace(name: "rarebytes", scope: !71)
!130 = !{!131, !132}
!131 = !DIDerivedType(tag: DW_TAG_member, name: "rare1i", scope: !128, file: !10, baseType: !13, size: 8, align: 8)
!132 = !DIDerivedType(tag: DW_TAG_member, name: "rare2i", scope: !128, file: !10, baseType: !13, size: 8, align: 8, offset: 8)
!133 = !DIDerivedType(tag: DW_TAG_member, name: "nhash", scope: !125, file: !10, baseType: !134, size: 64, align: 32)
!134 = !DICompositeType(tag: DW_TAG_structure_type, name: "NeedleHash", scope: !135, file: !10, size: 64, align: 32, elements: !136, templateParams: !28, identifier: "aab7f68e2b084fff376838cc49597435")
!135 = !DINamespace(name: "rabinkarp", scope: !71)
!136 = !{!137, !141}
!137 = !DIDerivedType(tag: DW_TAG_member, name: "hash", scope: !134, file: !10, baseType: !138, size: 32, align: 32)
!138 = !DICompositeType(tag: DW_TAG_structure_type, name: "Hash", scope: !135, file: !10, size: 32, align: 32, elements: !139, templateParams: !28, identifier: "7738aab847299922dc982a6a7a1ca931")
!139 = !{!140}
!140 = !DIDerivedType(tag: DW_TAG_member, name: "__0", scope: !138, file: !10, baseType: !122, size: 32, align: 32)
!141 = !DIDerivedType(tag: DW_TAG_member, name: "hash_2pow", scope: !134, file: !10, baseType: !122, size: 32, align: 32, offset: 32)
!142 = !DICompositeType(tag: DW_TAG_structure_type, name: "&[u8]", file: !10, size: 128, align: 64, elements: !143, templateParams: !28, identifier: "585202bcfc7dfd1dd72e8befe2491ee4")
!143 = !{!144, !146}
!144 = !DIDerivedType(tag: DW_TAG_member, name: "data_ptr", scope: !142, file: !10, baseType: !145, size: 64, align: 64)
!145 = !DIDerivedType(tag: DW_TAG_pointer_type, name: "*const u8", baseType: !13, size: 64, align: 64, dwarfAddressSpace: 0)
!146 = !DIDerivedType(tag: DW_TAG_member, name: "length", scope: !142, file: !10, baseType: !53, size: 64, align: 64, offset: 64)
!147 = !DIGlobalVariableExpression(var: !148, expr: !DIExpression())
!148 = distinct !DIGlobalVariable(name: "vtable", scope: null, file: !10, type: !60, isLocal: true, isDefinition: true)
!149 = !DIGlobalVariableExpression(var: !150, expr: !DIExpression())
!150 = distinct !DIGlobalVariable(name: "vtable", scope: null, file: !10, type: !151, isLocal: true, isDefinition: true)
!151 = !DICompositeType(tag: DW_TAG_structure_type, name: "vtable", file: !10, align: 64, flags: DIFlagArtificial, elements: !28, vtableHolder: !152, identifier: "vtable")
!152 = !DIDerivedType(tag: DW_TAG_pointer_type, name: "&memchr::cow::Imp", baseType: !153, size: 64, align: 64, dwarfAddressSpace: 0)
!153 = !DICompositeType(tag: DW_TAG_structure_type, name: "Imp", scope: !154, file: !10, size: 128, align: 64, elements: !155, templateParams: !28, identifier: "58ced11b3de798ddba581718ea61006d")
!154 = !DINamespace(name: "cow", scope: !72)
!155 = !{!156}
!156 = !DIDerivedType(tag: DW_TAG_member, name: "__0", scope: !153, file: !10, baseType: !142, size: 128, align: 64)
!157 = !DIGlobalVariableExpression(var: !158, expr: !DIExpression())
!158 = distinct !DIGlobalVariable(name: "vtable", scope: null, file: !10, type: !159, isLocal: true, isDefinition: true)
!159 = !DICompositeType(tag: DW_TAG_structure_type, name: "vtable", file: !10, align: 64, flags: DIFlagArtificial, elements: !28, vtableHolder: !160, identifier: "vtable")
!160 = !DIDerivedType(tag: DW_TAG_pointer_type, name: "&&[u8]", baseType: !142, size: 64, align: 64, dwarfAddressSpace: 0)
!161 = !DIGlobalVariableExpression(var: !162, expr: !DIExpression())
!162 = distinct !DIGlobalVariable(name: "vtable", scope: null, file: !10, type: !163, isLocal: true, isDefinition: true)
!163 = !DICompositeType(tag: DW_TAG_structure_type, name: "vtable", file: !10, align: 64, flags: DIFlagArtificial, elements: !28, vtableHolder: !164, identifier: "vtable")
!164 = !DIDerivedType(tag: DW_TAG_pointer_type, name: "&u32", baseType: !122, size: 64, align: 64, dwarfAddressSpace: 0)
!165 = !DIGlobalVariableExpression(var: !166, expr: !DIExpression())
!166 = distinct !DIGlobalVariable(name: "vtable", scope: null, file: !10, type: !167, isLocal: true, isDefinition: true)
!167 = !DICompositeType(tag: DW_TAG_structure_type, name: "vtable", file: !10, align: 64, flags: DIFlagArtificial, elements: !28, vtableHolder: !168, identifier: "vtable")
!168 = !DIDerivedType(tag: DW_TAG_pointer_type, name: "&memchr::memmem::rabinkarp::Hash", baseType: !138, size: 64, align: 64, dwarfAddressSpace: 0)
!169 = !DIGlobalVariableExpression(var: !170, expr: !DIExpression())
!170 = distinct !DIGlobalVariable(name: "vtable", scope: null, file: !10, type: !171, isLocal: true, isDefinition: true)
!171 = !DICompositeType(tag: DW_TAG_structure_type, name: "vtable", file: !10, align: 64, flags: DIFlagArtificial, elements: !28, vtableHolder: !172, identifier: "vtable")
!172 = !DIDerivedType(tag: DW_TAG_pointer_type, name: "&memchr::memmem::twoway::TwoWay", baseType: !173, size: 64, align: 64, dwarfAddressSpace: 0)
!173 = !DICompositeType(tag: DW_TAG_structure_type, name: "TwoWay", scope: !77, file: !10, size: 256, align: 64, elements: !174, templateParams: !28, identifier: "23b0621eed33b04d7b5b8a2cc51f1e8b")
!174 = !{!175, !179, !180}
!175 = !DIDerivedType(tag: DW_TAG_member, name: "byteset", scope: !173, file: !10, baseType: !176, size: 64, align: 64)
!176 = !DICompositeType(tag: DW_TAG_structure_type, name: "ApproximateByteSet", scope: !77, file: !10, size: 64, align: 64, elements: !177, templateParams: !28, identifier: "2d83ca49d78cf4c98c923c9c75035836")
!177 = !{!178}
!178 = !DIDerivedType(tag: DW_TAG_member, name: "__0", scope: !176, file: !10, baseType: !57, size: 64, align: 64)
!179 = !DIDerivedType(tag: DW_TAG_member, name: "critical_pos", scope: !173, file: !10, baseType: !53, size: 64, align: 64, offset: 64)
!180 = !DIDerivedType(tag: DW_TAG_member, name: "shift", scope: !173, file: !10, baseType: !181, size: 128, align: 64, offset: 128)
!181 = !DICompositeType(tag: DW_TAG_structure_type, name: "Shift", scope: !77, file: !10, size: 128, align: 64, elements: !182, identifier: "a2ed7bfc3d2c76de60c1f3753ca9431b")
!182 = !{!183}
!183 = !DICompositeType(tag: DW_TAG_variant_part, scope: !77, file: !10, size: 128, align: 64, elements: !184, templateParams: !28, identifier: "a2ed7bfc3d2c76de60c1f3753ca9431b_variant_part", discriminator: !193)
!184 = !{!185, !189}
!185 = !DIDerivedType(tag: DW_TAG_member, name: "Small", scope: !183, file: !10, baseType: !186, size: 128, align: 64, extraData: i64 0)
!186 = !DICompositeType(tag: DW_TAG_structure_type, name: "Small", scope: !181, file: !10, size: 128, align: 64, elements: !187, templateParams: !28, identifier: "a2ed7bfc3d2c76de60c1f3753ca9431b::Small")
!187 = !{!188}
!188 = !DIDerivedType(tag: DW_TAG_member, name: "period", scope: !186, file: !10, baseType: !53, size: 64, align: 64, offset: 64)
!189 = !DIDerivedType(tag: DW_TAG_member, name: "Large", scope: !183, file: !10, baseType: !190, size: 128, align: 64, extraData: i64 1)
!190 = !DICompositeType(tag: DW_TAG_structure_type, name: "Large", scope: !181, file: !10, size: 128, align: 64, elements: !191, templateParams: !28, identifier: "a2ed7bfc3d2c76de60c1f3753ca9431b::Large")
!191 = !{!192}
!192 = !DIDerivedType(tag: DW_TAG_member, name: "shift", scope: !190, file: !10, baseType: !53, size: 64, align: 64, offset: 64)
!193 = !DIDerivedType(tag: DW_TAG_member, scope: !77, file: !10, baseType: !57, size: 64, align: 64, flags: DIFlagArtificial)
!194 = !DIGlobalVariableExpression(var: !195, expr: !DIExpression())
!195 = distinct !DIGlobalVariable(name: "vtable", scope: null, file: !10, type: !196, isLocal: true, isDefinition: true)
!196 = !DICompositeType(tag: DW_TAG_structure_type, name: "vtable", file: !10, align: 64, flags: DIFlagArtificial, elements: !28, vtableHolder: !197, identifier: "vtable")
!197 = !DIDerivedType(tag: DW_TAG_pointer_type, name: "&memchr::memmem::twoway::ApproximateByteSet", baseType: !176, size: 64, align: 64, dwarfAddressSpace: 0)
!198 = !DIGlobalVariableExpression(var: !199, expr: !DIExpression())
!199 = distinct !DIGlobalVariable(name: "vtable", scope: null, file: !10, type: !200, isLocal: true, isDefinition: true)
!200 = !DICompositeType(tag: DW_TAG_structure_type, name: "vtable", file: !10, align: 64, flags: DIFlagArtificial, elements: !28, vtableHolder: !201, identifier: "vtable")
!201 = !DIDerivedType(tag: DW_TAG_pointer_type, name: "&memchr::memmem::twoway::Shift", baseType: !181, size: 64, align: 64, dwarfAddressSpace: 0)
!202 = !DIGlobalVariableExpression(var: !203, expr: !DIExpression())
!203 = distinct !DIGlobalVariable(name: "vtable", scope: null, file: !10, type: !204, isLocal: true, isDefinition: true)
!204 = !DICompositeType(tag: DW_TAG_structure_type, name: "vtable", file: !10, align: 64, flags: DIFlagArtificial, elements: !28, vtableHolder: !205, identifier: "vtable")
!205 = !DIDerivedType(tag: DW_TAG_pointer_type, name: "&u64", baseType: !57, size: 64, align: 64, dwarfAddressSpace: 0)
!206 = !DIGlobalVariableExpression(var: !207, expr: !DIExpression())
!207 = distinct !DIGlobalVariable(name: "vtable", scope: null, file: !10, type: !208, isLocal: true, isDefinition: true)
!208 = !DICompositeType(tag: DW_TAG_structure_type, name: "vtable", file: !10, align: 64, flags: DIFlagArtificial, elements: !28, vtableHolder: !209, identifier: "vtable")
!209 = !DIDerivedType(tag: DW_TAG_pointer_type, name: "&()", baseType: !210, size: 64, align: 64, dwarfAddressSpace: 0)
!210 = !DIBasicType(name: "()", encoding: DW_ATE_unsigned)
!211 = !DIGlobalVariableExpression(var: !212, expr: !DIExpression())
!212 = distinct !DIGlobalVariable(name: "vtable", scope: null, file: !10, type: !213, isLocal: true, isDefinition: true)
!213 = !DICompositeType(tag: DW_TAG_structure_type, name: "vtable", file: !10, align: 64, flags: DIFlagArtificial, elements: !28, vtableHolder: !214, identifier: "vtable")
!214 = !DIDerivedType(tag: DW_TAG_pointer_type, name: "&memchr::memmem::genericsimd::Forward", baseType: !215, size: 64, align: 64, dwarfAddressSpace: 0)
!215 = !DICompositeType(tag: DW_TAG_structure_type, name: "Forward", scope: !216, file: !10, size: 16, align: 8, elements: !217, templateParams: !28, identifier: "c51590305f9bddbefd6beaf83f340641")
!216 = !DINamespace(name: "genericsimd", scope: !71)
!217 = !{!218, !219}
!218 = !DIDerivedType(tag: DW_TAG_member, name: "rare1i", scope: !215, file: !10, baseType: !13, size: 8, align: 8)
!219 = !DIDerivedType(tag: DW_TAG_member, name: "rare2i", scope: !215, file: !10, baseType: !13, size: 8, align: 8, offset: 8)
!220 = !DIGlobalVariableExpression(var: !221, expr: !DIExpression())
!221 = distinct !DIGlobalVariable(name: "vtable", scope: null, file: !10, type: !222, isLocal: true, isDefinition: true)
!222 = !DICompositeType(tag: DW_TAG_structure_type, name: "vtable", file: !10, align: 64, flags: DIFlagArtificial, elements: !28, vtableHolder: !223, identifier: "vtable")
!223 = !DIDerivedType(tag: DW_TAG_pointer_type, name: "&memchr::memmem::prefilter::PrefilterState", baseType: !119, size: 64, align: 64, dwarfAddressSpace: 0)
!224 = !DIGlobalVariableExpression(var: !225, expr: !DIExpression())
!225 = distinct !DIGlobalVariable(name: "vtable", scope: null, file: !10, type: !226, isLocal: true, isDefinition: true)
!226 = !DICompositeType(tag: DW_TAG_structure_type, name: "vtable", file: !10, align: 64, flags: DIFlagArtificial, elements: !28, vtableHolder: !227, identifier: "vtable")
!227 = !DIDerivedType(tag: DW_TAG_pointer_type, name: "&memchr::memmem::Finder", baseType: !228, size: 64, align: 64, dwarfAddressSpace: 0)
!228 = !DICompositeType(tag: DW_TAG_structure_type, name: "Finder", scope: !71, file: !10, size: 640, align: 64, elements: !229, templateParams: !28, identifier: "1a12c4e35cd74fe35d8bf89955d677c1")
!229 = !{!230}
!230 = !DIDerivedType(tag: DW_TAG_member, name: "searcher", scope: !228, file: !10, baseType: !231, size: 640, align: 64)
!231 = !DICompositeType(tag: DW_TAG_structure_type, name: "Searcher", scope: !71, file: !10, size: 640, align: 64, elements: !232, templateParams: !28, identifier: "188dadce0556bb401fa60c478397a29")
!232 = !{!233, !237, !238, !251}
!233 = !DIDerivedType(tag: DW_TAG_member, name: "needle", scope: !231, file: !10, baseType: !234, size: 128, align: 64)
!234 = !DICompositeType(tag: DW_TAG_structure_type, name: "CowBytes", scope: !154, file: !10, size: 128, align: 64, elements: !235, templateParams: !28, identifier: "50f7d608f4362a9aca35dfc0d50a3b8a")
!235 = !{!236}
!236 = !DIDerivedType(tag: DW_TAG_member, name: "__0", scope: !234, file: !10, baseType: !153, size: 128, align: 64)
!237 = !DIDerivedType(tag: DW_TAG_member, name: "ninfo", scope: !231, file: !10, baseType: !125, size: 96, align: 32, offset: 512)
!238 = !DIDerivedType(tag: DW_TAG_member, name: "prefn", scope: !231, file: !10, baseType: !239, size: 64, align: 64, offset: 128)
!239 = !DICompositeType(tag: DW_TAG_structure_type, name: "Option<memchr::memmem::prefilter::PrefilterFn>", scope: !87, file: !10, size: 64, align: 64, elements: !240, identifier: "3475fe56114027c5c80fb701c8101574")
!240 = !{!241}
!241 = !DICompositeType(tag: DW_TAG_variant_part, scope: !87, file: !10, size: 64, align: 64, elements: !242, templateParams: !245, identifier: "3475fe56114027c5c80fb701c8101574_variant_part", discriminator: !117)
!242 = !{!243, !247}
!243 = !DIDerivedType(tag: DW_TAG_member, name: "None", scope: !241, file: !10, baseType: !244, size: 64, align: 64, extraData: i64 0)
!244 = !DICompositeType(tag: DW_TAG_structure_type, name: "None", scope: !239, file: !10, size: 64, align: 64, elements: !28, templateParams: !245, identifier: "3475fe56114027c5c80fb701c8101574::None")
!245 = !{!246}
!246 = !DITemplateTypeParameter(name: "T", type: !99)
!247 = !DIDerivedType(tag: DW_TAG_member, name: "Some", scope: !241, file: !10, baseType: !248, size: 64, align: 64)
!248 = !DICompositeType(tag: DW_TAG_structure_type, name: "Some", scope: !239, file: !10, size: 64, align: 64, elements: !249, templateParams: !245, identifier: "3475fe56114027c5c80fb701c8101574::Some")
!249 = !{!250}
!250 = !DIDerivedType(tag: DW_TAG_member, name: "__0", scope: !248, file: !10, baseType: !99, size: 64, align: 64)
!251 = !DIDerivedType(tag: DW_TAG_member, name: "kind", scope: !231, file: !10, baseType: !252, size: 320, align: 64, offset: 192)
!252 = !DICompositeType(tag: DW_TAG_structure_type, name: "SearcherKind", scope: !71, file: !10, size: 320, align: 64, elements: !253, identifier: "732e21407fe022dec1be9645a3451af2")
!253 = !{!254}
!254 = !DICompositeType(tag: DW_TAG_variant_part, scope: !71, file: !10, size: 320, align: 64, elements: !255, templateParams: !28, identifier: "732e21407fe022dec1be9645a3451af2_variant_part", discriminator: !287)
!255 = !{!256, !258, !262, !269, !278}
!256 = !DIDerivedType(tag: DW_TAG_member, name: "Empty", scope: !254, file: !10, baseType: !257, size: 320, align: 64, extraData: i64 0)
!257 = !DICompositeType(tag: DW_TAG_structure_type, name: "Empty", scope: !252, file: !10, size: 320, align: 64, elements: !28, templateParams: !28, identifier: "732e21407fe022dec1be9645a3451af2::Empty")
!258 = !DIDerivedType(tag: DW_TAG_member, name: "OneByte", scope: !254, file: !10, baseType: !259, size: 320, align: 64, extraData: i64 1)
!259 = !DICompositeType(tag: DW_TAG_structure_type, name: "OneByte", scope: !252, file: !10, size: 320, align: 64, elements: !260, templateParams: !28, identifier: "732e21407fe022dec1be9645a3451af2::OneByte")
!260 = !{!261}
!261 = !DIDerivedType(tag: DW_TAG_member, name: "__0", scope: !259, file: !10, baseType: !13, size: 8, align: 8, offset: 8)
!262 = !DIDerivedType(tag: DW_TAG_member, name: "TwoWay", scope: !254, file: !10, baseType: !263, size: 320, align: 64, extraData: i64 2)
!263 = !DICompositeType(tag: DW_TAG_structure_type, name: "TwoWay", scope: !252, file: !10, size: 320, align: 64, elements: !264, templateParams: !28, identifier: "732e21407fe022dec1be9645a3451af2::TwoWay")
!264 = !{!265}
!265 = !DIDerivedType(tag: DW_TAG_member, name: "__0", scope: !263, file: !10, baseType: !266, size: 256, align: 64, offset: 64)
!266 = !DICompositeType(tag: DW_TAG_structure_type, name: "Forward", scope: !77, file: !10, size: 256, align: 64, elements: !267, templateParams: !28, identifier: "395fa51d4b607ac6198d875f07048a01")
!267 = !{!268}
!268 = !DIDerivedType(tag: DW_TAG_member, name: "__0", scope: !266, file: !10, baseType: !173, size: 256, align: 64)
!269 = !DIDerivedType(tag: DW_TAG_member, name: "GenericSIMD128", scope: !254, file: !10, baseType: !270, size: 320, align: 64, extraData: i64 3)
!270 = !DICompositeType(tag: DW_TAG_structure_type, name: "GenericSIMD128", scope: !252, file: !10, size: 320, align: 64, elements: !271, templateParams: !28, identifier: "732e21407fe022dec1be9645a3451af2::GenericSIMD128")
!271 = !{!272}
!272 = !DIDerivedType(tag: DW_TAG_member, name: "__0", scope: !270, file: !10, baseType: !273, size: 16, align: 8, offset: 8)
!273 = !DICompositeType(tag: DW_TAG_structure_type, name: "Forward", scope: !274, file: !10, size: 16, align: 8, elements: !276, templateParams: !28, identifier: "47f556755122c256a3ed97946f105192")
!274 = !DINamespace(name: "sse", scope: !275)
!275 = !DINamespace(name: "x86", scope: !71)
!276 = !{!277}
!277 = !DIDerivedType(tag: DW_TAG_member, name: "__0", scope: !273, file: !10, baseType: !215, size: 16, align: 8)
!278 = !DIDerivedType(tag: DW_TAG_member, name: "GenericSIMD256", scope: !254, file: !10, baseType: !279, size: 320, align: 64, extraData: i64 4)
!279 = !DICompositeType(tag: DW_TAG_structure_type, name: "GenericSIMD256", scope: !252, file: !10, size: 320, align: 64, elements: !280, templateParams: !28, identifier: "732e21407fe022dec1be9645a3451af2::GenericSIMD256")
!280 = !{!281}
!281 = !DIDerivedType(tag: DW_TAG_member, name: "__0", scope: !279, file: !10, baseType: !282, align: 8, offset: 8)
!282 = !DICompositeType(tag: DW_TAG_structure_type, name: "Forward", scope: !283, file: !10, align: 8, elements: !285, templateParams: !28, identifier: "f38f341551991a61464cbbeb683c7a2")
!283 = !DINamespace(name: "nostd", scope: !284)
!284 = !DINamespace(name: "avx", scope: !275)
!285 = !{!286}
!286 = !DIDerivedType(tag: DW_TAG_member, name: "__0", scope: !282, file: !10, baseType: !210, align: 8)
!287 = !DIDerivedType(tag: DW_TAG_member, scope: !71, file: !10, baseType: !13, size: 8, align: 8, flags: DIFlagArtificial)
!288 = !DIGlobalVariableExpression(var: !289, expr: !DIExpression())
!289 = distinct !DIGlobalVariable(name: "vtable", scope: null, file: !10, type: !290, isLocal: true, isDefinition: true)
!290 = !DICompositeType(tag: DW_TAG_structure_type, name: "vtable", file: !10, align: 64, flags: DIFlagArtificial, elements: !28, vtableHolder: !291, identifier: "vtable")
!291 = !DIDerivedType(tag: DW_TAG_pointer_type, name: "&memchr::memmem::FinderRev", baseType: !292, size: 64, align: 64, dwarfAddressSpace: 0)
!292 = !DICompositeType(tag: DW_TAG_structure_type, name: "FinderRev", scope: !71, file: !10, size: 512, align: 64, elements: !293, templateParams: !28, identifier: "82cd98a697658b93278e58c11f874c57")
!293 = !{!294}
!294 = !DIDerivedType(tag: DW_TAG_member, name: "searcher", scope: !292, file: !10, baseType: !295, size: 512, align: 64)
!295 = !DICompositeType(tag: DW_TAG_structure_type, name: "SearcherRev", scope: !71, file: !10, size: 512, align: 64, elements: !296, templateParams: !28, identifier: "a5a703a4c6e170542cef61d83ff4491")
!296 = !{!297, !298, !299}
!297 = !DIDerivedType(tag: DW_TAG_member, name: "needle", scope: !295, file: !10, baseType: !234, size: 128, align: 64)
!298 = !DIDerivedType(tag: DW_TAG_member, name: "nhash", scope: !295, file: !10, baseType: !134, size: 64, align: 32, offset: 448)
!299 = !DIDerivedType(tag: DW_TAG_member, name: "kind", scope: !295, file: !10, baseType: !300, size: 320, align: 64, offset: 128)
!300 = !DICompositeType(tag: DW_TAG_structure_type, name: "SearcherRevKind", scope: !71, file: !10, size: 320, align: 64, elements: !301, identifier: "4933a06c2907d5357b9bbcf407b3c56")
!301 = !{!302}
!302 = !DICompositeType(tag: DW_TAG_variant_part, scope: !71, file: !10, size: 320, align: 64, elements: !303, templateParams: !28, identifier: "4933a06c2907d5357b9bbcf407b3c56_variant_part", discriminator: !287)
!303 = !{!304, !306, !310}
!304 = !DIDerivedType(tag: DW_TAG_member, name: "Empty", scope: !302, file: !10, baseType: !305, size: 320, align: 64, extraData: i64 0)
!305 = !DICompositeType(tag: DW_TAG_structure_type, name: "Empty", scope: !300, file: !10, size: 320, align: 64, elements: !28, templateParams: !28, identifier: "4933a06c2907d5357b9bbcf407b3c56::Empty")
!306 = !DIDerivedType(tag: DW_TAG_member, name: "OneByte", scope: !302, file: !10, baseType: !307, size: 320, align: 64, extraData: i64 1)
!307 = !DICompositeType(tag: DW_TAG_structure_type, name: "OneByte", scope: !300, file: !10, size: 320, align: 64, elements: !308, templateParams: !28, identifier: "4933a06c2907d5357b9bbcf407b3c56::OneByte")
!308 = !{!309}
!309 = !DIDerivedType(tag: DW_TAG_member, name: "__0", scope: !307, file: !10, baseType: !13, size: 8, align: 8, offset: 8)
!310 = !DIDerivedType(tag: DW_TAG_member, name: "TwoWay", scope: !302, file: !10, baseType: !311, size: 320, align: 64, extraData: i64 2)
!311 = !DICompositeType(tag: DW_TAG_structure_type, name: "TwoWay", scope: !300, file: !10, size: 320, align: 64, elements: !312, templateParams: !28, identifier: "4933a06c2907d5357b9bbcf407b3c56::TwoWay")
!312 = !{!313}
!313 = !DIDerivedType(tag: DW_TAG_member, name: "__0", scope: !311, file: !10, baseType: !314, size: 256, align: 64, offset: 64)
!314 = !DICompositeType(tag: DW_TAG_structure_type, name: "Reverse", scope: !77, file: !10, size: 256, align: 64, elements: !315, templateParams: !28, identifier: "949d1e5f08421882cb1fc2d8be09b5e5")
!315 = !{!316}
!316 = !DIDerivedType(tag: DW_TAG_member, name: "__0", scope: !314, file: !10, baseType: !173, size: 256, align: 64)
!317 = !DIGlobalVariableExpression(var: !318, expr: !DIExpression())
!318 = distinct !DIGlobalVariable(name: "vtable", scope: null, file: !10, type: !319, isLocal: true, isDefinition: true)
!319 = !DICompositeType(tag: DW_TAG_structure_type, name: "vtable", file: !10, align: 64, flags: DIFlagArtificial, elements: !28, vtableHolder: !320, identifier: "vtable")
!320 = !DIDerivedType(tag: DW_TAG_pointer_type, name: "&core::option::Option<usize>", baseType: !105, size: 64, align: 64, dwarfAddressSpace: 0)
!321 = !DIGlobalVariableExpression(var: !322, expr: !DIExpression())
!322 = distinct !DIGlobalVariable(name: "vtable", scope: null, file: !10, type: !323, isLocal: true, isDefinition: true)
!323 = !DICompositeType(tag: DW_TAG_structure_type, name: "vtable", file: !10, align: 64, flags: DIFlagArtificial, elements: !28, vtableHolder: !324, identifier: "vtable")
!324 = !DIDerivedType(tag: DW_TAG_pointer_type, name: "&memchr::memmem::Searcher", baseType: !231, size: 64, align: 64, dwarfAddressSpace: 0)
!325 = !DIGlobalVariableExpression(var: !326, expr: !DIExpression())
!326 = distinct !DIGlobalVariable(name: "vtable", scope: null, file: !10, type: !327, isLocal: true, isDefinition: true)
!327 = !DICompositeType(tag: DW_TAG_structure_type, name: "vtable", file: !10, align: 64, flags: DIFlagArtificial, elements: !28, vtableHolder: !328, identifier: "vtable")
!328 = !DIDerivedType(tag: DW_TAG_pointer_type, name: "&memchr::memmem::SearcherRev", baseType: !295, size: 64, align: 64, dwarfAddressSpace: 0)
!329 = !DIGlobalVariableExpression(var: !330, expr: !DIExpression())
!330 = distinct !DIGlobalVariable(name: "vtable", scope: null, file: !10, type: !331, isLocal: true, isDefinition: true)
!331 = !DICompositeType(tag: DW_TAG_structure_type, name: "vtable", file: !10, align: 64, flags: DIFlagArtificial, elements: !28, vtableHolder: !332, identifier: "vtable")
!332 = !DIDerivedType(tag: DW_TAG_pointer_type, name: "&memchr::memmem::SearcherConfig", baseType: !333, size: 64, align: 64, dwarfAddressSpace: 0)
!333 = !DICompositeType(tag: DW_TAG_structure_type, name: "SearcherConfig", scope: !71, file: !10, size: 8, align: 8, elements: !334, templateParams: !28, identifier: "cb825a6e9614268a836c3409dbc83fa5")
!334 = !{!335}
!335 = !DIDerivedType(tag: DW_TAG_member, name: "prefilter", scope: !333, file: !10, baseType: !69, size: 8, align: 8)
!336 = !DIGlobalVariableExpression(var: !337, expr: !DIExpression())
!337 = distinct !DIGlobalVariable(name: "vtable", scope: null, file: !10, type: !338, isLocal: true, isDefinition: true)
!338 = !DICompositeType(tag: DW_TAG_structure_type, name: "vtable", file: !10, align: 64, flags: DIFlagArtificial, elements: !28, vtableHolder: !339, identifier: "vtable")
!339 = !DIDerivedType(tag: DW_TAG_pointer_type, name: "&memchr::cow::CowBytes", baseType: !234, size: 64, align: 64, dwarfAddressSpace: 0)
!340 = !DIGlobalVariableExpression(var: !341, expr: !DIExpression())
!341 = distinct !DIGlobalVariable(name: "vtable", scope: null, file: !10, type: !342, isLocal: true, isDefinition: true)
!342 = !DICompositeType(tag: DW_TAG_structure_type, name: "vtable", file: !10, align: 64, flags: DIFlagArtificial, elements: !28, vtableHolder: !124, identifier: "vtable")
!343 = !DIGlobalVariableExpression(var: !344, expr: !DIExpression())
!344 = distinct !DIGlobalVariable(name: "vtable", scope: null, file: !10, type: !345, isLocal: true, isDefinition: true)
!345 = !DICompositeType(tag: DW_TAG_structure_type, name: "vtable", file: !10, align: 64, flags: DIFlagArtificial, elements: !28, vtableHolder: !346, identifier: "vtable")
!346 = !DIDerivedType(tag: DW_TAG_pointer_type, name: "&core::option::Option<memchr::memmem::prefilter::PrefilterFn>", baseType: !239, size: 64, align: 64, dwarfAddressSpace: 0)
!347 = !DIGlobalVariableExpression(var: !348, expr: !DIExpression())
!348 = distinct !DIGlobalVariable(name: "vtable", scope: null, file: !10, type: !349, isLocal: true, isDefinition: true)
!349 = !DICompositeType(tag: DW_TAG_structure_type, name: "vtable", file: !10, align: 64, flags: DIFlagArtificial, elements: !28, vtableHolder: !350, identifier: "vtable")
!350 = !DIDerivedType(tag: DW_TAG_pointer_type, name: "&memchr::memmem::SearcherKind", baseType: !252, size: 64, align: 64, dwarfAddressSpace: 0)
!351 = !DIGlobalVariableExpression(var: !352, expr: !DIExpression())
!352 = distinct !DIGlobalVariable(name: "vtable", scope: null, file: !10, type: !353, isLocal: true, isDefinition: true)
!353 = !DICompositeType(tag: DW_TAG_structure_type, name: "vtable", file: !10, align: 64, flags: DIFlagArtificial, elements: !28, vtableHolder: !354, identifier: "vtable")
!354 = !DIDerivedType(tag: DW_TAG_pointer_type, name: "&memchr::memmem::rarebytes::RareNeedleBytes", baseType: !128, size: 64, align: 64, dwarfAddressSpace: 0)
!355 = !DIGlobalVariableExpression(var: !356, expr: !DIExpression())
!356 = distinct !DIGlobalVariable(name: "vtable", scope: null, file: !10, type: !357, isLocal: true, isDefinition: true)
!357 = !DICompositeType(tag: DW_TAG_structure_type, name: "vtable", file: !10, align: 64, flags: DIFlagArtificial, elements: !28, vtableHolder: !358, identifier: "vtable")
!358 = !DIDerivedType(tag: DW_TAG_pointer_type, name: "&memchr::memmem::rabinkarp::NeedleHash", baseType: !134, size: 64, align: 64, dwarfAddressSpace: 0)
!359 = !DIGlobalVariableExpression(var: !360, expr: !DIExpression())
!360 = distinct !DIGlobalVariable(name: "vtable", scope: null, file: !10, type: !361, isLocal: true, isDefinition: true)
!361 = !DICompositeType(tag: DW_TAG_structure_type, name: "vtable", file: !10, align: 64, flags: DIFlagArtificial, elements: !28, vtableHolder: !362, identifier: "vtable")
!362 = !DIDerivedType(tag: DW_TAG_pointer_type, name: "&memchr::memmem::prefilter::Prefilter", baseType: !69, size: 64, align: 64, dwarfAddressSpace: 0)
!363 = !DIGlobalVariableExpression(var: !364, expr: !DIExpression())
!364 = distinct !DIGlobalVariable(name: "vtable", scope: null, file: !10, type: !365, isLocal: true, isDefinition: true)
!365 = !DICompositeType(tag: DW_TAG_structure_type, name: "vtable", file: !10, align: 64, flags: DIFlagArtificial, elements: !28, vtableHolder: !366, identifier: "vtable")
!366 = !DIDerivedType(tag: DW_TAG_pointer_type, name: "&memchr::memmem::x86::avx::nostd::Forward", baseType: !282, size: 64, align: 64, dwarfAddressSpace: 0)
!367 = !DIGlobalVariableExpression(var: !368, expr: !DIExpression())
!368 = distinct !DIGlobalVariable(name: "vtable", scope: null, file: !10, type: !369, isLocal: true, isDefinition: true)
!369 = !DICompositeType(tag: DW_TAG_structure_type, name: "vtable", file: !10, align: 64, flags: DIFlagArtificial, elements: !28, vtableHolder: !370, identifier: "vtable")
!370 = !DIDerivedType(tag: DW_TAG_pointer_type, name: "&memchr::memmem::x86::sse::Forward", baseType: !273, size: 64, align: 64, dwarfAddressSpace: 0)
!371 = !DIGlobalVariableExpression(var: !372, expr: !DIExpression())
!372 = distinct !DIGlobalVariable(name: "vtable", scope: null, file: !10, type: !373, isLocal: true, isDefinition: true)
!373 = !DICompositeType(tag: DW_TAG_structure_type, name: "vtable", file: !10, align: 64, flags: DIFlagArtificial, elements: !28, vtableHolder: !374, identifier: "vtable")
!374 = !DIDerivedType(tag: DW_TAG_pointer_type, name: "&memchr::memmem::twoway::Forward", baseType: !266, size: 64, align: 64, dwarfAddressSpace: 0)
!375 = !DIGlobalVariableExpression(var: !376, expr: !DIExpression())
!376 = distinct !DIGlobalVariable(name: "vtable", scope: null, file: !10, type: !377, isLocal: true, isDefinition: true)
!377 = !DICompositeType(tag: DW_TAG_structure_type, name: "vtable", file: !10, align: 64, flags: DIFlagArtificial, elements: !28, vtableHolder: !378, identifier: "vtable")
!378 = !DIDerivedType(tag: DW_TAG_pointer_type, name: "&memchr::memmem::SearcherRevKind", baseType: !300, size: 64, align: 64, dwarfAddressSpace: 0)
!379 = !DIGlobalVariableExpression(var: !380, expr: !DIExpression())
!380 = distinct !DIGlobalVariable(name: "vtable", scope: null, file: !10, type: !381, isLocal: true, isDefinition: true)
!381 = !DICompositeType(tag: DW_TAG_structure_type, name: "vtable", file: !10, align: 64, flags: DIFlagArtificial, elements: !28, vtableHolder: !382, identifier: "vtable")
!382 = !DIDerivedType(tag: DW_TAG_pointer_type, name: "&memchr::memmem::twoway::Reverse", baseType: !314, size: 64, align: 64, dwarfAddressSpace: 0)
!383 = distinct !DICompileUnit(language: DW_LANG_Rust, file: !384, producer: "clang LLVM (rustc version 1.51.0 (2fd73fabe 2021-03-23))", isOptimized: false, runtimeVersion: 0, emissionKind: FullDebug, enums: !385)
!384 = !DIFile(filename: "/home/ubuntu/.cargo/git/checkouts/panic-klee-aa8d015442188497/3b0c897/src/lib.rs", directory: "/home/ubuntu/container-data/primes/target/debug/deps")
!385 = !{!17, !9}
!386 = distinct !DICompileUnit(language: DW_LANG_Rust, file: !387, producer: "clang LLVM (rustc version 1.51.0 (2fd73fabe 2021-03-23))", isOptimized: true, runtimeVersion: 0, emissionKind: FullDebug, enums: !28)
!387 = !DIFile(filename: "library/rustc-std-workspace-core/lib.rs", directory: "/checkout/obj/build/x86_64-unknown-linux-gnu/stage1-std/x86_64-unknown-linux-gnu/release/deps")
!388 = distinct !DICompileUnit(language: DW_LANG_C99, file: !389, producer: "clang version 10.0.0-4ubuntu1 ", isOptimized: false, runtimeVersion: 0, emissionKind: FullDebug, enums: !28, splitDebugInlining: false, nameTableKind: None)
!389 = !DIFile(filename: "/home/ubuntu/klee/runtime/Freestanding/memcpy.c", directory: "/home/ubuntu/klee/build/runtime/Freestanding")
!390 = distinct !DICompileUnit(language: DW_LANG_C89, file: !391, producer: "clang version 10.0.0-4ubuntu1 ", isOptimized: false, runtimeVersion: 0, emissionKind: FullDebug, enums: !28, splitDebugInlining: false, nameTableKind: None)
!391 = !DIFile(filename: "/home/ubuntu/klee/runtime/Intrinsic/klee_div_zero_check.c", directory: "/home/ubuntu/klee/build/runtime/Intrinsic")
!392 = !{!"clang version 10.0.0-4ubuntu1 "}
!393 = distinct !DISubprogram(name: "fmt", linkageName: "_ZN41_$LT$bool$u20$as$u20$core..fmt..Debug$GT$3fmt17hbbdad82e961c64d2E", scope: !395, file: !394, line: 2043, type: !396, scopeLine: 2043, flags: DIFlagPrototyped, spFlags: DISPFlagLocalToUnit | DISPFlagDefinition, unit: !6, templateParams: !28, retainedNodes: !429)
!394 = !DIFile(filename: "/rustc/2fd73fabe469357a12c2c974c140f67e7cdd76d0/library/core/src/fmt/mod.rs", directory: "", checksumkind: CSK_MD5, checksum: "9c2303bc954c30225b64b2e88dce24d2")
!395 = !DINamespace(name: "{{impl}}", scope: !20)
!396 = !DISubroutineType(types: !397)
!397 = !{!9, !398, !400}
!398 = !DIDerivedType(tag: DW_TAG_pointer_type, name: "&bool", baseType: !399, size: 64, align: 64, dwarfAddressSpace: 0)
!399 = !DIBasicType(name: "bool", size: 8, encoding: DW_ATE_boolean)
!400 = !DIDerivedType(tag: DW_TAG_pointer_type, name: "&mut core::fmt::Formatter", baseType: !401, size: 64, align: 64, dwarfAddressSpace: 0)
!401 = !DICompositeType(tag: DW_TAG_structure_type, name: "Formatter", scope: !20, file: !10, size: 512, align: 64, elements: !402, templateParams: !28, identifier: "d1c22cb052fcd55becb4d9e9c2761003")
!402 = !{!403, !404, !406, !407, !418, !419}
!403 = !DIDerivedType(tag: DW_TAG_member, name: "flags", scope: !401, file: !10, baseType: !122, size: 32, align: 32, offset: 384)
!404 = !DIDerivedType(tag: DW_TAG_member, name: "fill", scope: !401, file: !10, baseType: !405, size: 32, align: 32, offset: 416)
!405 = !DIBasicType(name: "char", size: 32, encoding: DW_ATE_unsigned_char)
!406 = !DIDerivedType(tag: DW_TAG_member, name: "align", scope: !401, file: !10, baseType: !17, size: 8, align: 8, offset: 448)
!407 = !DIDerivedType(tag: DW_TAG_member, name: "width", scope: !401, file: !10, baseType: !408, size: 128, align: 64)
!408 = !DICompositeType(tag: DW_TAG_structure_type, name: "Option<usize>", scope: !87, file: !10, size: 128, align: 64, elements: !409, identifier: "9332858134cb740a2a89b17fc22aeac2")
!409 = !{!410}
!410 = !DICompositeType(tag: DW_TAG_variant_part, scope: !87, file: !10, size: 128, align: 64, elements: !411, templateParams: !111, identifier: "9332858134cb740a2a89b17fc22aeac2_variant_part", discriminator: !117)
!411 = !{!412, !414}
!412 = !DIDerivedType(tag: DW_TAG_member, name: "None", scope: !410, file: !10, baseType: !413, size: 128, align: 64, extraData: i64 0)
!413 = !DICompositeType(tag: DW_TAG_structure_type, name: "None", scope: !408, file: !10, size: 128, align: 64, elements: !28, templateParams: !111, identifier: "9332858134cb740a2a89b17fc22aeac2::None")
!414 = !DIDerivedType(tag: DW_TAG_member, name: "Some", scope: !410, file: !10, baseType: !415, size: 128, align: 64, extraData: i64 1)
!415 = !DICompositeType(tag: DW_TAG_structure_type, name: "Some", scope: !408, file: !10, size: 128, align: 64, elements: !416, templateParams: !111, identifier: "9332858134cb740a2a89b17fc22aeac2::Some")
!416 = !{!417}
!417 = !DIDerivedType(tag: DW_TAG_member, name: "__0", scope: !415, file: !10, baseType: !53, size: 64, align: 64, offset: 64)
!418 = !DIDerivedType(tag: DW_TAG_member, name: "precision", scope: !401, file: !10, baseType: !408, size: 128, align: 64, offset: 128)
!419 = !DIDerivedType(tag: DW_TAG_member, name: "buf", scope: !401, file: !10, baseType: !420, size: 128, align: 64, offset: 256)
!420 = !DICompositeType(tag: DW_TAG_structure_type, name: "&mut Write", scope: !20, file: !10, size: 128, align: 64, elements: !421, templateParams: !28, identifier: "110b4069ef19c710e8c916442189e601")
!421 = !{!422, !424}
!422 = !DIDerivedType(tag: DW_TAG_member, name: "pointer", scope: !420, file: !10, baseType: !423, size: 64, align: 64, flags: DIFlagArtificial)
!423 = !DIDerivedType(tag: DW_TAG_pointer_type, name: "*mut u8", baseType: !13, size: 64, align: 64, dwarfAddressSpace: 0)
!424 = !DIDerivedType(tag: DW_TAG_member, name: "vtable", scope: !420, file: !10, baseType: !425, size: 64, align: 64, offset: 64, flags: DIFlagArtificial)
!425 = !DIDerivedType(tag: DW_TAG_pointer_type, name: "&[usize; 3]", baseType: !426, size: 64, align: 64, dwarfAddressSpace: 0)
!426 = !DICompositeType(tag: DW_TAG_array_type, baseType: !53, size: 192, align: 64, elements: !427)
!427 = !{!428}
!428 = !DISubrange(count: 3)
!429 = !{!430, !431}
!430 = !DILocalVariable(name: "self", arg: 1, scope: !393, file: !394, line: 2043, type: !398)
!431 = !DILocalVariable(name: "f", arg: 2, scope: !393, file: !394, line: 2043, type: !400)
!432 = !DILocation(line: 2043, column: 12, scope: !393)
!433 = !DILocation(line: 2043, column: 19, scope: !393)
!434 = !DILocation(line: 2044, column: 9, scope: !393)
!435 = !DILocation(line: 2045, column: 6, scope: !393)
!436 = distinct !DISubprogram(name: "fmt<bool>", linkageName: "_ZN42_$LT$$RF$T$u20$as$u20$core..fmt..Debug$GT$3fmt17h1e688dea0c748a2dE", scope: !395, file: !394, line: 2014, type: !437, scopeLine: 2014, flags: DIFlagPrototyped, spFlags: DISPFlagLocalToUnit | DISPFlagDefinition, unit: !6, templateParams: !443, retainedNodes: !440)
!437 = !DISubroutineType(types: !438)
!438 = !{!9, !439, !400}
!439 = !DIDerivedType(tag: DW_TAG_pointer_type, name: "&&bool", baseType: !398, size: 64, align: 64, dwarfAddressSpace: 0)
!440 = !{!441, !442}
!441 = !DILocalVariable(name: "self", arg: 1, scope: !436, file: !394, line: 2014, type: !439)
!442 = !DILocalVariable(name: "f", arg: 2, scope: !436, file: !394, line: 2014, type: !400)
!443 = !{!444}
!444 = !DITemplateTypeParameter(name: "T", type: !399)
!445 = !DILocation(line: 2014, column: 20, scope: !436)
!446 = !DILocation(line: 2014, column: 27, scope: !436)
!447 = !DILocation(line: 2014, column: 71, scope: !436)
!448 = !DILocation(line: 2014, column: 62, scope: !436)
!449 = !DILocation(line: 2014, column: 84, scope: !436)
!450 = distinct !DISubprogram(name: "forward_unchecked", linkageName: "_ZN49_$LT$usize$u20$as$u20$core..iter..range..Step$GT$17forward_unchecked17he3b104086c00f484E", scope: !452, file: !451, line: 191, type: !455, scopeLine: 191, flags: DIFlagPrototyped, spFlags: DISPFlagLocalToUnit | DISPFlagDefinition, unit: !6, templateParams: !28, retainedNodes: !457)
!451 = !DIFile(filename: "/rustc/2fd73fabe469357a12c2c974c140f67e7cdd76d0/library/core/src/iter/range.rs", directory: "", checksumkind: CSK_MD5, checksum: "fe23579df17f109f3dfee33f341ff9d4")
!452 = !DINamespace(name: "{{impl}}", scope: !453)
!453 = !DINamespace(name: "range", scope: !454)
!454 = !DINamespace(name: "iter", scope: !12)
!455 = !DISubroutineType(types: !456)
!456 = !{!53, !53, !53}
!457 = !{!458, !459}
!458 = !DILocalVariable(name: "start", arg: 1, scope: !450, file: !451, line: 191, type: !53)
!459 = !DILocalVariable(name: "n", arg: 2, scope: !450, file: !451, line: 191, type: !53)
!460 = !DILocation(line: 191, column: 37, scope: !450)
!461 = !DILocation(line: 191, column: 50, scope: !450)
!462 = !DILocation(line: 193, column: 22, scope: !450)
!463 = !DILocation(line: 194, column: 10, scope: !450)
!464 = distinct !DISubprogram(name: "lt", linkageName: "_ZN4core3cmp5impls57_$LT$impl$u20$core..cmp..PartialOrd$u20$for$u20$usize$GT$2lt17h79f54d1533900ab1E", scope: !466, file: !465, line: 1258, type: !468, scopeLine: 1258, flags: DIFlagPrototyped, spFlags: DISPFlagLocalToUnit | DISPFlagDefinition, unit: !6, templateParams: !28, retainedNodes: !470)
!465 = !DIFile(filename: "/rustc/2fd73fabe469357a12c2c974c140f67e7cdd76d0/library/core/src/cmp.rs", directory: "", checksumkind: CSK_MD5, checksum: "216266272664f97bdd75a5a9e6b6ecd6")
!466 = !DINamespace(name: "{{impl}}", scope: !467)
!467 = !DINamespace(name: "impls", scope: !33)
!468 = !DISubroutineType(types: !469)
!469 = !{!399, !61, !61}
!470 = !{!471, !472}
!471 = !DILocalVariable(name: "self", arg: 1, scope: !464, file: !465, line: 1258, type: !61)
!472 = !DILocalVariable(name: "other", arg: 2, scope: !464, file: !465, line: 1258, type: !61)
!473 = !DILocation(line: 1258, column: 23, scope: !464)
!474 = !DILocation(line: 1258, column: 30, scope: !464)
!475 = !DILocation(line: 1258, column: 52, scope: !464)
!476 = !DILocation(line: 1258, column: 62, scope: !464)
!477 = !DILocation(line: 1258, column: 72, scope: !464)
!478 = distinct !DISubprogram(name: "new<&bool>", linkageName: "_ZN4core3fmt10ArgumentV13new17hf1032d8672fab895E", scope: !479, file: !394, line: 267, type: !488, scopeLine: 267, flags: DIFlagPrototyped, spFlags: DISPFlagLocalToUnit | DISPFlagDefinition, unit: !6, templateParams: !494, retainedNodes: !491)
!479 = !DICompositeType(tag: DW_TAG_structure_type, name: "ArgumentV1", scope: !20, file: !10, size: 128, align: 64, elements: !480, templateParams: !28, identifier: "6619fd31a8de7fb48cfbb958bcaec8fe")
!480 = !{!481, !484}
!481 = !DIDerivedType(tag: DW_TAG_member, name: "value", scope: !479, file: !10, baseType: !482, size: 64, align: 64)
!482 = !DIDerivedType(tag: DW_TAG_pointer_type, name: "&core::fmt::::Opaque", baseType: !483, size: 64, align: 64, dwarfAddressSpace: 0)
!483 = !DICompositeType(tag: DW_TAG_structure_type, name: "Opaque", file: !10, align: 8, elements: !28, identifier: "c7b909a8549e774811ca83990f5da58d")
!484 = !DIDerivedType(tag: DW_TAG_member, name: "formatter", scope: !479, file: !10, baseType: !485, size: 64, align: 64, offset: 64)
!485 = !DIDerivedType(tag: DW_TAG_pointer_type, name: "fn(&core::fmt::::Opaque, &mut core::fmt::Formatter) -> core::result::Result<(), core::fmt::Error>", baseType: !486, size: 64, align: 64, dwarfAddressSpace: 0)
!486 = !DISubroutineType(types: !487)
!487 = !{!9, !482, !400}
!488 = !DISubroutineType(types: !489)
!489 = !{!479, !439, !490}
!490 = !DIDerivedType(tag: DW_TAG_pointer_type, name: "fn(&&bool, &mut core::fmt::Formatter) -> core::result::Result<(), core::fmt::Error>", baseType: !437, size: 64, align: 64, dwarfAddressSpace: 0)
!491 = !{!492, !493}
!492 = !DILocalVariable(name: "x", arg: 1, scope: !478, file: !394, line: 267, type: !439)
!493 = !DILocalVariable(name: "f", arg: 2, scope: !478, file: !394, line: 267, type: !490)
!494 = !{!495}
!495 = !DITemplateTypeParameter(name: "T", type: !398)
!496 = !DILocation(line: 267, column: 23, scope: !478)
!497 = !DILocation(line: 267, column: 33, scope: !478)
!498 = !DILocation(line: 276, column: 42, scope: !478)
!499 = !DILocation(line: 276, column: 68, scope: !478)
!500 = !DILocation(line: 276, column: 18, scope: !478)
!501 = !DILocation(line: 277, column: 6, scope: !478)
!502 = distinct !DISubprogram(name: "new_v1", linkageName: "_ZN4core3fmt9Arguments6new_v117hc0cebfa07679db19E", scope: !503, file: !394, line: 313, type: !565, scopeLine: 313, flags: DIFlagPrototyped, spFlags: DISPFlagLocalToUnit | DISPFlagDefinition, unit: !6, templateParams: !28, retainedNodes: !567)
!503 = !DICompositeType(tag: DW_TAG_structure_type, name: "Arguments", scope: !20, file: !10, size: 384, align: 64, elements: !504, templateParams: !28, identifier: "1a7c27c0b75627fec59278fe321fba57")
!504 = !{!505, !515, !559}
!505 = !DIDerivedType(tag: DW_TAG_member, name: "pieces", scope: !503, file: !10, baseType: !506, size: 128, align: 64)
!506 = !DICompositeType(tag: DW_TAG_structure_type, name: "&[&str]", file: !10, size: 128, align: 64, elements: !507, templateParams: !28, identifier: "e5181a2ba73cefd2b9372dc5646453a9")
!507 = !{!508, !514}
!508 = !DIDerivedType(tag: DW_TAG_member, name: "data_ptr", scope: !506, file: !10, baseType: !509, size: 64, align: 64)
!509 = !DIDerivedType(tag: DW_TAG_pointer_type, name: "*const &str", baseType: !510, size: 64, align: 64, dwarfAddressSpace: 0)
!510 = !DICompositeType(tag: DW_TAG_structure_type, name: "&str", file: !10, size: 128, align: 64, elements: !511, templateParams: !28, identifier: "7ef2a91eecc7bcf4b4aaea2dbce79437")
!511 = !{!512, !513}
!512 = !DIDerivedType(tag: DW_TAG_member, name: "data_ptr", scope: !510, file: !10, baseType: !145, size: 64, align: 64)
!513 = !DIDerivedType(tag: DW_TAG_member, name: "length", scope: !510, file: !10, baseType: !53, size: 64, align: 64, offset: 64)
!514 = !DIDerivedType(tag: DW_TAG_member, name: "length", scope: !506, file: !10, baseType: !53, size: 64, align: 64, offset: 64)
!515 = !DIDerivedType(tag: DW_TAG_member, name: "fmt", scope: !503, file: !10, baseType: !516, size: 128, align: 64, offset: 128)
!516 = !DICompositeType(tag: DW_TAG_structure_type, name: "Option<&[core::fmt::rt::v1::Argument]>", scope: !87, file: !10, size: 128, align: 64, elements: !517, identifier: "b56d67b9b7feca2adbc2832ec8d0c46a")
!517 = !{!518}
!518 = !DICompositeType(tag: DW_TAG_variant_part, scope: !87, file: !10, size: 128, align: 64, elements: !519, templateParams: !522, identifier: "b56d67b9b7feca2adbc2832ec8d0c46a_variant_part", discriminator: !117)
!519 = !{!520, !555}
!520 = !DIDerivedType(tag: DW_TAG_member, name: "None", scope: !518, file: !10, baseType: !521, size: 128, align: 64, extraData: i64 0)
!521 = !DICompositeType(tag: DW_TAG_structure_type, name: "None", scope: !516, file: !10, size: 128, align: 64, elements: !28, templateParams: !522, identifier: "b56d67b9b7feca2adbc2832ec8d0c46a::None")
!522 = !{!523}
!523 = !DITemplateTypeParameter(name: "T", type: !524)
!524 = !DICompositeType(tag: DW_TAG_structure_type, name: "&[core::fmt::rt::v1::Argument]", file: !10, size: 128, align: 64, elements: !525, templateParams: !28, identifier: "8308f45ba37f738f58ea77e9c86e039b")
!525 = !{!526, !554}
!526 = !DIDerivedType(tag: DW_TAG_member, name: "data_ptr", scope: !524, file: !10, baseType: !527, size: 64, align: 64)
!527 = !DIDerivedType(tag: DW_TAG_pointer_type, name: "*const core::fmt::rt::v1::Argument", baseType: !528, size: 64, align: 64, dwarfAddressSpace: 0)
!528 = !DICompositeType(tag: DW_TAG_structure_type, name: "Argument", scope: !18, file: !10, size: 448, align: 64, elements: !529, templateParams: !28, identifier: "691eb57fd0c8590a95019e7601130547")
!529 = !{!530, !531}
!530 = !DIDerivedType(tag: DW_TAG_member, name: "position", scope: !528, file: !10, baseType: !53, size: 64, align: 64)
!531 = !DIDerivedType(tag: DW_TAG_member, name: "format", scope: !528, file: !10, baseType: !532, size: 384, align: 64, offset: 64)
!532 = !DICompositeType(tag: DW_TAG_structure_type, name: "FormatSpec", scope: !18, file: !10, size: 384, align: 64, elements: !533, templateParams: !28, identifier: "7d53aaf36b2d51081e1179e46fb0ab6")
!533 = !{!534, !535, !536, !537, !553}
!534 = !DIDerivedType(tag: DW_TAG_member, name: "fill", scope: !532, file: !10, baseType: !405, size: 32, align: 32, offset: 256)
!535 = !DIDerivedType(tag: DW_TAG_member, name: "align", scope: !532, file: !10, baseType: !17, size: 8, align: 8, offset: 320)
!536 = !DIDerivedType(tag: DW_TAG_member, name: "flags", scope: !532, file: !10, baseType: !122, size: 32, align: 32, offset: 288)
!537 = !DIDerivedType(tag: DW_TAG_member, name: "precision", scope: !532, file: !10, baseType: !538, size: 128, align: 64)
!538 = !DICompositeType(tag: DW_TAG_structure_type, name: "Count", scope: !18, file: !10, size: 128, align: 64, elements: !539, identifier: "42e154d3efa76c68e7c6c9e5f44b41a2")
!539 = !{!540}
!540 = !DICompositeType(tag: DW_TAG_variant_part, scope: !18, file: !10, size: 128, align: 64, elements: !541, templateParams: !28, identifier: "42e154d3efa76c68e7c6c9e5f44b41a2_variant_part", discriminator: !552)
!541 = !{!542, !546, !550}
!542 = !DIDerivedType(tag: DW_TAG_member, name: "Is", scope: !540, file: !10, baseType: !543, size: 128, align: 64, extraData: i64 0)
!543 = !DICompositeType(tag: DW_TAG_structure_type, name: "Is", scope: !538, file: !10, size: 128, align: 64, elements: !544, templateParams: !28, identifier: "42e154d3efa76c68e7c6c9e5f44b41a2::Is")
!544 = !{!545}
!545 = !DIDerivedType(tag: DW_TAG_member, name: "__0", scope: !543, file: !10, baseType: !53, size: 64, align: 64, offset: 64)
!546 = !DIDerivedType(tag: DW_TAG_member, name: "Param", scope: !540, file: !10, baseType: !547, size: 128, align: 64, extraData: i64 1)
!547 = !DICompositeType(tag: DW_TAG_structure_type, name: "Param", scope: !538, file: !10, size: 128, align: 64, elements: !548, templateParams: !28, identifier: "42e154d3efa76c68e7c6c9e5f44b41a2::Param")
!548 = !{!549}
!549 = !DIDerivedType(tag: DW_TAG_member, name: "__0", scope: !547, file: !10, baseType: !53, size: 64, align: 64, offset: 64)
!550 = !DIDerivedType(tag: DW_TAG_member, name: "Implied", scope: !540, file: !10, baseType: !551, size: 128, align: 64, extraData: i64 2)
!551 = !DICompositeType(tag: DW_TAG_structure_type, name: "Implied", scope: !538, file: !10, size: 128, align: 64, elements: !28, templateParams: !28, identifier: "42e154d3efa76c68e7c6c9e5f44b41a2::Implied")
!552 = !DIDerivedType(tag: DW_TAG_member, scope: !18, file: !10, baseType: !57, size: 64, align: 64, flags: DIFlagArtificial)
!553 = !DIDerivedType(tag: DW_TAG_member, name: "width", scope: !532, file: !10, baseType: !538, size: 128, align: 64, offset: 128)
!554 = !DIDerivedType(tag: DW_TAG_member, name: "length", scope: !524, file: !10, baseType: !53, size: 64, align: 64, offset: 64)
!555 = !DIDerivedType(tag: DW_TAG_member, name: "Some", scope: !518, file: !10, baseType: !556, size: 128, align: 64)
!556 = !DICompositeType(tag: DW_TAG_structure_type, name: "Some", scope: !516, file: !10, size: 128, align: 64, elements: !557, templateParams: !522, identifier: "b56d67b9b7feca2adbc2832ec8d0c46a::Some")
!557 = !{!558}
!558 = !DIDerivedType(tag: DW_TAG_member, name: "__0", scope: !556, file: !10, baseType: !524, size: 128, align: 64)
!559 = !DIDerivedType(tag: DW_TAG_member, name: "args", scope: !503, file: !10, baseType: !560, size: 128, align: 64, offset: 256)
!560 = !DICompositeType(tag: DW_TAG_structure_type, name: "&[core::fmt::ArgumentV1]", file: !10, size: 128, align: 64, elements: !561, templateParams: !28, identifier: "e95cec6dff5f479c9a45e2dcffa4a08f")
!561 = !{!562, !564}
!562 = !DIDerivedType(tag: DW_TAG_member, name: "data_ptr", scope: !560, file: !10, baseType: !563, size: 64, align: 64)
!563 = !DIDerivedType(tag: DW_TAG_pointer_type, name: "*const core::fmt::ArgumentV1", baseType: !479, size: 64, align: 64, dwarfAddressSpace: 0)
!564 = !DIDerivedType(tag: DW_TAG_member, name: "length", scope: !560, file: !10, baseType: !53, size: 64, align: 64, offset: 64)
!565 = !DISubroutineType(types: !566)
!566 = !{!503, !506, !560}
!567 = !{!568, !569}
!568 = !DILocalVariable(name: "pieces", arg: 1, scope: !502, file: !394, line: 313, type: !506)
!569 = !DILocalVariable(name: "args", arg: 2, scope: !502, file: !394, line: 313, type: !560)
!570 = !DILocation(line: 313, column: 19, scope: !502)
!571 = !DILocation(line: 313, column: 47, scope: !502)
!572 = !DILocation(line: 314, column: 34, scope: !502)
!573 = !DILocation(line: 314, column: 9, scope: !502)
!574 = !DILocation(line: 315, column: 6, scope: !502)
!575 = distinct !DISubprogram(name: "unchecked_add", linkageName: "_ZN4core3num23_$LT$impl$u20$usize$GT$13unchecked_add17h07e9c748368d816cE", scope: !577, file: !576, line: 431, type: !455, scopeLine: 431, flags: DIFlagPrototyped, spFlags: DISPFlagLocalToUnit | DISPFlagDefinition, unit: !6, templateParams: !28, retainedNodes: !579)
!576 = !DIFile(filename: "/rustc/2fd73fabe469357a12c2c974c140f67e7cdd76d0/library/core/src/num/uint_macros.rs", directory: "", checksumkind: CSK_MD5, checksum: "5308d1208452a53e75e28bb7633fba69")
!577 = !DINamespace(name: "{{impl}}", scope: !578)
!578 = !DINamespace(name: "num", scope: !12)
!579 = !{!580, !581}
!580 = !DILocalVariable(name: "self", arg: 1, scope: !575, file: !576, line: 431, type: !53)
!581 = !DILocalVariable(name: "rhs", arg: 2, scope: !575, file: !576, line: 431, type: !53)
!582 = !DILocation(line: 431, column: 37, scope: !575)
!583 = !DILocation(line: 431, column: 43, scope: !575)
!584 = !DILocation(line: 434, column: 22, scope: !575)
!585 = !DILocation(line: 435, column: 10, scope: !575)
!586 = distinct !DISubprogram(name: "next<usize>", linkageName: "_ZN4core4iter5range101_$LT$impl$u20$core..iter..traits..iterator..Iterator$u20$for$u20$core..ops..range..Range$LT$A$GT$$GT$4next17he5d90fe4aa83f56bE", scope: !452, file: !451, line: 506, type: !587, scopeLine: 506, flags: DIFlagPrototyped, spFlags: DISPFlagLocalToUnit | DISPFlagDefinition, unit: !6, templateParams: !602, retainedNodes: !598)
!587 = !DISubroutineType(types: !588)
!588 = !{!408, !589}
!589 = !DIDerivedType(tag: DW_TAG_pointer_type, name: "&mut core::ops::range::Range<usize>", baseType: !590, size: 64, align: 64, dwarfAddressSpace: 0)
!590 = !DICompositeType(tag: DW_TAG_structure_type, name: "Range<usize>", scope: !591, file: !10, size: 128, align: 64, elements: !593, templateParams: !596, identifier: "39d77eafc3494c4b3eb9fcf137bcc65d")
!591 = !DINamespace(name: "range", scope: !592)
!592 = !DINamespace(name: "ops", scope: !12)
!593 = !{!594, !595}
!594 = !DIDerivedType(tag: DW_TAG_member, name: "start", scope: !590, file: !10, baseType: !53, size: 64, align: 64)
!595 = !DIDerivedType(tag: DW_TAG_member, name: "end", scope: !590, file: !10, baseType: !53, size: 64, align: 64, offset: 64)
!596 = !{!597}
!597 = !DITemplateTypeParameter(name: "Idx", type: !53)
!598 = !{!599, !600}
!599 = !DILocalVariable(name: "self", arg: 1, scope: !586, file: !451, line: 506, type: !589)
!600 = !DILocalVariable(name: "n", scope: !601, file: !451, line: 509, type: !53, align: 8)
!601 = distinct !DILexicalBlock(scope: !586, file: !451, line: 509, column: 13)
!602 = !{!603}
!603 = !DITemplateTypeParameter(name: "A", type: !53)
!604 = !DILocation(line: 506, column: 13, scope: !586)
!605 = !DILocation(line: 507, column: 12, scope: !586)
!606 = !DILocation(line: 507, column: 25, scope: !586)
!607 = !DILocation(line: 507, column: 9, scope: !586)
!608 = !DILocation(line: 509, column: 54, scope: !586)
!609 = !DILocation(line: 509, column: 30, scope: !586)
!610 = !DILocation(line: 509, column: 17, scope: !601)
!611 = !DILocation(line: 510, column: 31, scope: !601)
!612 = !DILocation(line: 510, column: 18, scope: !601)
!613 = !DILocation(line: 510, column: 13, scope: !601)
!614 = !DILocation(line: 512, column: 13, scope: !586)
!615 = !DILocation(line: 514, column: 6, scope: !586)
!616 = !{i64 0, i64 2}
!617 = distinct !DISubprogram(name: "clone", linkageName: "_ZN4core5clone5impls54_$LT$impl$u20$core..clone..Clone$u20$for$u20$usize$GT$5clone17h6f6aa62c521a810fE", scope: !619, file: !618, line: 181, type: !622, scopeLine: 181, flags: DIFlagPrototyped, spFlags: DISPFlagLocalToUnit | DISPFlagDefinition, unit: !6, templateParams: !28, retainedNodes: !624)
!618 = !DIFile(filename: "/rustc/2fd73fabe469357a12c2c974c140f67e7cdd76d0/library/core/src/clone.rs", directory: "", checksumkind: CSK_MD5, checksum: "ac8d71a1ea6619659fbd99e3ca3df933")
!619 = !DINamespace(name: "{{impl}}", scope: !620)
!620 = !DINamespace(name: "impls", scope: !621)
!621 = !DINamespace(name: "clone", scope: !12)
!622 = !DISubroutineType(types: !623)
!623 = !{!53, !61}
!624 = !{!625}
!625 = !DILocalVariable(name: "self", arg: 1, scope: !617, file: !618, line: 181, type: !61)
!626 = !DILocation(line: 181, column: 30, scope: !617)
!627 = !DILocation(line: 182, column: 25, scope: !617)
!628 = !DILocation(line: 183, column: 22, scope: !617)
!629 = distinct !DISubprogram(name: "into_iter<core::ops::range::Range<usize>>", linkageName: "_ZN63_$LT$I$u20$as$u20$core..iter..traits..collect..IntoIterator$GT$9into_iter17hb4833e6104678c19E", scope: !631, file: !630, line: 240, type: !634, scopeLine: 240, flags: DIFlagPrototyped, spFlags: DISPFlagLocalToUnit | DISPFlagDefinition, unit: !6, templateParams: !638, retainedNodes: !636)
!630 = !DIFile(filename: "/rustc/2fd73fabe469357a12c2c974c140f67e7cdd76d0/library/core/src/iter/traits/collect.rs", directory: "", checksumkind: CSK_MD5, checksum: "3854390627f76d1db63c99cc13806055")
!631 = !DINamespace(name: "{{impl}}", scope: !632)
!632 = !DINamespace(name: "collect", scope: !633)
!633 = !DINamespace(name: "traits", scope: !454)
!634 = !DISubroutineType(types: !635)
!635 = !{!590, !590}
!636 = !{!637}
!637 = !DILocalVariable(name: "self", arg: 1, scope: !629, file: !630, line: 240, type: !590)
!638 = !{!639}
!639 = !DITemplateTypeParameter(name: "I", type: !590)
!640 = !DILocation(line: 240, column: 18, scope: !629)
!641 = !DILocation(line: 242, column: 6, scope: !629)
!642 = distinct !DISubprogram(name: "from_bytes_with_nul_unchecked", linkageName: "_ZN9cstr_core4CStr29from_bytes_with_nul_unchecked17hd578fe73d06082acE", scope: !644, file: !643, line: 1162, type: !650, scopeLine: 1162, flags: DIFlagPrototyped, spFlags: DISPFlagLocalToUnit | DISPFlagDefinition, unit: !6, templateParams: !28, retainedNodes: !657)
!643 = !DIFile(filename: "/home/ubuntu/.cargo/registry/src/github.com-1ecc6299db9ec823/cstr_core-0.2.5/src/lib.rs", directory: "", checksumkind: CSK_MD5, checksum: "3a4727b3481b2bcf3c156ce21ae07237")
!644 = !DICompositeType(tag: DW_TAG_structure_type, name: "CStr", scope: !45, file: !10, align: 8, elements: !645, templateParams: !28, identifier: "24bbd375d8ef8895a356feb6cae0c1a6")
!645 = !{!646}
!646 = !DIDerivedType(tag: DW_TAG_member, name: "inner", scope: !644, file: !10, baseType: !647, align: 8)
!647 = !DICompositeType(tag: DW_TAG_array_type, baseType: !34, align: 8, elements: !648)
!648 = !{!649}
!649 = !DISubrange(count: -1)
!650 = !DISubroutineType(types: !651)
!651 = !{!652, !653}
!652 = !DIDerivedType(tag: DW_TAG_pointer_type, name: "&cstr_core::CStr", baseType: !644, size: 128, align: 64, dwarfAddressSpace: 0)
!653 = !DICompositeType(tag: DW_TAG_structure_type, name: "&[u8]", file: !10, size: 128, align: 64, elements: !654, templateParams: !28, identifier: "585202bcfc7dfd1dd72e8befe2491ee4")
!654 = !{!655, !656}
!655 = !DIDerivedType(tag: DW_TAG_member, name: "data_ptr", scope: !653, file: !10, baseType: !145, size: 64, align: 64)
!656 = !DIDerivedType(tag: DW_TAG_member, name: "length", scope: !653, file: !10, baseType: !53, size: 64, align: 64, offset: 64)
!657 = !{!658}
!658 = !DILocalVariable(name: "bytes", arg: 1, scope: !642, file: !643, line: 1162, type: !653)
!659 = !DILocation(line: 1162, column: 49, scope: !642)
!660 = !DILocation(line: 1163, column: 11, scope: !642)
!661 = !DILocation(line: 1164, column: 6, scope: !642)
!662 = distinct !DISubprogram(name: "as_ptr", linkageName: "_ZN9cstr_core4CStr6as_ptr17hcecb48312159a4a6E", scope: !644, file: !643, line: 1214, type: !663, scopeLine: 1214, flags: DIFlagPrototyped, spFlags: DISPFlagLocalToUnit | DISPFlagDefinition, unit: !6, templateParams: !28, retainedNodes: !666)
!663 = !DISubroutineType(types: !664)
!664 = !{!665, !652}
!665 = !DIDerivedType(tag: DW_TAG_pointer_type, name: "*const i8", baseType: !34, size: 64, align: 64, dwarfAddressSpace: 0)
!666 = !{!667}
!667 = !DILocalVariable(name: "self", arg: 1, scope: !662, file: !643, line: 1214, type: !652)
!668 = !DILocation(line: 1214, column: 25, scope: !662)
!669 = !DILocation(line: 1215, column: 9, scope: !662)
!670 = !DILocation(line: 1216, column: 6, scope: !662)
!671 = distinct !DISubprogram(name: "isprime_wrong", linkageName: "_ZN6primes13isprime_wrong17h96f52ba5ffe32583E", scope: !673, file: !672, line: 8, type: !674, scopeLine: 8, flags: DIFlagPrototyped, spFlags: DISPFlagLocalToUnit | DISPFlagDefinition, unit: !6, templateParams: !28, retainedNodes: !676)
!672 = !DIFile(filename: "src/main.rs", directory: "/home/ubuntu/container-data/primes", checksumkind: CSK_MD5, checksum: "90da2b8bbbb6ccd495033d29822f9387")
!673 = !DINamespace(name: "primes", scope: null)
!674 = !DISubroutineType(types: !675)
!675 = !{!399, !53}
!676 = !{!677}
!677 = !DILocalVariable(name: "n", arg: 1, scope: !671, file: !672, line: 8, type: !53)
!678 = !DILocation(line: 8, column: 18, scope: !671)
!679 = !DILocation(line: 9, column: 8, scope: !671)
!680 = !DILocation(line: 9, column: 5, scope: !671)
!681 = !{i8 0, i8 2}
!682 = !DILocation(line: 10, column: 16, scope: !671)
!683 = !DILocation(line: 10, column: 9, scope: !671)
!684 = !DILocation(line: 11, column: 15, scope: !671)
!685 = !DILocation(line: 11, column: 12, scope: !671)
!686 = !DILocation(line: 12, column: 16, scope: !671)
!687 = !DILocation(line: 1, column: 1, scope: !671)
!688 = !DILocation(line: 14, column: 12, scope: !671)
!689 = !DILocation(line: 14, column: 5, scope: !671)
!690 = !DILocation(line: 15, column: 2, scope: !671)
!691 = distinct !DISubprogram(name: "isprime_check", linkageName: "_ZN6primes13isprime_check17hee4c830b2cfe391dE", scope: !673, file: !672, line: 17, type: !674, scopeLine: 17, flags: DIFlagPrototyped, spFlags: DISPFlagLocalToUnit | DISPFlagDefinition, unit: !6, templateParams: !28, retainedNodes: !692)
!692 = !{!693, !694, !696, !698, !700}
!693 = !DILocalVariable(name: "n", arg: 1, scope: !691, file: !672, line: 17, type: !53)
!694 = !DILocalVariable(name: "iter", scope: !695, file: !672, line: 22, type: !590, align: 8)
!695 = distinct !DILexicalBlock(scope: !691, file: !672, line: 22, column: 5)
!696 = !DILocalVariable(name: "__next", scope: !697, file: !672, line: 22, type: !53, align: 8)
!697 = distinct !DILexicalBlock(scope: !695, file: !672, line: 22, column: 14)
!698 = !DILocalVariable(name: "val", scope: !699, file: !672, line: 22, type: !53, align: 8)
!699 = distinct !DILexicalBlock(scope: !697, file: !672, line: 22, column: 9)
!700 = !DILocalVariable(name: "m", scope: !701, file: !672, line: 22, type: !53, align: 8)
!701 = distinct !DILexicalBlock(scope: !697, file: !672, line: 22, column: 14)
!702 = !DILocation(line: 17, column: 18, scope: !691)
!703 = !DILocation(line: 22, column: 14, scope: !695)
!704 = !DILocation(line: 18, column: 5, scope: !691)
!705 = !DILocation(line: 19, column: 16, scope: !691)
!706 = !DILocation(line: 1, column: 1, scope: !691)
!707 = !DILocation(line: 22, column: 17, scope: !691)
!708 = !DILocation(line: 22, column: 14, scope: !691)
!709 = !DILocation(line: 22, column: 5, scope: !695)
!710 = !DILocation(line: 22, column: 14, scope: !697)
!711 = !DILocation(line: 22, column: 9, scope: !697)
!712 = !DILocation(line: 27, column: 12, scope: !691)
!713 = !DILocation(line: 27, column: 5, scope: !691)
!714 = !DILocation(line: 22, column: 9, scope: !699)
!715 = !DILocation(line: 22, column: 9, scope: !701)
!716 = !DILocation(line: 23, column: 12, scope: !701)
!717 = !{!"True"}
!718 = !DILocation(line: 23, column: 9, scope: !701)
!719 = !DILocation(line: 24, column: 20, scope: !701)
!720 = !DILocation(line: 28, column: 2, scope: !691)
!721 = distinct !DISubprogram(name: "prime_test", linkageName: "_ZN6primes10prime_test17he3eb7209752c09d9E", scope: !673, file: !672, line: 30, type: !722, scopeLine: 30, flags: DIFlagPrototyped, spFlags: DISPFlagLocalToUnit | DISPFlagDefinition, unit: !6, templateParams: !28, retainedNodes: !724)
!722 = !DISubroutineType(types: !723)
!723 = !{null, !53}
!724 = !{!725, !726, !730, !731, !735}
!725 = !DILocalVariable(name: "n", arg: 1, scope: !721, file: !672, line: 30, type: !53)
!726 = !DILocalVariable(name: "left_val", scope: !727, file: !672, line: 32, type: !398, align: 8)
!727 = !DILexicalBlockFile(scope: !728, file: !672, discriminator: 0)
!728 = distinct !DILexicalBlock(scope: !721, file: !729, line: 59, column: 13)
!729 = !DIFile(filename: "/rustc/2fd73fabe469357a12c2c974c140f67e7cdd76d0/library/core/src/macros/mod.rs", directory: "", checksumkind: CSK_MD5, checksum: "8dc86145dd8e4ae659181a1e81cd58e2")
!730 = !DILocalVariable(name: "right_val", scope: !727, file: !672, line: 32, type: !398, align: 8)
!731 = !DILocalVariable(name: "arg0", scope: !732, file: !672, line: 32, type: !439, align: 8)
!732 = !DILexicalBlockFile(scope: !733, file: !672, discriminator: 0)
!733 = distinct !DILexicalBlock(scope: !728, file: !734, line: 24, column: 38)
!734 = !DIFile(filename: "/rustc/2fd73fabe469357a12c2c974c140f67e7cdd76d0/library/core/src/panic.rs", directory: "", checksumkind: CSK_MD5, checksum: "4b2dd965887c76cebc0a34a2a83ddd98")
!735 = !DILocalVariable(name: "arg1", scope: !732, file: !672, line: 32, type: !439, align: 8)
!736 = !DILocation(line: 30, column: 15, scope: !721)
!737 = !DILocation(line: 32, column: 16, scope: !721)
!738 = !DILocation(line: 32, column: 34, scope: !721)
!739 = !DILocation(line: 32, column: 5, scope: !721)
!740 = !DILocation(line: 32, column: 5, scope: !727)
!741 = !DILocation(line: 32, column: 5, scope: !732)
!742 = !DILocation(line: 33, column: 2, scope: !721)
!743 = distinct !DISubprogram(name: "main", scope: !673, file: !672, line: 36, type: !744, scopeLine: 36, flags: DIFlagPrototyped, spFlags: DISPFlagDefinition, unit: !6, templateParams: !28, retainedNodes: !746)
!744 = !DISubroutineType(types: !745)
!745 = !{null}
!746 = !{!747}
!747 = !DILocalVariable(name: "n", scope: !748, file: !672, line: 37, type: !53, align: 8)
!748 = distinct !DILexicalBlock(scope: !743, file: !672, line: 37, column: 5)
!749 = !DILocation(line: 37, column: 9, scope: !748)
!750 = !DILocation(line: 37, column: 24, scope: !743)
!751 = !{!752}
!752 = distinct !{!752, !753, !"_ZN4core3str21_$LT$impl$u20$str$GT$8as_bytes17hd4a894810077290dE: %self.0"}
!753 = distinct !{!753, !"_ZN4core3str21_$LT$impl$u20$str$GT$8as_bytes17hd4a894810077290dE"}
!754 = !DILocalVariable(name: "self", arg: 1, scope: !755, file: !756, line: 224, type: !510)
!755 = distinct !DISubprogram(name: "as_bytes", linkageName: "_ZN4core3str21_$LT$impl$u20$str$GT$8as_bytes17hd4a894810077290dE", scope: !757, file: !756, line: 224, type: !759, scopeLine: 224, flags: DIFlagPrototyped, spFlags: DISPFlagLocalToUnit | DISPFlagDefinition, unit: !6, templateParams: !28, retainedNodes: !761)
!756 = !DIFile(filename: "/rustc/2fd73fabe469357a12c2c974c140f67e7cdd76d0/library/core/src/str/mod.rs", directory: "", checksumkind: CSK_MD5, checksum: "288711a6cf0e0d8143d78b5fe87cac66")
!757 = !DINamespace(name: "{{impl}}", scope: !758)
!758 = !DINamespace(name: "str", scope: !12)
!759 = !DISubroutineType(types: !760)
!760 = !{!653, !510}
!761 = !{!754}
!762 = !DILocation(line: 224, column: 27, scope: !755, inlinedAt: !763)
!763 = distinct !DILocation(line: 38, column: 5, scope: !748)
!764 = !DILocation(line: 226, column: 18, scope: !755, inlinedAt: !763)
!765 = !DILocation(line: 227, column: 6, scope: !755, inlinedAt: !763)
!766 = !DILocation(line: 38, column: 5, scope: !748)
!767 = !{!768}
!768 = distinct !{!768, !769, !"_ZN8klee_sys17lib_klee_analysis18klee_make_symbolic17h0d8385f75e8d7b9cE: %name.0"}
!769 = distinct !{!769, !"_ZN8klee_sys17lib_klee_analysis18klee_make_symbolic17h0d8385f75e8d7b9cE"}
!770 = !DILocalVariable(name: "t", arg: 1, scope: !771, file: !772, line: 17, type: !777)
!771 = distinct !DISubprogram(name: "klee_make_symbolic<usize>", linkageName: "_ZN8klee_sys17lib_klee_analysis18klee_make_symbolic17h0d8385f75e8d7b9cE", scope: !773, file: !772, line: 17, type: !775, scopeLine: 17, flags: DIFlagPrototyped, spFlags: DISPFlagLocalToUnit | DISPFlagDefinition, unit: !6, templateParams: !111, retainedNodes: !778)
!772 = !DIFile(filename: "/home/ubuntu/.cargo/git/checkouts/klee-sys-7ee2aa8a1a6bbc46/9f462cc/src/lib_klee_analysis.rs", directory: "", checksumkind: CSK_MD5, checksum: "e3bdc37403934781364daca8b62851bf")
!773 = !DINamespace(name: "lib_klee_analysis", scope: !774)
!774 = !DINamespace(name: "klee_sys", scope: null)
!775 = !DISubroutineType(types: !776)
!776 = !{null, !777, !652}
!777 = !DIDerivedType(tag: DW_TAG_pointer_type, name: "&mut usize", baseType: !53, size: 64, align: 64, dwarfAddressSpace: 0)
!778 = !{!770, !779}
!779 = !DILocalVariable(name: "name", arg: 2, scope: !771, file: !772, line: 17, type: !652)
!780 = !DILocation(line: 17, column: 30, scope: !771, inlinedAt: !781)
!781 = distinct !DILocation(line: 38, column: 5, scope: !748)
!782 = !DILocation(line: 17, column: 41, scope: !771, inlinedAt: !781)
!783 = !DILocation(line: 20, column: 13, scope: !771, inlinedAt: !781)
!784 = !DILocation(line: 22, column: 13, scope: !771, inlinedAt: !781)
!785 = !DILocation(line: 19, column: 9, scope: !771, inlinedAt: !781)
!786 = !DILocation(line: 39, column: 16, scope: !748)
!787 = !DILocation(line: 39, column: 5, scope: !748)
!788 = !DILocation(line: 40, column: 2, scope: !743)
!789 = distinct !DISubprogram(name: "panic", linkageName: "_ZN4core9panicking5panic17h07405d6be4bce887E", scope: !791, file: !790, line: 39, type: !792, scopeLine: 39, flags: DIFlagPrototyped | DIFlagNoReturn, spFlags: DISPFlagDefinition | DISPFlagOptimized, unit: !26, templateParams: !28, retainedNodes: !28)
!790 = !DIFile(filename: "library/core/src/panicking.rs", directory: "/rustc/2fd73fabe469357a12c2c974c140f67e7cdd76d0/", checksumkind: CSK_MD5, checksum: "10dfc2feb63a9eaaccae13649da4c2f4")
!791 = !DINamespace(name: "panicking", scope: !12)
!792 = !DISubroutineType(types: !28)
!793 = !DILocation(line: 50, column: 15, scope: !789)
!794 = !DILocation(line: 50, column: 39, scope: !789)
!795 = !DILocation(line: 314, column: 9, scope: !796, inlinedAt: !799)
!796 = distinct !DISubprogram(name: "new_v1", linkageName: "_ZN4core3fmt9Arguments6new_v117hb7d5c859a9eeb48fE", scope: !798, file: !797, line: 313, type: !792, scopeLine: 313, flags: DIFlagPrototyped, spFlags: DISPFlagLocalToUnit | DISPFlagDefinition | DISPFlagOptimized, unit: !26, templateParams: !28, retainedNodes: !28)
!797 = !DIFile(filename: "library/core/src/fmt/mod.rs", directory: "/rustc/2fd73fabe469357a12c2c974c140f67e7cdd76d0/", checksumkind: CSK_MD5, checksum: "9c2303bc954c30225b64b2e88dce24d2")
!798 = !DINamespace(name: "Arguments", scope: !20)
!799 = distinct !DILocation(line: 50, column: 15, scope: !789)
!800 = !{!801}
!801 = distinct !{!801, !802, !"_ZN4core3fmt9Arguments6new_v117hb7d5c859a9eeb48fE: argument 0"}
!802 = distinct !{!802, !"_ZN4core3fmt9Arguments6new_v117hb7d5c859a9eeb48fE"}
!803 = !{!804, !805}
!804 = distinct !{!804, !802, !"_ZN4core3fmt9Arguments6new_v117hb7d5c859a9eeb48fE: argument 1"}
!805 = distinct !{!805, !802, !"_ZN4core3fmt9Arguments6new_v117hb7d5c859a9eeb48fE: argument 2"}
!806 = !DILocation(line: 50, column: 5, scope: !789)
!807 = distinct !DISubprogram(name: "panic_fmt", linkageName: "_ZN4core9panicking9panic_fmt17hcd56f7f635f62c74E", scope: !791, file: !790, line: 77, type: !792, scopeLine: 77, flags: DIFlagPrototyped | DIFlagNoReturn, spFlags: DISPFlagDefinition | DISPFlagOptimized, unit: !26, templateParams: !28, retainedNodes: !28)
!808 = !DILocation(line: 89, column: 9, scope: !807)
!809 = !DILocation(line: 89, column: 46, scope: !807)
!810 = !DILocation(line: 86, column: 9, scope: !811, inlinedAt: !815)
!811 = distinct !DISubprogram(name: "internal_constructor", linkageName: "_ZN4core5panic9PanicInfo20internal_constructor17hdae4be701f994da1E", scope: !813, file: !812, line: 81, type: !792, scopeLine: 81, flags: DIFlagPrototyped, spFlags: DISPFlagLocalToUnit | DISPFlagDefinition | DISPFlagOptimized, unit: !26, templateParams: !28, retainedNodes: !28)
!812 = !DIFile(filename: "library/core/src/panic.rs", directory: "/rustc/2fd73fabe469357a12c2c974c140f67e7cdd76d0/", checksumkind: CSK_MD5, checksum: "4b2dd965887c76cebc0a34a2a83ddd98")
!813 = !DINamespace(name: "PanicInfo", scope: !814)
!814 = !DINamespace(name: "panic", scope: !12)
!815 = distinct !DILocation(line: 89, column: 14, scope: !807)
!816 = !{!817}
!817 = distinct !{!817, !818, !"_ZN4core5panic9PanicInfo20internal_constructor17hdae4be701f994da1E: argument 0"}
!818 = distinct !{!818, !"_ZN4core5panic9PanicInfo20internal_constructor17hdae4be701f994da1E"}
!819 = !{!820, !821}
!820 = distinct !{!820, !818, !"_ZN4core5panic9PanicInfo20internal_constructor17hdae4be701f994da1E: argument 1"}
!821 = distinct !{!821, !818, !"_ZN4core5panic9PanicInfo20internal_constructor17hdae4be701f994da1E: argument 2"}
!822 = !DILocation(line: 92, column: 14, scope: !807)
!823 = distinct !DISubprogram(name: "drop_in_place<&core::iter::adapters::copied::Copied<core::slice::iter::Iter<u8>>>", linkageName: "_ZN4core3ptr102drop_in_place$LT$$RF$core..iter..adapters..copied..Copied$LT$core..slice..iter..Iter$LT$u8$GT$$GT$$GT$17h5913dccf4681891cE", scope: !825, file: !824, line: 179, type: !792, scopeLine: 179, flags: DIFlagPrototyped, spFlags: DISPFlagLocalToUnit | DISPFlagDefinition | DISPFlagOptimized, unit: !26, templateParams: !28, retainedNodes: !28)
!824 = !DIFile(filename: "library/core/src/ptr/mod.rs", directory: "/rustc/2fd73fabe469357a12c2c974c140f67e7cdd76d0/", checksumkind: CSK_MD5, checksum: "a4f2d8ba04981bbf92ef9174cf1f1763")
!825 = !DINamespace(name: "ptr", scope: !12)
!826 = !DILocation(line: 179, column: 1, scope: !823)
!827 = distinct !DISubprogram(name: "type_id<core::panic::{{impl}}::internal_constructor::NoPayload>", linkageName: "_ZN36_$LT$T$u20$as$u20$core..any..Any$GT$7type_id17h108f63b8120e9c9cE", scope: !829, file: !828, line: 132, type: !792, scopeLine: 132, flags: DIFlagPrototyped, spFlags: DISPFlagLocalToUnit | DISPFlagDefinition | DISPFlagOptimized, unit: !26, templateParams: !28, retainedNodes: !28)
!828 = !DIFile(filename: "library/core/src/any.rs", directory: "/rustc/2fd73fabe469357a12c2c974c140f67e7cdd76d0/", checksumkind: CSK_MD5, checksum: "32c34b48413f866c45095b7ff538e0e3")
!829 = !DINamespace(name: "{{impl}}", scope: !830)
!830 = !DINamespace(name: "any", scope: !12)
!831 = !DILocation(line: 134, column: 6, scope: !827)
!832 = distinct !DISubprogram(name: "pad", linkageName: "_ZN4core3fmt9Formatter3pad17h2bed62c7a96ce09cE", scope: !833, file: !797, line: 1336, type: !792, scopeLine: 1336, flags: DIFlagPrototyped, spFlags: DISPFlagDefinition | DISPFlagOptimized, unit: !26, templateParams: !28, retainedNodes: !28)
!833 = !DINamespace(name: "Formatter", scope: !20)
!834 = !DILocation(line: 1338, column: 12, scope: !832)
!835 = !DILocation(line: 197, column: 25, scope: !836, inlinedAt: !839)
!836 = distinct !DISubprogram(name: "is_some<usize>", linkageName: "_ZN4core6option15Option$LT$T$GT$7is_some17h0d00458edc6741aeE", scope: !838, file: !837, line: 196, type: !792, scopeLine: 196, flags: DIFlagPrototyped, spFlags: DISPFlagLocalToUnit | DISPFlagDefinition | DISPFlagOptimized, unit: !26, templateParams: !28, retainedNodes: !28)
!837 = !DIFile(filename: "library/core/src/option.rs", directory: "/rustc/2fd73fabe469357a12c2c974c140f67e7cdd76d0/", checksumkind: CSK_MD5, checksum: "63a861db15ccdba113a620717737e8d8")
!838 = !DINamespace(name: "Option", scope: !87)
!839 = distinct !DILocation(line: 217, column: 10, scope: !840, inlinedAt: !841)
!840 = distinct !DISubprogram(name: "is_none<usize>", linkageName: "_ZN4core6option15Option$LT$T$GT$7is_none17h8e658527ea195174E", scope: !838, file: !837, line: 216, type: !792, scopeLine: 216, flags: DIFlagPrototyped, spFlags: DISPFlagLocalToUnit | DISPFlagDefinition | DISPFlagOptimized, unit: !26, templateParams: !28, retainedNodes: !28)
!841 = distinct !DILocation(line: 1338, column: 12, scope: !832)
!842 = !DILocation(line: 0, scope: !832)
!843 = !DILocation(line: 1343, column: 24, scope: !832)
!844 = !DILocation(line: 1339, column: 20, scope: !832)
!845 = !DILocation(line: 1, column: 1, scope: !846)
!846 = !DILexicalBlockFile(scope: !832, file: !847, discriminator: 0)
!847 = !DIFile(filename: "library/core/src/lib.rs", directory: "/rustc/2fd73fabe469357a12c2c974c140f67e7cdd76d0/", checksumkind: CSK_MD5, checksum: "99db79eefc3ccbc667de9f4b41e22e1c")
!848 = !DILocation(line: 1343, column: 29, scope: !832)
!849 = !DILocation(line: 413, column: 9, scope: !850, inlinedAt: !854)
!850 = distinct !DISubprogram(name: "as_ptr<u8>", linkageName: "_ZN4core5slice29_$LT$impl$u20$$u5b$T$u5d$$GT$6as_ptr17hec043657827772c1E", scope: !852, file: !851, line: 412, type: !792, scopeLine: 412, flags: DIFlagPrototyped, spFlags: DISPFlagLocalToUnit | DISPFlagDefinition | DISPFlagOptimized, unit: !26, templateParams: !28, retainedNodes: !28)
!851 = !DIFile(filename: "library/core/src/slice/mod.rs", directory: "/rustc/2fd73fabe469357a12c2c974c140f67e7cdd76d0/", checksumkind: CSK_MD5, checksum: "ea4e5ca9ae063a46c5941966a2eac2e5")
!852 = !DINamespace(name: "{{impl}}", scope: !853)
!853 = !DINamespace(name: "slice", scope: !12)
!854 = distinct !DILocation(line: 89, column: 19, scope: !855, inlinedAt: !859)
!855 = distinct !DISubprogram(name: "new<u8>", linkageName: "_ZN4core5slice4iter13Iter$LT$T$GT$3new17h81db886277cc9ce3E", scope: !857, file: !856, line: 88, type: !792, scopeLine: 88, flags: DIFlagPrototyped, spFlags: DISPFlagLocalToUnit | DISPFlagDefinition | DISPFlagOptimized, unit: !26, templateParams: !28, retainedNodes: !28)
!856 = !DIFile(filename: "library/core/src/slice/iter.rs", directory: "/rustc/2fd73fabe469357a12c2c974c140f67e7cdd76d0/", checksumkind: CSK_MD5, checksum: "08d4f6baf81bbaa357b07dc76bcb47a5")
!857 = !DINamespace(name: "Iter", scope: !858)
!858 = !DINamespace(name: "iter", scope: !853)
!859 = distinct !DILocation(line: 686, column: 9, scope: !860, inlinedAt: !861)
!860 = distinct !DISubprogram(name: "iter<u8>", linkageName: "_ZN4core5slice29_$LT$impl$u20$$u5b$T$u5d$$GT$4iter17hb75c712129b76290E", scope: !852, file: !851, line: 685, type: !792, scopeLine: 685, flags: DIFlagPrototyped, spFlags: DISPFlagLocalToUnit | DISPFlagDefinition | DISPFlagOptimized, unit: !26, templateParams: !28, retainedNodes: !28)
!861 = distinct !DILocation(line: 669, column: 23, scope: !862, inlinedAt: !864)
!862 = distinct !DISubprogram(name: "chars", linkageName: "_ZN4core3str21_$LT$impl$u20$str$GT$5chars17h4b1313cdffaddab1E", scope: !757, file: !863, line: 668, type: !792, scopeLine: 668, flags: DIFlagPrototyped, spFlags: DISPFlagLocalToUnit | DISPFlagDefinition | DISPFlagOptimized, unit: !26, templateParams: !28, retainedNodes: !28)
!863 = !DIFile(filename: "library/core/src/str/mod.rs", directory: "/rustc/2fd73fabe469357a12c2c974c140f67e7cdd76d0/", checksumkind: CSK_MD5, checksum: "288711a6cf0e0d8143d78b5fe87cac66")
!864 = distinct !DILocation(line: 726, column: 46, scope: !865, inlinedAt: !866)
!865 = distinct !DISubprogram(name: "char_indices", linkageName: "_ZN4core3str21_$LT$impl$u20$str$GT$12char_indices17hcbdc5d30860cc4c0E", scope: !757, file: !863, line: 725, type: !792, scopeLine: 725, flags: DIFlagPrototyped, spFlags: DISPFlagLocalToUnit | DISPFlagDefinition | DISPFlagOptimized, unit: !26, templateParams: !28, retainedNodes: !28)
!866 = distinct !DILocation(line: 1347, column: 35, scope: !832)
!867 = !DILocation(line: 225, column: 18, scope: !868, inlinedAt: !872)
!868 = distinct !DISubprogram(name: "offset<u8>", linkageName: "_ZN4core3ptr9const_ptr33_$LT$impl$u20$$BP$const$u20$T$GT$6offset17h1c1dd0a334f9f4bbE", scope: !870, file: !869, line: 220, type: !792, scopeLine: 220, flags: DIFlagPrototyped, spFlags: DISPFlagLocalToUnit | DISPFlagDefinition | DISPFlagOptimized, unit: !26, templateParams: !28, retainedNodes: !28)
!869 = !DIFile(filename: "library/core/src/ptr/const_ptr.rs", directory: "/rustc/2fd73fabe469357a12c2c974c140f67e7cdd76d0/", checksumkind: CSK_MD5, checksum: "d71a4e6613312479d99761d4ddd6f5e6")
!870 = !DINamespace(name: "{{impl}}", scope: !871)
!871 = !DINamespace(name: "const_ptr", scope: !825)
!872 = distinct !DILocation(line: 503, column: 18, scope: !873, inlinedAt: !874)
!873 = distinct !DISubprogram(name: "add<u8>", linkageName: "_ZN4core3ptr9const_ptr33_$LT$impl$u20$$BP$const$u20$T$GT$3add17he5b49f08637a9fcdE", scope: !870, file: !869, line: 498, type: !792, scopeLine: 498, flags: DIFlagPrototyped, spFlags: DISPFlagLocalToUnit | DISPFlagDefinition | DISPFlagOptimized, unit: !26, templateParams: !28, retainedNodes: !28)
!874 = distinct !DILocation(line: 97, column: 17, scope: !855, inlinedAt: !859)
!875 = !DILocation(line: 726, column: 9, scope: !865, inlinedAt: !866)
!876 = !DILocation(line: 1258, column: 52, scope: !877, inlinedAt: !879)
!877 = distinct !DISubprogram(name: "lt", linkageName: "_ZN4core3cmp5impls57_$LT$impl$u20$core..cmp..PartialOrd$u20$for$u20$usize$GT$2lt17h3d6b8eae00df6b0eE", scope: !466, file: !878, line: 1258, type: !792, scopeLine: 1258, flags: DIFlagPrototyped, spFlags: DISPFlagLocalToUnit | DISPFlagDefinition | DISPFlagOptimized, unit: !26, templateParams: !28, retainedNodes: !28)
!878 = !DIFile(filename: "library/core/src/cmp.rs", directory: "/rustc/2fd73fabe469357a12c2c974c140f67e7cdd76d0/", checksumkind: CSK_MD5, checksum: "216266272664f97bdd75a5a9e6b6ecd6")
!879 = distinct !DILocation(line: 507, column: 12, scope: !880, inlinedAt: !882)
!880 = distinct !DISubprogram(name: "next<usize>", linkageName: "_ZN4core4iter5range101_$LT$impl$u20$core..iter..traits..iterator..Iterator$u20$for$u20$core..ops..range..Range$LT$A$GT$$GT$4next17h0bf75b0d411aaeceE", scope: !452, file: !881, line: 506, type: !792, scopeLine: 506, flags: DIFlagPrototyped, spFlags: DISPFlagLocalToUnit | DISPFlagDefinition | DISPFlagOptimized, unit: !26, templateParams: !28, retainedNodes: !28)
!881 = !DIFile(filename: "library/core/src/iter/range.rs", directory: "/rustc/2fd73fabe469357a12c2c974c140f67e7cdd76d0/", checksumkind: CSK_MD5, checksum: "fe23579df17f109f3dfee33f341ff9d4")
!882 = distinct !DILocation(line: 317, column: 18, scope: !883, inlinedAt: !887)
!883 = distinct !DISubprogram(name: "advance_by<core::str::iter::CharIndices>", linkageName: "_ZN4core4iter6traits8iterator8Iterator10advance_by17hce5eec63a666c7f1E", scope: !885, file: !884, line: 316, type: !792, scopeLine: 316, flags: DIFlagPrototyped, spFlags: DISPFlagLocalToUnit | DISPFlagDefinition | DISPFlagOptimized, unit: !26, templateParams: !28, retainedNodes: !28)
!884 = !DIFile(filename: "library/core/src/iter/traits/iterator.rs", directory: "/rustc/2fd73fabe469357a12c2c974c140f67e7cdd76d0/", checksumkind: CSK_MD5, checksum: "57122a61091a960b8f938b9d755eb152")
!885 = !DINamespace(name: "Iterator", scope: !886)
!886 = !DINamespace(name: "iterator", scope: !633)
!887 = distinct !DILocation(line: 365, column: 9, scope: !888, inlinedAt: !889)
!888 = distinct !DISubprogram(name: "nth<core::str::iter::CharIndices>", linkageName: "_ZN4core4iter6traits8iterator8Iterator3nth17h98581092e3138f8fE", scope: !885, file: !884, line: 364, type: !792, scopeLine: 364, flags: DIFlagPrototyped, spFlags: DISPFlagLocalToUnit | DISPFlagDefinition | DISPFlagOptimized, unit: !26, templateParams: !28, retainedNodes: !28)
!889 = distinct !DILocation(line: 1347, column: 35, scope: !832)
!890 = !DILocation(line: 507, column: 9, scope: !880, inlinedAt: !882)
!891 = !DILocation(line: 120, column: 17, scope: !892, inlinedAt: !895)
!892 = distinct !DISubprogram(name: "len<u8>", linkageName: "_ZN102_$LT$core..slice..iter..Iter$LT$T$GT$$u20$as$u20$core..iter..traits..exact_size..ExactSizeIterator$GT$3len17h364a26d660fd6fc5E", scope: !894, file: !893, line: 119, type: !792, scopeLine: 119, flags: DIFlagPrototyped, spFlags: DISPFlagLocalToUnit | DISPFlagDefinition | DISPFlagOptimized, unit: !26, templateParams: !28, retainedNodes: !28)
!893 = !DIFile(filename: "library/core/src/slice/iter/macros.rs", directory: "/rustc/2fd73fabe469357a12c2c974c140f67e7cdd76d0/", checksumkind: CSK_MD5, checksum: "266ebb44ab377576d1a98b8489d2e376")
!894 = !DINamespace(name: "{{impl}}", scope: !858)
!895 = distinct !DILocation(line: 139, column: 23, scope: !896, inlinedAt: !900)
!896 = distinct !DISubprogram(name: "next", linkageName: "_ZN87_$LT$core..str..iter..CharIndices$u20$as$u20$core..iter..traits..iterator..Iterator$GT$4next17hc371463d9aa7efb6E", scope: !898, file: !897, line: 138, type: !792, scopeLine: 138, flags: DIFlagPrototyped, spFlags: DISPFlagLocalToUnit | DISPFlagDefinition | DISPFlagOptimized, unit: !26, templateParams: !28, retainedNodes: !28)
!897 = !DIFile(filename: "library/core/src/str/iter.rs", directory: "/rustc/2fd73fabe469357a12c2c974c140f67e7cdd76d0/", checksumkind: CSK_MD5, checksum: "8055b616800f57c518f5f60619f42e9e")
!898 = !DINamespace(name: "{{impl}}", scope: !899)
!899 = !DINamespace(name: "iter", scope: !758)
!900 = distinct !DILocation(line: 318, column: 13, scope: !883, inlinedAt: !887)
!901 = !DILocation(line: 434, column: 22, scope: !902, inlinedAt: !904)
!902 = distinct !DISubprogram(name: "unchecked_add", linkageName: "_ZN4core3num23_$LT$impl$u20$usize$GT$13unchecked_add17h3e5d5637a609f3aeE", scope: !577, file: !903, line: 431, type: !792, scopeLine: 431, flags: DIFlagPrototyped, spFlags: DISPFlagLocalToUnit | DISPFlagDefinition | DISPFlagOptimized, unit: !26, templateParams: !28, retainedNodes: !28)
!903 = !DIFile(filename: "library/core/src/num/uint_macros.rs", directory: "/rustc/2fd73fabe469357a12c2c974c140f67e7cdd76d0/", checksumkind: CSK_MD5, checksum: "5308d1208452a53e75e28bb7633fba69")
!904 = distinct !DILocation(line: 193, column: 22, scope: !905, inlinedAt: !906)
!905 = distinct !DISubprogram(name: "forward_unchecked", linkageName: "_ZN49_$LT$usize$u20$as$u20$core..iter..range..Step$GT$17forward_unchecked17h8eeb84e4142205c4E", scope: !452, file: !881, line: 191, type: !792, scopeLine: 191, flags: DIFlagPrototyped, spFlags: DISPFlagLocalToUnit | DISPFlagDefinition | DISPFlagOptimized, unit: !26, templateParams: !28, retainedNodes: !28)
!906 = distinct !DILocation(line: 509, column: 30, scope: !880, inlinedAt: !882)
!907 = !DILocation(line: 146, column: 24, scope: !908, inlinedAt: !909)
!908 = distinct !DISubprogram(name: "next<u8>", linkageName: "_ZN91_$LT$core..slice..iter..Iter$LT$T$GT$$u20$as$u20$core..iter..traits..iterator..Iterator$GT$4next17hbda8889c62ad52a6E", scope: !894, file: !893, line: 134, type: !792, scopeLine: 134, flags: DIFlagPrototyped, spFlags: DISPFlagLocalToUnit | DISPFlagDefinition | DISPFlagOptimized, unit: !26, templateParams: !28, retainedNodes: !28)
!909 = distinct !DILocation(line: 42, column: 14, scope: !910, inlinedAt: !913)
!910 = distinct !DISubprogram(name: "next_code_point<core::slice::iter::Iter<u8>>", linkageName: "_ZN4core3str11validations15next_code_point17hd029942aff2f09c0E", scope: !912, file: !911, line: 40, type: !792, scopeLine: 40, flags: DIFlagPrototyped, spFlags: DISPFlagLocalToUnit | DISPFlagDefinition | DISPFlagOptimized, unit: !26, templateParams: !28, retainedNodes: !28)
!911 = !DIFile(filename: "library/core/src/str/validations.rs", directory: "/rustc/2fd73fabe469357a12c2c974c140f67e7cdd76d0/", checksumkind: CSK_MD5, checksum: "e16ec20c9856918c50ffdc08694a8084")
!912 = !DINamespace(name: "validations", scope: !758)
!913 = distinct !DILocation(line: 41, column: 9, scope: !914, inlinedAt: !915)
!914 = distinct !DISubprogram(name: "next", linkageName: "_ZN81_$LT$core..str..iter..Chars$u20$as$u20$core..iter..traits..iterator..Iterator$GT$4next17hfd848827f3ee829eE", scope: !898, file: !897, line: 40, type: !792, scopeLine: 40, flags: DIFlagPrototyped, spFlags: DISPFlagLocalToUnit | DISPFlagDefinition | DISPFlagOptimized, unit: !26, templateParams: !28, retainedNodes: !28)
!915 = distinct !DILocation(line: 140, column: 15, scope: !896, inlinedAt: !900)
!916 = !DILocation(line: 146, column: 21, scope: !908, inlinedAt: !909)
!917 = !DILocation(line: 232, column: 18, scope: !918, inlinedAt: !922)
!918 = distinct !DISubprogram(name: "offset<u8>", linkageName: "_ZN4core3ptr7mut_ptr31_$LT$impl$u20$$BP$mut$u20$T$GT$6offset17h05836a60a0e6540cE", scope: !920, file: !919, line: 225, type: !792, scopeLine: 225, flags: DIFlagPrototyped, spFlags: DISPFlagLocalToUnit | DISPFlagDefinition | DISPFlagOptimized, unit: !26, templateParams: !28, retainedNodes: !28)
!919 = !DIFile(filename: "library/core/src/ptr/mut_ptr.rs", directory: "/rustc/2fd73fabe469357a12c2c974c140f67e7cdd76d0/", checksumkind: CSK_MD5, checksum: "22ecfe91f60034415df864f724ba4d3c")
!920 = !DINamespace(name: "{{impl}}", scope: !921)
!921 = !DINamespace(name: "mut_ptr", scope: !825)
!922 = distinct !DILocation(line: 93, column: 64, scope: !923, inlinedAt: !924)
!923 = distinct !DISubprogram(name: "post_inc_start<u8>", linkageName: "_ZN4core5slice4iter13Iter$LT$T$GT$14post_inc_start17h0c50b131f8045207E", scope: !857, file: !893, line: 85, type: !792, scopeLine: 85, flags: DIFlagPrototyped, spFlags: DISPFlagLocalToUnit | DISPFlagDefinition | DISPFlagOptimized, unit: !26, templateParams: !28, retainedNodes: !28)
!924 = distinct !DILocation(line: 149, column: 30, scope: !908, inlinedAt: !909)
!925 = !DILocation(line: 42, column: 13, scope: !910, inlinedAt: !913)
!926 = !DILocation(line: 43, column: 8, scope: !910, inlinedAt: !913)
!927 = !DILocation(line: 43, column: 5, scope: !910, inlinedAt: !913)
!928 = !DILocation(line: 12, column: 5, scope: !929, inlinedAt: !930)
!929 = distinct !DISubprogram(name: "utf8_first_byte", linkageName: "_ZN4core3str11validations15utf8_first_byte17h0270ecd702bb22bcE", scope: !912, file: !911, line: 11, type: !792, scopeLine: 11, flags: DIFlagPrototyped, spFlags: DISPFlagLocalToUnit | DISPFlagDefinition | DISPFlagOptimized, unit: !26, templateParams: !28, retainedNodes: !28)
!930 = distinct !DILocation(line: 50, column: 16, scope: !910, inlinedAt: !913)
!931 = !DILocation(line: 146, column: 24, scope: !908, inlinedAt: !932)
!932 = distinct !DILocation(line: 51, column: 25, scope: !910, inlinedAt: !913)
!933 = !DILocation(line: 146, column: 21, scope: !908, inlinedAt: !932)
!934 = !DILocation(line: 232, column: 18, scope: !918, inlinedAt: !935)
!935 = distinct !DILocation(line: 93, column: 64, scope: !923, inlinedAt: !936)
!936 = distinct !DILocation(line: 149, column: 30, scope: !908, inlinedAt: !932)
!937 = !DILocation(line: 31, column: 15, scope: !938, inlinedAt: !939)
!938 = distinct !DISubprogram(name: "unwrap_or_0", linkageName: "_ZN4core3str11validations11unwrap_or_017h0716beeff08d3060E", scope: !912, file: !911, line: 29, type: !792, scopeLine: 29, flags: DIFlagPrototyped, spFlags: DISPFlagLocalToUnit | DISPFlagDefinition | DISPFlagOptimized, unit: !26, templateParams: !28, retainedNodes: !28)
!939 = distinct !DILocation(line: 51, column: 13, scope: !910, inlinedAt: !913)
!940 = !{!941}
!941 = distinct !{!941, !942, !"_ZN4core3str11validations11unwrap_or_017h0716beeff08d3060E: argument 0"}
!942 = distinct !{!942, !"_ZN4core3str11validations11unwrap_or_017h0716beeff08d3060E"}
!943 = !DILocation(line: 30, column: 5, scope: !938, inlinedAt: !939)
!944 = !DILocation(line: 53, column: 8, scope: !910, inlinedAt: !913)
!945 = !DILocation(line: 53, column: 5, scope: !910, inlinedAt: !913)
!946 = !DILocation(line: 146, column: 24, scope: !908, inlinedAt: !947)
!947 = distinct !DILocation(line: 56, column: 29, scope: !910, inlinedAt: !913)
!948 = !DILocation(line: 146, column: 21, scope: !908, inlinedAt: !947)
!949 = !DILocation(line: 232, column: 18, scope: !918, inlinedAt: !950)
!950 = distinct !DILocation(line: 93, column: 64, scope: !923, inlinedAt: !951)
!951 = distinct !DILocation(line: 149, column: 30, scope: !908, inlinedAt: !947)
!952 = !DILocation(line: 31, column: 15, scope: !938, inlinedAt: !953)
!953 = distinct !DILocation(line: 56, column: 17, scope: !910, inlinedAt: !913)
!954 = !{!955}
!955 = distinct !{!955, !956, !"_ZN4core3str11validations11unwrap_or_017h0716beeff08d3060E: argument 0"}
!956 = distinct !{!956, !"_ZN4core3str11validations11unwrap_or_017h0716beeff08d3060E"}
!957 = !DILocation(line: 30, column: 5, scope: !938, inlinedAt: !953)
!958 = !DILocation(line: 59, column: 12, scope: !910, inlinedAt: !913)
!959 = !DILocation(line: 59, column: 9, scope: !910, inlinedAt: !913)
!960 = !DILocation(line: 146, column: 24, scope: !908, inlinedAt: !961)
!961 = distinct !DILocation(line: 62, column: 33, scope: !910, inlinedAt: !913)
!962 = !DILocation(line: 146, column: 21, scope: !908, inlinedAt: !961)
!963 = !DILocation(line: 232, column: 18, scope: !918, inlinedAt: !964)
!964 = distinct !DILocation(line: 93, column: 64, scope: !923, inlinedAt: !965)
!965 = distinct !DILocation(line: 149, column: 30, scope: !908, inlinedAt: !961)
!966 = !DILocation(line: 31, column: 15, scope: !938, inlinedAt: !967)
!967 = distinct !DILocation(line: 62, column: 21, scope: !910, inlinedAt: !913)
!968 = !{!969}
!969 = distinct !{!969, !970, !"_ZN4core3str11validations11unwrap_or_017h0716beeff08d3060E: argument 0"}
!970 = distinct !{!970, !"_ZN4core3str11validations11unwrap_or_017h0716beeff08d3060E"}
!971 = !DILocation(line: 30, column: 5, scope: !938, inlinedAt: !967)
!972 = !DILocation(line: 63, column: 18, scope: !910, inlinedAt: !913)
!973 = !DILocation(line: 18, column: 5, scope: !974, inlinedAt: !975)
!974 = distinct !DISubprogram(name: "utf8_acc_cont_byte", linkageName: "_ZN4core3str11validations18utf8_acc_cont_byte17h7f2e515d032edf12E", scope: !912, file: !911, line: 17, type: !792, scopeLine: 17, flags: DIFlagPrototyped, spFlags: DISPFlagLocalToUnit | DISPFlagDefinition | DISPFlagOptimized, unit: !26, templateParams: !28, retainedNodes: !28)
!975 = distinct !DILocation(line: 63, column: 37, scope: !910, inlinedAt: !913)
!976 = !DILocation(line: 63, column: 13, scope: !910, inlinedAt: !913)
!977 = !DILocation(line: 141, column: 13, scope: !896, inlinedAt: !900)
!978 = !DILocation(line: 145, column: 38, scope: !896, inlinedAt: !900)
!979 = !DILocation(line: 145, column: 17, scope: !896, inlinedAt: !900)
!980 = !DILocation(line: 120, column: 17, scope: !892, inlinedAt: !981)
!981 = distinct !DILocation(line: 139, column: 23, scope: !896, inlinedAt: !982)
!982 = distinct !DILocation(line: 366, column: 9, scope: !888, inlinedAt: !889)
!983 = !DILocation(line: 146, column: 24, scope: !908, inlinedAt: !984)
!984 = distinct !DILocation(line: 42, column: 14, scope: !910, inlinedAt: !985)
!985 = distinct !DILocation(line: 41, column: 9, scope: !914, inlinedAt: !986)
!986 = distinct !DILocation(line: 140, column: 15, scope: !896, inlinedAt: !982)
!987 = !DILocation(line: 146, column: 21, scope: !908, inlinedAt: !984)
!988 = !DILocation(line: 232, column: 18, scope: !918, inlinedAt: !989)
!989 = distinct !DILocation(line: 93, column: 64, scope: !923, inlinedAt: !990)
!990 = distinct !DILocation(line: 149, column: 30, scope: !908, inlinedAt: !984)
!991 = !DILocation(line: 42, column: 13, scope: !910, inlinedAt: !985)
!992 = !DILocation(line: 43, column: 8, scope: !910, inlinedAt: !985)
!993 = !DILocation(line: 43, column: 5, scope: !910, inlinedAt: !985)
!994 = !DILocation(line: 12, column: 5, scope: !929, inlinedAt: !995)
!995 = distinct !DILocation(line: 50, column: 16, scope: !910, inlinedAt: !985)
!996 = !DILocation(line: 146, column: 24, scope: !908, inlinedAt: !997)
!997 = distinct !DILocation(line: 51, column: 25, scope: !910, inlinedAt: !985)
!998 = !DILocation(line: 146, column: 21, scope: !908, inlinedAt: !997)
!999 = !DILocation(line: 232, column: 18, scope: !918, inlinedAt: !1000)
!1000 = distinct !DILocation(line: 93, column: 64, scope: !923, inlinedAt: !1001)
!1001 = distinct !DILocation(line: 149, column: 30, scope: !908, inlinedAt: !997)
!1002 = !DILocation(line: 31, column: 15, scope: !938, inlinedAt: !1003)
!1003 = distinct !DILocation(line: 51, column: 13, scope: !910, inlinedAt: !985)
!1004 = !{!1005}
!1005 = distinct !{!1005, !1006, !"_ZN4core3str11validations11unwrap_or_017h0716beeff08d3060E: argument 0"}
!1006 = distinct !{!1006, !"_ZN4core3str11validations11unwrap_or_017h0716beeff08d3060E"}
!1007 = !DILocation(line: 30, column: 5, scope: !938, inlinedAt: !1003)
!1008 = !DILocation(line: 53, column: 8, scope: !910, inlinedAt: !985)
!1009 = !DILocation(line: 53, column: 5, scope: !910, inlinedAt: !985)
!1010 = !DILocation(line: 146, column: 24, scope: !908, inlinedAt: !1011)
!1011 = distinct !DILocation(line: 56, column: 29, scope: !910, inlinedAt: !985)
!1012 = !DILocation(line: 146, column: 21, scope: !908, inlinedAt: !1011)
!1013 = !DILocation(line: 232, column: 18, scope: !918, inlinedAt: !1014)
!1014 = distinct !DILocation(line: 93, column: 64, scope: !923, inlinedAt: !1015)
!1015 = distinct !DILocation(line: 149, column: 30, scope: !908, inlinedAt: !1011)
!1016 = !DILocation(line: 31, column: 15, scope: !938, inlinedAt: !1017)
!1017 = distinct !DILocation(line: 56, column: 17, scope: !910, inlinedAt: !985)
!1018 = !{!1019}
!1019 = distinct !{!1019, !1020, !"_ZN4core3str11validations11unwrap_or_017h0716beeff08d3060E: argument 0"}
!1020 = distinct !{!1020, !"_ZN4core3str11validations11unwrap_or_017h0716beeff08d3060E"}
!1021 = !DILocation(line: 30, column: 5, scope: !938, inlinedAt: !1017)
!1022 = !DILocation(line: 18, column: 5, scope: !974, inlinedAt: !1023)
!1023 = distinct !DILocation(line: 57, column: 19, scope: !910, inlinedAt: !985)
!1024 = !DILocation(line: 59, column: 12, scope: !910, inlinedAt: !985)
!1025 = !DILocation(line: 59, column: 9, scope: !910, inlinedAt: !985)
!1026 = !DILocation(line: 146, column: 24, scope: !908, inlinedAt: !1027)
!1027 = distinct !DILocation(line: 62, column: 33, scope: !910, inlinedAt: !985)
!1028 = !DILocation(line: 146, column: 21, scope: !908, inlinedAt: !1027)
!1029 = !DILocation(line: 31, column: 15, scope: !938, inlinedAt: !1030)
!1030 = distinct !DILocation(line: 62, column: 21, scope: !910, inlinedAt: !985)
!1031 = !{!1032}
!1032 = distinct !{!1032, !1033, !"_ZN4core3str11validations11unwrap_or_017h0716beeff08d3060E: argument 0"}
!1033 = distinct !{!1033, !"_ZN4core3str11validations11unwrap_or_017h0716beeff08d3060E"}
!1034 = !DILocation(line: 30, column: 5, scope: !938, inlinedAt: !1030)
!1035 = !DILocation(line: 63, column: 18, scope: !910, inlinedAt: !985)
!1036 = !DILocation(line: 18, column: 5, scope: !974, inlinedAt: !1037)
!1037 = distinct !DILocation(line: 63, column: 37, scope: !910, inlinedAt: !985)
!1038 = !DILocation(line: 63, column: 13, scope: !910, inlinedAt: !985)
!1039 = !DILocation(line: 141, column: 13, scope: !896, inlinedAt: !982)
!1040 = !DILocation(line: 198, column: 12, scope: !1041, inlinedAt: !1042)
!1041 = distinct !DISubprogram(name: "is_char_boundary", linkageName: "_ZN4core3str21_$LT$impl$u20$str$GT$16is_char_boundary17haa9571033010a3a8E", scope: !757, file: !863, line: 194, type: !792, scopeLine: 194, flags: DIFlagPrototyped, spFlags: DISPFlagLocalToUnit | DISPFlagDefinition | DISPFlagOptimized, unit: !26, templateParams: !28, retainedNodes: !28)
!1042 = distinct !DILocation(line: 254, column: 12, scope: !1043, inlinedAt: !1047)
!1043 = distinct !DISubprogram(name: "get", linkageName: "_ZN4core3str6traits110_$LT$impl$u20$core..slice..index..SliceIndex$LT$str$GT$$u20$for$u20$core..ops..range..RangeTo$LT$usize$GT$$GT$3get17hb823ec957df4841aE", scope: !1045, file: !1044, line: 253, type: !792, scopeLine: 253, flags: DIFlagPrototyped, spFlags: DISPFlagLocalToUnit | DISPFlagDefinition | DISPFlagOptimized, unit: !26, templateParams: !28, retainedNodes: !28)
!1044 = !DIFile(filename: "library/core/src/str/traits.rs", directory: "/rustc/2fd73fabe469357a12c2c974c140f67e7cdd76d0/", checksumkind: CSK_MD5, checksum: "3b697248333519e13151d770feb6eae5")
!1045 = !DINamespace(name: "{{impl}}", scope: !1046)
!1046 = !DINamespace(name: "traits", scope: !758)
!1047 = distinct !DILocation(line: 337, column: 9, scope: !1048, inlinedAt: !1049)
!1048 = distinct !DISubprogram(name: "get<core::ops::range::RangeTo<usize>>", linkageName: "_ZN4core3str21_$LT$impl$u20$str$GT$3get17h0a0bf8a5893bf6feE", scope: !757, file: !863, line: 336, type: !792, scopeLine: 336, flags: DIFlagPrototyped, spFlags: DISPFlagLocalToUnit | DISPFlagDefinition | DISPFlagOptimized, unit: !26, templateParams: !28, retainedNodes: !28)
!1049 = distinct !DILocation(line: 1352, column: 17, scope: !832)
!1050 = !DILocation(line: 155, column: 12, scope: !1051, inlinedAt: !1055)
!1051 = distinct !DISubprogram(name: "get<u8>", linkageName: "_ZN75_$LT$usize$u20$as$u20$core..slice..index..SliceIndex$LT$$u5b$T$u5d$$GT$$GT$3get17hd8c38f92ada8fffcE", scope: !1053, file: !1052, line: 153, type: !792, scopeLine: 153, flags: DIFlagPrototyped, spFlags: DISPFlagLocalToUnit | DISPFlagDefinition | DISPFlagOptimized, unit: !26, templateParams: !28, retainedNodes: !28)
!1052 = !DIFile(filename: "library/core/src/slice/index.rs", directory: "/rustc/2fd73fabe469357a12c2c974c140f67e7cdd76d0/", checksumkind: CSK_MD5, checksum: "05d32fa54efed7351250bd83b0024732")
!1053 = !DINamespace(name: "{{impl}}", scope: !1054)
!1054 = !DINamespace(name: "index", scope: !853)
!1055 = distinct !DILocation(line: 286, column: 9, scope: !1056, inlinedAt: !1057)
!1056 = distinct !DISubprogram(name: "get<u8,usize>", linkageName: "_ZN4core5slice29_$LT$impl$u20$$u5b$T$u5d$$GT$3get17h627242adb2637e33E", scope: !852, file: !851, line: 282, type: !792, scopeLine: 282, flags: DIFlagPrototyped, spFlags: DISPFlagLocalToUnit | DISPFlagDefinition | DISPFlagOptimized, unit: !26, templateParams: !28, retainedNodes: !28)
!1057 = distinct !DILocation(line: 201, column: 15, scope: !1041, inlinedAt: !1042)
!1058 = !DILocation(line: 202, column: 13, scope: !1041, inlinedAt: !1042)
!1059 = !DILocation(line: 204, column: 19, scope: !1041, inlinedAt: !1042)
!1060 = !{!1061, !1063, !1065}
!1061 = distinct !{!1061, !1062, !"_ZN4core3str21_$LT$impl$u20$str$GT$16is_char_boundary17haa9571033010a3a8E: argument 0"}
!1062 = distinct !{!1062, !"_ZN4core3str21_$LT$impl$u20$str$GT$16is_char_boundary17haa9571033010a3a8E"}
!1063 = distinct !{!1063, !1064, !"_ZN4core3str6traits110_$LT$impl$u20$core..slice..index..SliceIndex$LT$str$GT$$u20$for$u20$core..ops..range..RangeTo$LT$usize$GT$$GT$3get17hb823ec957df4841aE: argument 0"}
!1064 = distinct !{!1064, !"_ZN4core3str6traits110_$LT$impl$u20$core..slice..index..SliceIndex$LT$str$GT$$u20$for$u20$core..ops..range..RangeTo$LT$usize$GT$$GT$3get17hb823ec957df4841aE"}
!1065 = distinct !{!1065, !1066, !"_ZN4core3str21_$LT$impl$u20$str$GT$3get17h0a0bf8a5893bf6feE: argument 0"}
!1066 = distinct !{!1066, !"_ZN4core3str21_$LT$impl$u20$str$GT$3get17h0a0bf8a5893bf6feE"}
!1067 = !DILocation(line: 204, column: 25, scope: !1041, inlinedAt: !1042)
!1068 = !DILocation(line: 254, column: 9, scope: !1043, inlinedAt: !1047)
!1069 = !DILocation(line: 0, scope: !1043, inlinedAt: !1047)
!1070 = !DILocation(line: 408, column: 13, scope: !1071, inlinedAt: !1072)
!1071 = distinct !DISubprogram(name: "unwrap_or<&str>", linkageName: "_ZN4core6option15Option$LT$T$GT$9unwrap_or17h224ebfb4fa0ac9c3E", scope: !838, file: !837, line: 406, type: !792, scopeLine: 406, flags: DIFlagPrototyped, spFlags: DISPFlagLocalToUnit | DISPFlagDefinition | DISPFlagOptimized, unit: !26, templateParams: !28, retainedNodes: !28)
!1072 = distinct !DILocation(line: 1352, column: 17, scope: !832)
!1073 = !DILocation(line: 1347, column: 13, scope: !832)
!1074 = !DILocation(line: 1363, column: 13, scope: !832)
!1075 = !DILocation(line: 1363, column: 21, scope: !832)
!1076 = !DILocation(line: 1360, column: 9, scope: !832)
!1077 = !DILocation(line: 1366, column: 18, scope: !832)
!1078 = !DILocation(line: 413, column: 9, scope: !850, inlinedAt: !1079)
!1079 = distinct !DILocation(line: 89, column: 19, scope: !855, inlinedAt: !1080)
!1080 = distinct !DILocation(line: 686, column: 9, scope: !860, inlinedAt: !1081)
!1081 = distinct !DILocation(line: 669, column: 23, scope: !862, inlinedAt: !1082)
!1082 = distinct !DILocation(line: 1366, column: 28, scope: !832)
!1083 = !DILocation(line: 225, column: 18, scope: !868, inlinedAt: !1084)
!1084 = distinct !DILocation(line: 503, column: 18, scope: !873, inlinedAt: !1085)
!1085 = distinct !DILocation(line: 97, column: 17, scope: !855, inlinedAt: !1080)
!1086 = !DILocation(line: 146, column: 24, scope: !908, inlinedAt: !1087)
!1087 = distinct !DILocation(line: 2123, column: 29, scope: !1088, inlinedAt: !1089)
!1088 = distinct !DISubprogram(name: "fold<core::slice::iter::Iter<u8>,usize,closure-0>", linkageName: "_ZN4core4iter6traits8iterator8Iterator4fold17h904537b71d58414aE", scope: !885, file: !884, line: 2117, type: !792, scopeLine: 2117, flags: DIFlagPrototyped, spFlags: DISPFlagLocalToUnit | DISPFlagDefinition | DISPFlagOptimized, unit: !26, templateParams: !28, retainedNodes: !28)
!1089 = distinct !DILocation(line: 120, column: 9, scope: !1090, inlinedAt: !1095)
!1090 = distinct !DISubprogram(name: "fold<usize,core::slice::iter::Iter<u8>,closure-0,usize,fn(usize, usize) -> usize>", linkageName: "_ZN102_$LT$core..iter..adapters..map..Map$LT$I$C$F$GT$$u20$as$u20$core..iter..traits..iterator..Iterator$GT$4fold17h89da0f292d288effE", scope: !1092, file: !1091, line: 116, type: !792, scopeLine: 116, flags: DIFlagPrototyped, spFlags: DISPFlagLocalToUnit | DISPFlagDefinition | DISPFlagOptimized, unit: !26, templateParams: !28, retainedNodes: !28)
!1091 = !DIFile(filename: "library/core/src/iter/adapters/map.rs", directory: "/rustc/2fd73fabe469357a12c2c974c140f67e7cdd76d0/", checksumkind: CSK_MD5, checksum: "921a8c57f1859f00379dcd09753faa36")
!1092 = !DINamespace(name: "{{impl}}", scope: !1093)
!1093 = !DINamespace(name: "map", scope: !1094)
!1094 = !DINamespace(name: "adapters", scope: !454)
!1095 = distinct !DILocation(line: 46, column: 17, scope: !1096, inlinedAt: !1100)
!1096 = distinct !DISubprogram(name: "sum<core::iter::adapters::map::Map<core::slice::iter::Iter<u8>, closure-0>>", linkageName: "_ZN56_$LT$usize$u20$as$u20$core..iter..traits..accum..Sum$GT$3sum17hc8e167b5aab06543E", scope: !1098, file: !1097, line: 45, type: !792, scopeLine: 45, flags: DIFlagPrototyped, spFlags: DISPFlagLocalToUnit | DISPFlagDefinition | DISPFlagOptimized, unit: !26, templateParams: !28, retainedNodes: !28)
!1097 = !DIFile(filename: "library/core/src/iter/traits/accum.rs", directory: "/rustc/2fd73fabe469357a12c2c974c140f67e7cdd76d0/", checksumkind: CSK_MD5, checksum: "8d6d3359cea4f565271413105db5b30c")
!1098 = !DINamespace(name: "{{impl}}", scope: !1099)
!1099 = !DINamespace(name: "accum", scope: !633)
!1100 = distinct !DILocation(line: 2925, column: 9, scope: !1101, inlinedAt: !1102)
!1101 = distinct !DISubprogram(name: "sum<core::iter::adapters::map::Map<core::slice::iter::Iter<u8>, closure-0>,usize>", linkageName: "_ZN4core4iter6traits8iterator8Iterator3sum17h9f5cd94ec647ad83E", scope: !885, file: !884, line: 2920, type: !792, scopeLine: 2920, flags: DIFlagPrototyped, spFlags: DISPFlagLocalToUnit | DISPFlagDefinition | DISPFlagOptimized, unit: !26, templateParams: !28, retainedNodes: !28)
!1102 = distinct !DILocation(line: 82, column: 9, scope: !1103, inlinedAt: !1107)
!1103 = distinct !DISubprogram(name: "count<core::slice::iter::Iter<u8>,closure-0>", linkageName: "_ZN108_$LT$core..iter..adapters..filter..Filter$LT$I$C$P$GT$$u20$as$u20$core..iter..traits..iterator..Iterator$GT$5count17h5e029c89f8909584E", scope: !1105, file: !1104, line: 76, type: !792, scopeLine: 76, flags: DIFlagPrototyped, spFlags: DISPFlagLocalToUnit | DISPFlagDefinition | DISPFlagOptimized, unit: !26, templateParams: !28, retainedNodes: !28)
!1104 = !DIFile(filename: "library/core/src/iter/adapters/filter.rs", directory: "/rustc/2fd73fabe469357a12c2c974c140f67e7cdd76d0/", checksumkind: CSK_MD5, checksum: "d55d0da99bad480830e232c131e69d67")
!1105 = !DINamespace(name: "{{impl}}", scope: !1106)
!1106 = !DINamespace(name: "filter", scope: !1094)
!1107 = distinct !DILocation(line: 50, column: 9, scope: !1108, inlinedAt: !1109)
!1108 = distinct !DISubprogram(name: "count", linkageName: "_ZN81_$LT$core..str..iter..Chars$u20$as$u20$core..iter..traits..iterator..Iterator$GT$5count17h2707b79bd5bf8b2bE", scope: !898, file: !897, line: 48, type: !792, scopeLine: 48, flags: DIFlagPrototyped, spFlags: DISPFlagLocalToUnit | DISPFlagDefinition | DISPFlagOptimized, unit: !26, templateParams: !28, retainedNodes: !28)
!1109 = distinct !DILocation(line: 1366, column: 28, scope: !832)
!1110 = !DILocation(line: 146, column: 21, scope: !908, inlinedAt: !1087)
!1111 = !DILocation(line: 2124, column: 21, scope: !1088, inlinedAt: !1089)
!1112 = !{!1113}
!1113 = distinct !{!1113, !1114, !"_ZN108_$LT$core..iter..adapters..filter..Filter$LT$I$C$P$GT$$u20$as$u20$core..iter..traits..iterator..Iterator$GT$5count8to_usize28_$u7b$$u7b$closure$u7d$$u7d$17h20ce4c2fc03a5a1bE: argument 0"}
!1114 = distinct !{!1114, !"_ZN108_$LT$core..iter..adapters..filter..Filter$LT$I$C$P$GT$$u20$as$u20$core..iter..traits..iterator..Iterator$GT$5count8to_usize28_$u7b$$u7b$closure$u7d$$u7d$17h20ce4c2fc03a5a1bE"}
!1115 = !DILocation(line: 25, column: 5, scope: !1116, inlinedAt: !1117)
!1116 = distinct !DISubprogram(name: "utf8_is_cont_byte", linkageName: "_ZN4core3str11validations17utf8_is_cont_byte17hbb276746a6535297E", scope: !912, file: !911, line: 24, type: !792, scopeLine: 24, flags: DIFlagPrototyped, spFlags: DISPFlagLocalToUnit | DISPFlagDefinition | DISPFlagOptimized, unit: !26, templateParams: !28, retainedNodes: !28)
!1117 = distinct !DILocation(line: 50, column: 36, scope: !1118, inlinedAt: !1120)
!1118 = distinct !DISubprogram(name: "{{closure}}", linkageName: "_ZN81_$LT$core..str..iter..Chars$u20$as$u20$core..iter..traits..iterator..Iterator$GT$5count28_$u7b$$u7b$closure$u7d$$u7d$17h58cfbd53be20556fE", scope: !1119, file: !897, line: 50, type: !792, scopeLine: 50, flags: DIFlagPrototyped, spFlags: DISPFlagLocalToUnit | DISPFlagDefinition | DISPFlagOptimized, unit: !26, templateParams: !28, retainedNodes: !28)
!1119 = !DINamespace(name: "count", scope: !898)
!1120 = distinct !DILocation(line: 79, column: 22, scope: !1121, inlinedAt: !1124)
!1121 = distinct !DISubprogram(name: "{{closure}}<&u8,closure-0>", linkageName: "_ZN108_$LT$core..iter..adapters..filter..Filter$LT$I$C$P$GT$$u20$as$u20$core..iter..traits..iterator..Iterator$GT$5count8to_usize28_$u7b$$u7b$closure$u7d$$u7d$17h20ce4c2fc03a5a1bE", scope: !1122, file: !1104, line: 79, type: !792, scopeLine: 79, flags: DIFlagPrototyped, spFlags: DISPFlagLocalToUnit | DISPFlagDefinition | DISPFlagOptimized, unit: !26, templateParams: !28, retainedNodes: !28)
!1122 = !DINamespace(name: "to_usize", scope: !1123)
!1123 = !DINamespace(name: "count", scope: !1105)
!1124 = distinct !DILocation(line: 80, column: 28, scope: !1125, inlinedAt: !1127)
!1125 = distinct !DISubprogram(name: "{{closure}}<&u8,usize,usize,closure-0,fn(usize, usize) -> usize>", linkageName: "_ZN4core4iter8adapters3map8map_fold28_$u7b$$u7b$closure$u7d$$u7d$17h0ca24d26fe032464E", scope: !1126, file: !1091, line: 80, type: !792, scopeLine: 80, flags: DIFlagPrototyped, spFlags: DISPFlagLocalToUnit | DISPFlagDefinition | DISPFlagOptimized, unit: !26, templateParams: !28, retainedNodes: !28)
!1126 = !DINamespace(name: "map_fold", scope: !1093)
!1127 = distinct !DILocation(line: 2124, column: 21, scope: !1088, inlinedAt: !1089)
!1128 = !DILocation(line: 79, column: 22, scope: !1121, inlinedAt: !1124)
!1129 = !DILocation(line: 100, column: 45, scope: !1130, inlinedAt: !1134)
!1130 = distinct !DISubprogram(name: "add", linkageName: "_ZN47_$LT$usize$u20$as$u20$core..ops..arith..Add$GT$3add17hbe6d59ae2dd9fec7E", scope: !1132, file: !1131, line: 100, type: !792, scopeLine: 100, flags: DIFlagPrototyped, spFlags: DISPFlagLocalToUnit | DISPFlagDefinition | DISPFlagOptimized, unit: !26, templateParams: !28, retainedNodes: !28)
!1131 = !DIFile(filename: "library/core/src/ops/arith.rs", directory: "/rustc/2fd73fabe469357a12c2c974c140f67e7cdd76d0/", checksumkind: CSK_MD5, checksum: "06ad3b24a5552b7324fc4580f3116982")
!1132 = !DINamespace(name: "{{impl}}", scope: !1133)
!1133 = !DINamespace(name: "arith", scope: !592)
!1134 = distinct !DILocation(line: 150, column: 5, scope: !1135, inlinedAt: !1139)
!1135 = distinct !DISubprogram(name: "call_mut<fn(usize, usize) -> usize,(usize, usize)>", linkageName: "_ZN4core3ops8function5FnMut8call_mut17hf0770d43755bab43E", scope: !1137, file: !1136, line: 150, type: !792, scopeLine: 150, flags: DIFlagPrototyped, spFlags: DISPFlagLocalToUnit | DISPFlagDefinition | DISPFlagOptimized, unit: !26, templateParams: !28, retainedNodes: !28)
!1136 = !DIFile(filename: "library/core/src/ops/function.rs", directory: "/rustc/2fd73fabe469357a12c2c974c140f67e7cdd76d0/", checksumkind: CSK_MD5, checksum: "e7b2206724943b8a8140f7c1065997a3")
!1137 = !DINamespace(name: "FnMut", scope: !1138)
!1138 = !DINamespace(name: "function", scope: !592)
!1139 = distinct !DILocation(line: 80, column: 21, scope: !1125, inlinedAt: !1127)
!1140 = distinct !{!1140, !1141}
!1141 = !{!"llvm.loop.isvectorized", i32 1}
!1142 = !DILocation(line: 232, column: 18, scope: !918, inlinedAt: !1143)
!1143 = distinct !DILocation(line: 93, column: 64, scope: !923, inlinedAt: !1144)
!1144 = distinct !DILocation(line: 149, column: 30, scope: !908, inlinedAt: !1087)
!1145 = distinct !{!1145, !1146, !1141}
!1146 = !{!"llvm.loop.unroll.runtime.disable"}
!1147 = !DILocation(line: 1366, column: 49, scope: !832)
!1148 = !DILocation(line: 1366, column: 28, scope: !832)
!1149 = !DILocation(line: 146, column: 21, scope: !908, inlinedAt: !1150)
!1150 = distinct !DILocation(line: 2123, column: 29, scope: !1088, inlinedAt: !1151)
!1151 = distinct !DILocation(line: 120, column: 9, scope: !1090, inlinedAt: !1152)
!1152 = distinct !DILocation(line: 46, column: 17, scope: !1096, inlinedAt: !1153)
!1153 = distinct !DILocation(line: 2925, column: 9, scope: !1101, inlinedAt: !1154)
!1154 = distinct !DILocation(line: 82, column: 9, scope: !1103, inlinedAt: !1155)
!1155 = distinct !DILocation(line: 50, column: 9, scope: !1108, inlinedAt: !1156)
!1156 = distinct !DILocation(line: 1371, column: 57, scope: !832)
!1157 = !DILocation(line: 2124, column: 21, scope: !1088, inlinedAt: !1151)
!1158 = !{!1159}
!1159 = distinct !{!1159, !1160, !"_ZN108_$LT$core..iter..adapters..filter..Filter$LT$I$C$P$GT$$u20$as$u20$core..iter..traits..iterator..Iterator$GT$5count8to_usize28_$u7b$$u7b$closure$u7d$$u7d$17h20ce4c2fc03a5a1bE: argument 0"}
!1160 = distinct !{!1160, !"_ZN108_$LT$core..iter..adapters..filter..Filter$LT$I$C$P$GT$$u20$as$u20$core..iter..traits..iterator..Iterator$GT$5count8to_usize28_$u7b$$u7b$closure$u7d$$u7d$17h20ce4c2fc03a5a1bE"}
!1161 = !DILocation(line: 25, column: 5, scope: !1116, inlinedAt: !1162)
!1162 = distinct !DILocation(line: 50, column: 36, scope: !1118, inlinedAt: !1163)
!1163 = distinct !DILocation(line: 79, column: 22, scope: !1121, inlinedAt: !1164)
!1164 = distinct !DILocation(line: 80, column: 28, scope: !1125, inlinedAt: !1165)
!1165 = distinct !DILocation(line: 2124, column: 21, scope: !1088, inlinedAt: !1151)
!1166 = !DILocation(line: 79, column: 22, scope: !1121, inlinedAt: !1164)
!1167 = !DILocation(line: 100, column: 45, scope: !1130, inlinedAt: !1168)
!1168 = distinct !DILocation(line: 150, column: 5, scope: !1135, inlinedAt: !1169)
!1169 = distinct !DILocation(line: 80, column: 21, scope: !1125, inlinedAt: !1165)
!1170 = distinct !{!1170, !1141}
!1171 = !DILocation(line: 1366, column: 58, scope: !832)
!1172 = !DILocation(line: 232, column: 18, scope: !918, inlinedAt: !1173)
!1173 = distinct !DILocation(line: 93, column: 64, scope: !923, inlinedAt: !1174)
!1174 = distinct !DILocation(line: 149, column: 30, scope: !908, inlinedAt: !1150)
!1175 = !DILocation(line: 146, column: 24, scope: !908, inlinedAt: !1150)
!1176 = distinct !{!1176, !1146, !1141}
!1177 = !DILocation(line: 0, scope: !1088, inlinedAt: !1151)
!1178 = !DILocation(line: 1371, column: 49, scope: !832)
!1179 = !DILocation(line: 1387, column: 13, scope: !1180, inlinedAt: !1181)
!1180 = distinct !DISubprogram(name: "padding", linkageName: "_ZN4core3fmt9Formatter7padding17h26e671d35553fea1E", scope: !833, file: !797, line: 1381, type: !792, scopeLine: 1381, flags: DIFlagPrototyped, spFlags: DISPFlagLocalToUnit | DISPFlagDefinition | DISPFlagOptimized, unit: !26, templateParams: !28, retainedNodes: !28)
!1181 = distinct !DILocation(line: 1371, column: 36, scope: !832)
!1182 = !{i8 0, i8 4}
!1183 = !DILocation(line: 1386, column: 21, scope: !1180, inlinedAt: !1181)
!1184 = !DILocation(line: 1392, column: 13, scope: !1180, inlinedAt: !1181)
!1185 = !DILocation(line: 1394, column: 43, scope: !1180, inlinedAt: !1181)
!1186 = !DILocation(line: 1394, column: 56, scope: !1180, inlinedAt: !1181)
!1187 = !DILocation(line: 1391, column: 35, scope: !1180, inlinedAt: !1181)
!1188 = !DILocation(line: 1391, column: 41, scope: !1180, inlinedAt: !1181)
!1189 = !DILocation(line: 0, scope: !1180, inlinedAt: !1181)
!1190 = !DILocation(line: 1397, column: 9, scope: !1180, inlinedAt: !1181)
!1191 = !DILocation(line: 1258, column: 52, scope: !877, inlinedAt: !1192)
!1192 = distinct !DILocation(line: 507, column: 12, scope: !880, inlinedAt: !1193)
!1193 = distinct !DILocation(line: 1397, column: 18, scope: !1180, inlinedAt: !1181)
!1194 = !DILocation(line: 507, column: 9, scope: !880, inlinedAt: !1193)
!1195 = !DILocation(line: 434, column: 22, scope: !902, inlinedAt: !1196)
!1196 = distinct !DILocation(line: 193, column: 22, scope: !905, inlinedAt: !1197)
!1197 = distinct !DILocation(line: 509, column: 30, scope: !880, inlinedAt: !1193)
!1198 = !DILocation(line: 1398, column: 13, scope: !1180, inlinedAt: !1181)
!1199 = !DILocation(line: 1398, column: 33, scope: !1180, inlinedAt: !1181)
!1200 = !{i32 0, i32 1114112}
!1201 = !DILocation(line: 1398, column: 43, scope: !1180, inlinedAt: !1181)
!1202 = !DILocation(line: 1401, column: 29, scope: !1180, inlinedAt: !1181)
!1203 = !DILocation(line: 1372, column: 17, scope: !832)
!1204 = !DILocation(line: 1372, column: 38, scope: !832)
!1205 = !DILocation(line: 1373, column: 36, scope: !832)
!1206 = !DILocation(line: 0, scope: !1207, inlinedAt: !1209)
!1207 = distinct !DISubprogram(name: "write", linkageName: "_ZN4core3fmt11PostPadding5write17h3400f741060dd64cE", scope: !1208, file: !797, line: 1168, type: !792, scopeLine: 1168, flags: DIFlagPrototyped, spFlags: DISPFlagLocalToUnit | DISPFlagDefinition | DISPFlagOptimized, unit: !26, templateParams: !28, retainedNodes: !28)
!1208 = !DINamespace(name: "PostPadding", scope: !20)
!1209 = distinct !DILocation(line: 1373, column: 17, scope: !832)
!1210 = !DILocation(line: 1169, column: 9, scope: !1207, inlinedAt: !1209)
!1211 = !DILocation(line: 1258, column: 52, scope: !877, inlinedAt: !1212)
!1212 = distinct !DILocation(line: 507, column: 12, scope: !880, inlinedAt: !1213)
!1213 = distinct !DILocation(line: 1169, column: 18, scope: !1207, inlinedAt: !1209)
!1214 = !DILocation(line: 507, column: 9, scope: !880, inlinedAt: !1213)
!1215 = !DILocation(line: 434, column: 22, scope: !902, inlinedAt: !1216)
!1216 = distinct !DILocation(line: 193, column: 22, scope: !905, inlinedAt: !1217)
!1217 = distinct !DILocation(line: 509, column: 30, scope: !880, inlinedAt: !1213)
!1218 = !DILocation(line: 1170, column: 13, scope: !1207, inlinedAt: !1209)
!1219 = !{!1220}
!1220 = distinct !{!1220, !1221, !"_ZN4core3fmt11PostPadding5write17h3400f741060dd64cE: argument 0"}
!1221 = distinct !{!1221, !"_ZN4core3fmt11PostPadding5write17h3400f741060dd64cE"}
!1222 = !DILocation(line: 1170, column: 38, scope: !1207, inlinedAt: !1209)
!1223 = !DILocation(line: 1376, column: 6, scope: !832)
!1224 = distinct !DISubprogram(name: "fmt", linkageName: "_ZN43_$LT$bool$u20$as$u20$core..fmt..Display$GT$3fmt17h68936f9faabe396cE", scope: !395, file: !797, line: 2050, type: !792, scopeLine: 2050, flags: DIFlagPrototyped, spFlags: DISPFlagDefinition | DISPFlagOptimized, unit: !26, templateParams: !28, retainedNodes: !28)
!1225 = !DILocation(line: 2051, column: 25, scope: !1224)
!1226 = !DILocation(line: 2051, column: 22, scope: !1224)
!1227 = !DILocation(line: 2079, column: 9, scope: !1228, inlinedAt: !1229)
!1228 = distinct !DISubprogram(name: "fmt", linkageName: "_ZN42_$LT$str$u20$as$u20$core..fmt..Display$GT$3fmt17hba1ddec6fae90f51E", scope: !395, file: !797, line: 2078, type: !792, scopeLine: 2078, flags: DIFlagPrototyped, spFlags: DISPFlagDefinition | DISPFlagOptimized, unit: !26, templateParams: !28, retainedNodes: !28)
!1229 = distinct !DILocation(line: 2051, column: 9, scope: !1224)
!1230 = !DILocation(line: 2079, column: 9, scope: !1228, inlinedAt: !1231)
!1231 = distinct !DILocation(line: 2051, column: 9, scope: !1224)
!1232 = !DILocation(line: 2051, column: 9, scope: !1224)
!1233 = !DILocation(line: 2052, column: 6, scope: !1224)
!1234 = distinct !DISubprogram(name: "as_ptr<i8>", linkageName: "_ZN4core5slice29_$LT$impl$u20$$u5b$T$u5d$$GT$6as_ptr17hc11cd399229b063eE", scope: !852, file: !1235, line: 412, type: !1236, scopeLine: 412, flags: DIFlagPrototyped, spFlags: DISPFlagLocalToUnit | DISPFlagDefinition, unit: !29, templateParams: !1244, retainedNodes: !1242)
!1235 = !DIFile(filename: "/rustc/2fd73fabe469357a12c2c974c140f67e7cdd76d0/library/core/src/slice/mod.rs", directory: "", checksumkind: CSK_MD5, checksum: "ea4e5ca9ae063a46c5941966a2eac2e5")
!1236 = !DISubroutineType(types: !1237)
!1237 = !{!665, !1238}
!1238 = !DICompositeType(tag: DW_TAG_structure_type, name: "&[i8]", file: !10, size: 128, align: 64, elements: !1239, templateParams: !28, identifier: "ff2d3342965f88c921150103b65d8d80")
!1239 = !{!1240, !1241}
!1240 = !DIDerivedType(tag: DW_TAG_member, name: "data_ptr", scope: !1238, file: !10, baseType: !665, size: 64, align: 64)
!1241 = !DIDerivedType(tag: DW_TAG_member, name: "length", scope: !1238, file: !10, baseType: !53, size: 64, align: 64, offset: 64)
!1242 = !{!1243}
!1243 = !DILocalVariable(name: "self", arg: 1, scope: !1234, file: !1235, line: 412, type: !1238)
!1244 = !{!1245}
!1245 = !DITemplateTypeParameter(name: "T", type: !34)
!1246 = !DILocation(line: 412, column: 25, scope: !1234)
!1247 = !DILocation(line: 413, column: 9, scope: !1234)
!1248 = !DILocation(line: 414, column: 6, scope: !1234)
!1249 = distinct !DISubprogram(name: "replace<usize>", linkageName: "_ZN4core3mem7replace17hf3b6497db9e66a68E", scope: !1251, file: !1250, line: 826, type: !1252, scopeLine: 826, flags: DIFlagPrototyped, spFlags: DISPFlagLocalToUnit | DISPFlagDefinition, unit: !66, templateParams: !111, retainedNodes: !1254)
!1250 = !DIFile(filename: "/rustc/2fd73fabe469357a12c2c974c140f67e7cdd76d0/library/core/src/mem/mod.rs", directory: "", checksumkind: CSK_MD5, checksum: "c6e13eb32828a8116f205e2f9341b1ad")
!1251 = !DINamespace(name: "mem", scope: !12)
!1252 = !DISubroutineType(types: !1253)
!1253 = !{!53, !777, !53}
!1254 = !{!1255, !1256}
!1255 = !DILocalVariable(name: "dest", arg: 1, scope: !1249, file: !1250, line: 826, type: !777)
!1256 = !DILocalVariable(name: "src", arg: 2, scope: !1249, file: !1250, line: 826, type: !53)
!1257 = !DILocation(line: 826, column: 19, scope: !1249)
!1258 = !DILocation(line: 826, column: 33, scope: !1249)
!1259 = !DILocation(line: 827, column: 5, scope: !1249)
!1260 = !DILocation(line: 828, column: 5, scope: !1249)
!1261 = !DILocation(line: 829, column: 2, scope: !1249)
!1262 = distinct !DISubprogram(name: "swap<usize>", linkageName: "_ZN4core3mem4swap17h59ae4fd38c7c4bd2E", scope: !1251, file: !1250, line: 696, type: !1263, scopeLine: 696, flags: DIFlagPrototyped, spFlags: DISPFlagLocalToUnit | DISPFlagDefinition, unit: !66, templateParams: !111, retainedNodes: !1265)
!1263 = !DISubroutineType(types: !1264)
!1264 = !{null, !777, !777}
!1265 = !{!1266, !1267}
!1266 = !DILocalVariable(name: "x", arg: 1, scope: !1262, file: !1250, line: 696, type: !777)
!1267 = !DILocalVariable(name: "y", arg: 2, scope: !1262, file: !1250, line: 696, type: !777)
!1268 = !DILocation(line: 696, column: 16, scope: !1262)
!1269 = !DILocation(line: 696, column: 27, scope: !1262)
!1270 = !DILocation(line: 700, column: 9, scope: !1262)
!1271 = !DILocation(line: 702, column: 2, scope: !1262)
!1272 = distinct !DISubprogram(name: "swap_nonoverlapping_one<usize>", linkageName: "_ZN4core3ptr23swap_nonoverlapping_one17hb8e549a2ed77324fE", scope: !825, file: !1273, line: 451, type: !1274, scopeLine: 451, flags: DIFlagPrototyped, spFlags: DISPFlagLocalToUnit | DISPFlagDefinition, unit: !66, templateParams: !111, retainedNodes: !1277)
!1273 = !DIFile(filename: "/rustc/2fd73fabe469357a12c2c974c140f67e7cdd76d0/library/core/src/ptr/mod.rs", directory: "", checksumkind: CSK_MD5, checksum: "a4f2d8ba04981bbf92ef9174cf1f1763")
!1274 = !DISubroutineType(types: !1275)
!1275 = !{null, !1276, !1276}
!1276 = !DIDerivedType(tag: DW_TAG_pointer_type, name: "*mut usize", baseType: !53, size: 64, align: 64, dwarfAddressSpace: 0)
!1277 = !{!1278, !1279, !1280}
!1278 = !DILocalVariable(name: "x", arg: 1, scope: !1272, file: !1273, line: 451, type: !1276)
!1279 = !DILocalVariable(name: "y", arg: 2, scope: !1272, file: !1273, line: 451, type: !1276)
!1280 = !DILocalVariable(name: "z", scope: !1281, file: !1273, line: 458, type: !53, align: 8)
!1281 = distinct !DILexicalBlock(scope: !1272, file: !1273, line: 458, column: 13)
!1282 = !DILocation(line: 451, column: 49, scope: !1272)
!1283 = !DILocation(line: 451, column: 60, scope: !1272)
!1284 = !DILocation(line: 454, column: 8, scope: !1272)
!1285 = !DILocation(line: 454, column: 5, scope: !1272)
!1286 = !DILocation(line: 458, column: 21, scope: !1272)
!1287 = !DILocation(line: 458, column: 17, scope: !1281)
!1288 = !DILocation(line: 459, column: 13, scope: !1281)
!1289 = !DILocation(line: 460, column: 22, scope: !1281)
!1290 = !DILocation(line: 460, column: 13, scope: !1281)
!1291 = !DILocation(line: 461, column: 9, scope: !1272)
!1292 = !DILocation(line: 464, column: 18, scope: !1272)
!1293 = !DILocation(line: 466, column: 2, scope: !1272)
!1294 = distinct !DISubprogram(name: "read<usize>", linkageName: "_ZN4core3ptr4read17h313a7e7e77d2d4a5E", scope: !825, file: !1273, line: 689, type: !1295, scopeLine: 689, flags: DIFlagPrototyped, spFlags: DISPFlagLocalToUnit | DISPFlagDefinition, unit: !66, templateParams: !111, retainedNodes: !1298)
!1295 = !DISubroutineType(types: !1296)
!1296 = !{!53, !1297}
!1297 = !DIDerivedType(tag: DW_TAG_pointer_type, name: "*const usize", baseType: !53, size: 64, align: 64, dwarfAddressSpace: 0)
!1298 = !{!1299, !1300}
!1299 = !DILocalVariable(name: "src", arg: 1, scope: !1294, file: !1273, line: 689, type: !1297)
!1300 = !DILocalVariable(name: "tmp", scope: !1301, file: !1273, line: 690, type: !1302, align: 8)
!1301 = distinct !DILexicalBlock(scope: !1294, file: !1273, line: 690, column: 5)
!1302 = !DICompositeType(tag: DW_TAG_union_type, name: "MaybeUninit<usize>", scope: !1303, file: !10, size: 64, align: 64, elements: !1304, templateParams: !111, identifier: "4c944f112e42e870b9310ea11483dbc2")
!1303 = !DINamespace(name: "maybe_uninit", scope: !1251)
!1304 = !{!1305, !1306}
!1305 = !DIDerivedType(tag: DW_TAG_member, name: "uninit", scope: !1302, file: !10, baseType: !210, align: 8)
!1306 = !DIDerivedType(tag: DW_TAG_member, name: "value", scope: !1302, file: !10, baseType: !1307, size: 64, align: 64)
!1307 = !DICompositeType(tag: DW_TAG_structure_type, name: "ManuallyDrop<usize>", scope: !1308, file: !10, size: 64, align: 64, elements: !1309, templateParams: !111, identifier: "a169f7793e1860c9a3887074b4fe903b")
!1308 = !DINamespace(name: "manually_drop", scope: !1251)
!1309 = !{!1310}
!1310 = !DIDerivedType(tag: DW_TAG_member, name: "value", scope: !1307, file: !10, baseType: !53, size: 64, align: 64)
!1311 = !DILocation(line: 689, column: 29, scope: !1294)
!1312 = !DILocation(line: 690, column: 9, scope: !1301)
!1313 = !DILocation(line: 315, column: 9, scope: !1314, inlinedAt: !1318)
!1314 = distinct !DISubprogram(name: "uninit<usize>", linkageName: "_ZN4core3mem12maybe_uninit20MaybeUninit$LT$T$GT$6uninit17hdb0007919ddbfdd9E", scope: !1302, file: !1315, line: 314, type: !1316, scopeLine: 314, flags: DIFlagPrototyped, spFlags: DISPFlagLocalToUnit | DISPFlagDefinition, unit: !66, templateParams: !111, retainedNodes: !28)
!1315 = !DIFile(filename: "/rustc/2fd73fabe469357a12c2c974c140f67e7cdd76d0/library/core/src/mem/maybe_uninit.rs", directory: "", checksumkind: CSK_MD5, checksum: "03b43ae1e9b14d05f4f2ba9780321a7a")
!1316 = !DISubroutineType(types: !1317)
!1317 = !{!1302}
!1318 = distinct !DILocation(line: 690, column: 19, scope: !1294)
!1319 = !DILocation(line: 316, column: 6, scope: !1314, inlinedAt: !1318)
!1320 = !DILocation(line: 690, column: 19, scope: !1294)
!1321 = !DILocalVariable(name: "self", arg: 1, scope: !1322, file: !1315, line: 488, type: !1325)
!1322 = distinct !DISubprogram(name: "as_mut_ptr<usize>", linkageName: "_ZN4core3mem12maybe_uninit20MaybeUninit$LT$T$GT$10as_mut_ptr17h4b6d93897007903eE", scope: !1302, file: !1315, line: 488, type: !1323, scopeLine: 488, flags: DIFlagPrototyped, spFlags: DISPFlagLocalToUnit | DISPFlagDefinition, unit: !66, templateParams: !111, retainedNodes: !1326)
!1323 = !DISubroutineType(types: !1324)
!1324 = !{!1276, !1325}
!1325 = !DIDerivedType(tag: DW_TAG_pointer_type, name: "&mut core::mem::maybe_uninit::MaybeUninit<usize>", baseType: !1302, size: 64, align: 64, dwarfAddressSpace: 0)
!1326 = !{!1321}
!1327 = !DILocation(line: 488, column: 29, scope: !1322, inlinedAt: !1328)
!1328 = distinct !DILocation(line: 698, column: 34, scope: !1301)
!1329 = !DILocation(line: 698, column: 9, scope: !1301)
!1330 = !DILocation(line: 699, column: 9, scope: !1301)
!1331 = !DILocalVariable(name: "self", arg: 1, scope: !1332, file: !1315, line: 542, type: !1302)
!1332 = distinct !DISubprogram(name: "assume_init<usize>", linkageName: "_ZN4core3mem12maybe_uninit20MaybeUninit$LT$T$GT$11assume_init17h22b1d3981557336cE", scope: !1302, file: !1315, line: 542, type: !1333, scopeLine: 542, flags: DIFlagPrototyped, spFlags: DISPFlagLocalToUnit | DISPFlagDefinition, unit: !66, templateParams: !111, retainedNodes: !1335)
!1333 = !DISubroutineType(types: !1334)
!1334 = !{!53, !1302}
!1335 = !{!1331}
!1336 = !DILocation(line: 542, column: 37, scope: !1332, inlinedAt: !1337)
!1337 = distinct !DILocation(line: 699, column: 9, scope: !1301)
!1338 = !DILocalVariable(name: "slot", arg: 1, scope: !1339, file: !1340, line: 87, type: !1307)
!1339 = distinct !DISubprogram(name: "into_inner<usize>", linkageName: "_ZN4core3mem13manually_drop21ManuallyDrop$LT$T$GT$10into_inner17hd368551ca855cf60E", scope: !1307, file: !1340, line: 87, type: !1341, scopeLine: 87, flags: DIFlagPrototyped, spFlags: DISPFlagLocalToUnit | DISPFlagDefinition, unit: !66, templateParams: !111, retainedNodes: !1343)
!1340 = !DIFile(filename: "/rustc/2fd73fabe469357a12c2c974c140f67e7cdd76d0/library/core/src/mem/manually_drop.rs", directory: "", checksumkind: CSK_MD5, checksum: "1ebb77b55900bbb941b074f7b36dbdc1")
!1341 = !DISubroutineType(types: !1342)
!1342 = !{!53, !1307}
!1343 = !{!1338}
!1344 = !DILocation(line: 87, column: 29, scope: !1339, inlinedAt: !1345)
!1345 = distinct !DILocation(line: 547, column: 13, scope: !1332, inlinedAt: !1337)
!1346 = !DILocation(line: 701, column: 2, scope: !1294)
!1347 = distinct !DISubprogram(name: "swap_nonoverlapping<usize>", linkageName: "_ZN4core3ptr19swap_nonoverlapping17hdf533d4950df7233E", scope: !825, file: !1273, line: 432, type: !1348, scopeLine: 432, flags: DIFlagPrototyped, spFlags: DISPFlagLocalToUnit | DISPFlagDefinition, unit: !66, templateParams: !111, retainedNodes: !1350)
!1348 = !DISubroutineType(types: !1349)
!1349 = !{null, !1276, !1276, !53}
!1350 = !{!1351, !1352, !1353, !1354, !1356, !1358}
!1351 = !DILocalVariable(name: "x", arg: 1, scope: !1347, file: !1273, line: 432, type: !1276)
!1352 = !DILocalVariable(name: "y", arg: 2, scope: !1347, file: !1273, line: 432, type: !1276)
!1353 = !DILocalVariable(name: "count", arg: 3, scope: !1347, file: !1273, line: 432, type: !53)
!1354 = !DILocalVariable(name: "x", scope: !1355, file: !1273, line: 442, type: !423, align: 8)
!1355 = distinct !DILexicalBlock(scope: !1347, file: !1273, line: 442, column: 5)
!1356 = !DILocalVariable(name: "y", scope: !1357, file: !1273, line: 443, type: !423, align: 8)
!1357 = distinct !DILexicalBlock(scope: !1355, file: !1273, line: 443, column: 5)
!1358 = !DILocalVariable(name: "len", scope: !1359, file: !1273, line: 444, type: !53, align: 8)
!1359 = distinct !DILexicalBlock(scope: !1357, file: !1273, line: 444, column: 5)
!1360 = !DILocation(line: 432, column: 38, scope: !1347)
!1361 = !DILocation(line: 432, column: 49, scope: !1347)
!1362 = !DILocation(line: 432, column: 60, scope: !1347)
!1363 = !DILocation(line: 442, column: 13, scope: !1347)
!1364 = !DILocation(line: 442, column: 9, scope: !1355)
!1365 = !DILocation(line: 443, column: 13, scope: !1355)
!1366 = !DILocation(line: 443, column: 9, scope: !1357)
!1367 = !DILocation(line: 444, column: 15, scope: !1357)
!1368 = !DILocation(line: 444, column: 9, scope: !1359)
!1369 = !DILocation(line: 447, column: 14, scope: !1359)
!1370 = !DILocation(line: 448, column: 2, scope: !1347)
!1371 = distinct !DISubprogram(name: "copy_nonoverlapping<usize>", linkageName: "_ZN4core10intrinsics19copy_nonoverlapping17h8d5bd974e265d66cE", scope: !1373, file: !1372, line: 1843, type: !1374, scopeLine: 1843, flags: DIFlagPrototyped, spFlags: DISPFlagLocalToUnit | DISPFlagDefinition, unit: !66, templateParams: !111, retainedNodes: !1376)
!1372 = !DIFile(filename: "/rustc/2fd73fabe469357a12c2c974c140f67e7cdd76d0/library/core/src/intrinsics.rs", directory: "", checksumkind: CSK_MD5, checksum: "0e207eea7b158eb9610137138c6779c4")
!1373 = !DINamespace(name: "intrinsics", scope: !12)
!1374 = !DISubroutineType(types: !1375)
!1375 = !{null, !1297, !1276, !53}
!1376 = !{!1377, !1378, !1379}
!1377 = !DILocalVariable(name: "src", arg: 1, scope: !1371, file: !1372, line: 1843, type: !1297)
!1378 = !DILocalVariable(name: "dst", arg: 2, scope: !1371, file: !1372, line: 1843, type: !1276)
!1379 = !DILocalVariable(name: "count", arg: 3, scope: !1371, file: !1372, line: 1843, type: !53)
!1380 = !DILocation(line: 1843, column: 44, scope: !1371)
!1381 = !DILocation(line: 1843, column: 59, scope: !1371)
!1382 = !DILocation(line: 1843, column: 72, scope: !1371)
!1383 = !DILocation(line: 1861, column: 14, scope: !1371)
!1384 = !DILocation(line: 1862, column: 2, scope: !1371)
!1385 = distinct !DISubprogram(name: "write<usize>", linkageName: "_ZN4core3ptr5write17hbb233c52978d0d77E", scope: !825, file: !1273, line: 883, type: !1386, scopeLine: 883, flags: DIFlagPrototyped, spFlags: DISPFlagLocalToUnit | DISPFlagDefinition, unit: !66, templateParams: !111, retainedNodes: !1388)
!1386 = !DISubroutineType(types: !1387)
!1387 = !{null, !1276, !53}
!1388 = !{!1389, !1390}
!1389 = !DILocalVariable(name: "dst", arg: 1, scope: !1385, file: !1273, line: 883, type: !1276)
!1390 = !DILocalVariable(name: "src", arg: 2, scope: !1385, file: !1273, line: 883, type: !53)
!1391 = !DILocation(line: 883, column: 24, scope: !1385)
!1392 = !DILocation(line: 883, column: 37, scope: !1385)
!1393 = !DILocation(line: 894, column: 9, scope: !1385)
!1394 = !DILocation(line: 895, column: 28, scope: !1385)
!1395 = !DILocation(line: 897, column: 2, scope: !1385)
!1396 = distinct !DISubprogram(name: "swap_nonoverlapping_bytes", linkageName: "_ZN4core3ptr25swap_nonoverlapping_bytes17h514aa8232de39c2dE", scope: !825, file: !1273, line: 469, type: !1397, scopeLine: 469, flags: DIFlagPrototyped, spFlags: DISPFlagLocalToUnit | DISPFlagDefinition, unit: !66, templateParams: !28, retainedNodes: !1399)
!1397 = !DISubroutineType(types: !1398)
!1398 = !{null, !423, !423, !53}
!1399 = !{!1400, !1401, !1402, !1403, !1405, !1407, !1425, !1427, !1429, !1431, !1448, !1450, !1452, !1454}
!1400 = !DILocalVariable(name: "x", arg: 1, scope: !1396, file: !1273, line: 469, type: !423)
!1401 = !DILocalVariable(name: "y", arg: 2, scope: !1396, file: !1273, line: 469, type: !423)
!1402 = !DILocalVariable(name: "len", arg: 3, scope: !1396, file: !1273, line: 469, type: !53)
!1403 = !DILocalVariable(name: "block_size", scope: !1404, file: !1273, line: 480, type: !53, align: 8)
!1404 = distinct !DILexicalBlock(scope: !1396, file: !1273, line: 480, column: 5)
!1405 = !DILocalVariable(name: "i", scope: !1406, file: !1273, line: 485, type: !53, align: 8)
!1406 = distinct !DILexicalBlock(scope: !1404, file: !1273, line: 485, column: 5)
!1407 = !DILocalVariable(name: "t", scope: !1408, file: !1273, line: 489, type: !1409, align: 32)
!1408 = distinct !DILexicalBlock(scope: !1406, file: !1273, line: 489, column: 9)
!1409 = !DICompositeType(tag: DW_TAG_union_type, name: "MaybeUninit<core::ptr::swap_nonoverlapping_bytes::Block>", scope: !1303, file: !10, size: 256, align: 256, elements: !1410, templateParams: !1423, identifier: "fd45969605ffdcc095246558b4a9155a")
!1410 = !{!1411, !1412}
!1411 = !DIDerivedType(tag: DW_TAG_member, name: "uninit", scope: !1409, file: !10, baseType: !210, align: 8)
!1412 = !DIDerivedType(tag: DW_TAG_member, name: "value", scope: !1409, file: !10, baseType: !1413, size: 256, align: 256)
